(dp0
S'stat_nuc'
p1
S'stat_nuc'
p2
sS'Pstat_sol'
p3
S'Pstat_sol'
p4
sS'PstatDimer_sol'
p5
S'PstatDimer_sol'
p6
sS'statPhosphatase_nuc'
p7
S'statPhosphatase_nuc'
p8
sS'Pstat_nuc'
p9
S'Pstat_nuc'
p10
sS'species_test'
p11
S'species_test'
p12
sS'statKinase_sol'
p13
S'statKinase_sol'
p14
sS'PstatDimer_nuc'
p15
S'PstatDimer_nuc'
p16
sS'stat_sol'
p17
S'stat_sol'
p18
s.