(dp0
S'Acr3'
p1
S'species_14'
p2
sS'AsIIIin'
p3
S'species_1'
p4
sS'AsIIIex'
p5
S'species_6'
p6
sS'Hog1PP'
p7
S'species_10'
p8
sS'Fps1'
p9
S'species_11'
p10
sS'vAsGS3'
p11
S'species_4'
p12
sS'Ycf1'
p13
S'species_5'
p14
sS'Hog1'
p15
S'species_9'
p16
sS'AsGS3'
p17
S'species_3'
p18
sS'GSH'
p19
S'species_7'
p20
sS'AsIIIProt'
p21
S'species_2'
p22
sS'Fps1P'
p23
S'species_15'
p24
s.