(dp0
S'PartialPermease'
p1
S'I3'
p2
sS'PartialBetagalactosidase'
p3
S'I2'
p4
sS'permease'
p5
S'P'
p6
sS'mRNA'
p7
S'M'
p8
sS'Betagalactosidase'
p9
S'B'
p10
sS'PartialmRNA'
p11
S'I1'
p12
sS'External_Lactose'
p13
S'L_e'
p14
sS'allolactose'
p15
S'A'
p16
sS'lactose_internal'
p17
S'L'
p18
s.