(dp0
S'Fructose-1,6-bisphosphate'
p1
S'cfdp'
p2
sS'Phosphoenol pyruvate'
p3
S'cpep'
p4
sS'Glucose-1-Phosphate'
p5
S'cg1p'
p6
sS'Glyceraldehyde-3-Phosphate'
p7
S'cgap'
p8
sS'Erythrose-4-phosphate'
p9
S'ce4p'
p10
sS'Fructose-6-Phosphate'
p11
S'cf6p'
p12
sS'Pyruvate'
p13
S'cpyr'
p14
sS'3-Phosphoglycerate'
p15
S'cpg3'
p16
sS'Glucose-6-Phosphate'
p17
S'cg6p'
p18
sS'sedoheptulose-7-phosphate'
p19
S'csed7p'
p20
sS'Xylulose-5-phosphate'
p21
S'cxyl5p'
p22
sS'Ribulose-5-phosphate'
p23
S'cribu5p'
p24
sS'Ribose-5-phosphate'
p25
S'crib5p'
p26
sS'1,3-diphosphosphoglycerate'
p27
S'cpgp'
p28
sS'6-Phosphogluconate'
p29
S'cpg'
p30
sS'2-Phosphoglycerate'
p31
S'cpg2'
p32
sS'Dihydroxyacetonephosphate'
p33
S'cdhap'
p34
sS'Extracellular Glucose'
p35
S'cglcex'
p36
s.