(dp0
S'ligand receptor complex-endosome'
p1
S'lRIRII_endo'
p2
sS'Receptor 2'
p3
S'RII'
p4
sS'Receptor 1-endosome'
p5
S'RI_endo'
p6
sS'Receptor 2 endosome'
p7
S'RII_endo'
p8
sS'Receptor 1'
p9
S'RI'
p10
sS'ligand receptor complex-plasma membrane'
p11
S'lRIRII'
p12
s.