(dp0
S'pSmad2_n'
p1
S'pS2_n'
p2
sS'pSmad2/pSmad2_c'
p3
S'S22_c'
p4
sS'pGFP-Smad2/pSmad2_n'
p5
S'G2_n'
p6
sS'pGFP-Smad2_c'
p7
S'pG_c'
p8
sS'pGFP-Smad2_n'
p9
S'pG_n'
p10
sS'pSmad2/pSmad2_n'
p11
S'S22_n'
p12
sS'Smad4_n'
p13
S'S4_n'
p14
sS'Smad4_c'
p15
S'S4_c'
p16
sS'pSmad2/Smad4_n'
p17
S'S24_n'
p18
sS'Smad2_n'
p19
S'S2_n'
p20
sS'Smad2_c'
p21
S'S2_c'
p22
sS'GFP-Smad2_c'
p23
S'G_c'
p24
sS'pSmad2_c'
p25
S'pS2_c'
p26
sS'pGFP-Smad2/pGFP_Smad2_n'
p27
S'GG_n'
p28
sS'GFP-Smad2_n'
p29
S'G_n'
p30
sS'R'
p31
g31
sS'pGFP-Smad2/pGFP-Smad2_c'
p32
S'GG_c'
p33
sS'pGFP-Smad2/Smad4_c'
p34
S'G4_c'
p35
sS'SB-431542'
p36
S'SB'
p37
sS'R_inact'
p38
S'R_inact'
p39
sS'pGFP-Smad2/Smad4_n'
p40
S'G4_n'
p41
sS'PPase'
p42
S'PPase'
p43
sS'pGFP-Smad2/pSmad2_c'
p44
S'G2_c'
p45
sS'R_act'
p46
S'R_act'
p47
sS'TGFb_c'
p48
S'TGFb_c'
p49
sS'pSmad2/Smad4_c'
p50
S'S24_c'
p51
s.