(dp0
S'extracellular acetaldehyde'
p1
S's6o'
p2
sS'NAD'
p3
S'na'
p4
sS'F16P'
p5
S's2'
p6
sS'Pyruvate'
p7
S's5'
p8
sS'Triose_Gly3Phos_DHAP'
p9
S's3'
p10
sS'ATP'
p11
S'at'
p12
sS'Acetaldehyde'
p13
S's6'
p14
sS'Glucose'
p15
S's1'
p16
sS'3PG'
p17
S's4'
p18
s.