(dp0
S'nTh1_LP'
p1
S'species_13'
p2
sS'nTh17'
p3
S'species_14'
p4
sS'tDC'
p5
S's27'
p6
sS'HP'
p7
S's6'
p8
sS'nTh17_LP'
p9
S'species_15'
p10
sS'Th1'
p11
S's31'
p12
sS'M1'
p13
S's19'
p14
sS'M0'
p15
S's22'
p16
sS'M2'
p17
S's21'
p18
sS'eDCLB'
p19
S'species_20'
p20
sS'nT'
p21
S's28'
p22
sS'nTh1'
p23
S'species_12'
p24
sS'LB'
p25
S'species_10'
p26
sS'eDC'
p27
S's26'
p28
sS'iTreg'
p29
S's33'
p30
sS'TotalM'
p31
S'species_3'
p32
sS'iDC'
p33
S's4'
p34
sS'pEC'
p35
S'species_19'
p36
sS'E'
p37
S's2'
p38
sS'Edead'
p39
S'species_5'
p40
sS'TotalT-s'
p41
S'species_9'
p42
sS'emT'
p43
S's17'
p44
sS'Th17'
p45
S's30'
p46
sS'cmT'
p47
S's29'
p48
sS'LB Dose'
p49
S'species_11'
p50
sS'TotalT'
p51
S'species_8'
p52
sS'HP Dose'
p53
S'species_7'
p54
sS'nTreg'
p55
S'species_16'
p56
sS'nTreg_LP'
p57
S'species_17'
p58
sS'Ep'
p59
S's3'
p60
sS'TotalDC'
p61
S'species_6'
p62
s.