(dp0
S'cCOP1n'
p1
S'cCOP1n'
p2
sS'cSnRK2'
p3
S'species_3'
p4
sS'cCOP1d'
p5
S'cCOP1d'
p6
sS'cCOP1c'
p7
S'cCOP1c'
p8
sS'cE3n'
p9
S'cE3n'
p10
sS'cT_m'
p11
S'cT_m'
p12
sS'cs'
p13
S'species_4'
p14
sS'cZG'
p15
S'cZG'
p16
sS'cL'
p17
S'cL'
p18
sS'cNI_m'
p19
S'cNI_m'
p20
sS'cG'
p21
S'cG'
p22
sS'cZTL'
p23
S'cZTL'
p24
sS'cLUX'
p25
S'cLUX'
p26
sS'cE4'
p27
S'cE4'
p28
sS'cE3'
p29
S'cE3'
p30
sS'cL_m'
p31
S'cL_m'
p32
sS'cP'
p33
S'cP'
p34
sS'cT'
p35
S'cT'
p36
sS'cEG'
p37
S'cEG'
p38
sS'cLm'
p39
S'cLm'
p40
sS'cEC'
p41
S'cEC'
p42
sS'cE4_m'
p43
S'cE4_m'
p44
sS'cE3_m'
p45
S'cE3_m'
p46
sS'cP7_m'
p47
S'cP7_m'
p48
sS'cPP2C'
p49
S'species_2'
p50
sS'cP9'
p51
S'cP9'
p52
sS'cP9_m'
p53
S'cP9_m'
p54
sS'cG_m'
p55
S'cG_m'
p56
sS'cLUX_m'
p57
S'cLUX_m'
p58
sS'cP7'
p59
S'cP7'
p60
sS'cABAR_m'
p61
S'species_1'
p62
sS'cNI'
p63
S'cNI'
p64
s.