(dp0
S'sa10_degraded'
p1
S's19'
p2
sS'sa4_degraded'
p3
S's11'
p4
sS'F2,6BP'
p5
S's9'
p6
sS'PEP'
p7
S's5'
p8
sS'sa5_degraded'
p9
S's16'
p10
sS'2-oxoglutarate'
p11
S's7'
p12
sS'sa3_degraded'
p13
S's21'
p14
sS'Isocitrate'
p15
S's6'
p16
sS'ALDO'
p17
S's12'
p18
sS'FBPase'
p19
S's2'
p20
sS'sa13_degraded'
p21
S's20'
p22
sS'pPFKL'
p23
S's13'
p24
sS'sa6_degraded'
p25
S's17'
p26
sS'Malate'
p27
S's8'
p28
sS'F6P_proxy'
p29
S's22'
p30
sS'Citrate'
p31
S's10'
p32
sS'sa7_degraded'
p33
S's15'
p34
sS'sa9_degraded'
p35
S's18'
p36
sS'sa8_degraded'
p37
S's14'
p38
sS'PFKL'
p39
S's1'
p40
sS'F1,6BP'
p41
S's4'
p42
sS'F6P'
p43
S's3'
p44
s.