(dp0
S'_2PGA_c'
p1
S'_2PGA_c'
p2
sS'TS2_c'
p3
S'TS2_c'
p4
sS'ATP_g'
p5
S'ATP_g'
p6
sS'ATP_c'
p7
S'ATP_c'
p8
sS'DHAP_c'
p9
S'DHAP_c'
p10
sS'DHAP_g'
p11
S'DHAP_g'
p12
sS'ADP_g'
p13
S'ADP_g'
p14
sS'Glc6P_g'
p15
S'Glc6P_g'
p16
sS'_3PGA_c'
p17
S'_3PGA_c'
p18
sS'ADP_c'
p19
S'ADP_c'
p20
sS'Glc6P_c'
p21
S'Glc6P_c'
p22
sS'Rib_g'
p23
S'Rib_g'
p24
sS'Fru6P_g'
p25
S'Fru6P_g'
p26
sS'Pi_g'
p27
S'Pi_g'
p28
sS'O2_c'
p29
S'O2_c'
p30
sS'NADP_c'
p31
S'NADP_c'
p32
sS'NADP_g'
p33
S'NADP_g'
p34
sS'_6PG_g'
p35
S'_6PG_g'
p36
sS'Rul5P_c'
p37
S'Rul5P_c'
p38
sS'_6PG_c'
p39
S'_6PG_c'
p40
sS'Rul5P_g'
p41
S'Rul5P_g'
p42
sS'Rib5P_c'
p43
S'Rib5P_c'
p44
sS'_13BPGA_g'
p45
S'_13BPGA_g'
p46
sS'Glc_c'
p47
S'Glc_c'
p48
sS'Rib5P_g'
p49
S'Rib5P_g'
p50
sS'Glc_g'
p51
S'Glc_g'
p52
sS'Glc_e'
p53
S'Glc_e'
p54
sS'NADPH_g'
p55
S'NADPH_g'
p56
sS'NADPH_c'
p57
S'NADPH_c'
p58
sS'Pyr_c'
p59
S'Pyr_c'
p60
sS'Pyr_e'
p61
S'Pyr_e'
p62
sS'NAD_g'
p63
S'NAD_g'
p64
sS'Fru16BP_g'
p65
S'Fru16BP_g'
p66
sS'GA3P_g'
p67
S'GA3P_g'
p68
sS'Gly_e'
p69
S'Gly_e'
p70
sS'CO2_c'
p71
S'CO2_c'
p72
sS'TSH2_c'
p73
S'TSH2_c'
p74
sS'CO2_g'
p75
S'CO2_g'
p76
sS'Gly3P_c'
p77
S'Gly3P_c'
p78
sS'Gly3P_g'
p79
S'Gly3P_g'
p80
sS'_6PGL_c'
p81
S'_6PGL_c'
p82
sS'_6PGL_g'
p83
S'_6PGL_g'
p84
sS'PEP_c'
p85
S'PEP_c'
p86
sS'AMP_g'
p87
S'AMP_g'
p88
sS'_3PGA_g'
p89
S'_3PGA_g'
p90
sS'AMP_c'
p91
S'AMP_c'
p92
sS'NADH_g'
p93
S'NADH_g'
p94
s.