(dp0
S'A2M:PLS'
p1
S'species_11'
p2
sS'TGFb1'
p3
S'species_6'
p4
sS'TSP1'
p5
S'species_7'
p6
sS'PLS'
p7
S'species_2'
p8
sS'PAI1:tcUPA'
p9
S'species_12'
p10
sS'scUPA'
p11
S'species_3'
p12
sS'TSP1:PLS'
p13
S'species_9'
p14
sS'PAI1:scUPA'
p15
S'species_13'
p16
sS'PLG'
p17
S'species_1'
p18
sS'LTGFb1'
p19
S'species_5'
p20
sS'PAI1'
p21
S'species_8'
p22
sS'tcUPA'
p23
S'species_4'
p24
sS'A2M'
p25
S'species_10'
p26
s.