(dp0
S'CycD_CDK4'
p1
S'Y6_1'
p2
sS'pRB'
p3
S'Y5_1'
p4
sS'i_cyclinE_CDK2'
p5
S'Y2_1'
p6
sS'pRB_P'
p7
S'Y11_1'
p8
sS'p27'
p9
S'Y7_1'
p10
sS'cycD_CDK4_p27'
p11
S'Y9_1'
p12
sS'a_cyclinE_CDK2'
p13
S'Y1_1'
p14
sS'E2F'
p15
S'Y4_1'
p16
sS'pRB_E2F'
p17
S'Y3_1'
p18
sS'p16'
p19
S'Y10_1'
p20
sS'cycE_CDK2_p27'
p21
S'Y8_1'
p22
s.