(dp0
S'GDP'
p1
S'GDP'
p2
sS'RCC1'
p3
S'RCC1'
p4
sS'RanGTP_nuc'
p5
S'RanGTP_nuc'
p6
sS'RanGTP_cy'
p7
S'RanGTP_cy'
p8
sS'RCC1_RanGDP'
p9
S'RCC1_RanGDP'
p10
sS'RanGTP_RanBP1'
p11
S'RanGTP_RanBP1'
p12
sS'RanGAP'
p13
S'RanGAP'
p14
sS'GTP'
p15
S'GTP'
p16
sS'RCC1_Ran'
p17
S'RCC1_Ran'
p18
sS'RanGDP_nuc'
p19
S'RanGDP_nuc'
p20
sS'RanGDP_cy'
p21
S'RanGDP_cy'
p22
sS'RCC1_RanGTP'
p23
S'RCC1_RanGTP'
p24
sS'RanBP1'
p25
S'RanBP1'
p26
s.