(dp0
S'Complex_br_(Adenomatous Polyposis Coli/Axin/_br_PP2A)'
p1
S's164'
p2
sS'Complex_br_(Adenomatous Polyposis Coli/_Beta_-Catenin/_br_Axin/PP2A/_br_Diversin/Casein Kinase 1)'
p3
S's245'
p4
sS'Complex_br_(Frizzled/Wnt/_br_LRP5/6)'
p5
S's27'
p6
sS'Complex_br_(Wnt/Frizzled)'
p7
S's16'
p8
sS'Diversin'
p9
S's46'
p10
sS'Complex_br_(Dishevelled/Beta-Arrestin/_br_Frodo)'
p11
S's286'
p12
sS'ATP'
p13
S's32'
p14
sS'Complex_br_(Adenomatous Polyposis Coli/Axin/_br__Beta_-Catenin/PP2A)'
p15
S's123'
p16
sS'Frizzled'
p17
S's1'
p18
sS'SWI/SNF'
p19
S's173'
p20
sS'Complex_br_(Dishevelled/Casein Kinase 2/_br_Beta-Arrestin/Frodo/_br_FRAT)'
p21
S's292'
p22
sS'Complex_br_(Axin/PP2A/_br_Adenomatous Polyposis Coli)'
p23
S's121'
p24
sS'Bcl9'
p25
S's170'
p26
sS'Wnt'
p27
S's239'
p28
sS'Complex_br_(TCF/Smad4)'
p29
S's174'
p30
sS'Complex_br_(_Beta_-Catenin/TCF/_br_Smad4/Bcl9/_br_Pygo/SWI/_br_SNF)'
p31
S's188'
p32
sS'Complex_br_(TCF/Smad4/_br__Beta_-Catenin)'
p33
S's176'
p34
sS'Complex_br_(Ebi/Siah-1)'
p35
S's75'
p36
sS'Wnt Target Genes'
p37
S's195'
p38
sS'_beta_TrCP'
p39
S's61'
p40
sS'ADP'
p41
S's33'
p42
sS'Complex_br_(TCF/_Beta_-Catenin/_br_Smad4/Bcl9)'
p43
S's179'
p44
sS'FRAT'
p45
S's102'
p46
sS'_Beta_-Catenin'
p47
S's270'
p48
sS'Complex_br_(Adenomatous Polyposis Coli/_Beta_-Catenin/_br_Glycogen Synthase Kinase-3_Beta_/Axin/_br_PP2A/Diversin/_br_Casein Kinase 1)'
p49
S's252'
p50
sS'Complex_br_(Adenomatous Polyposis Coli/Axin/_br_Diversin/_Beta_-Catenin/_br_PP2A)'
p51
S's129'
p52
sS'Complex_br_(Dishevelled/Beta-Arrestin/_br_Frodo/Casein Kinase 2)'
p53
S's288'
p54
sS'Complex_br_(_beta_TrCP/_Beta_-Catenin)'
p55
S's267'
p56
sS'Pygo'
p57
S's171'
p58
sS'LRP5/6'
p59
S's28'
p60
sS'Complex_br_(Adenomatous Polyposis Coli/_Beta_-Catenin/_br_Siah-1/Ebi/_br_Axin/PP2A)'
p61
S's275'
p62
sS'Complex_br_(Adenomatous Polyposis Coli/Axin/_br_Diversin/Casein Kinase 1/_br_Glycogen Synthase Kinase-3_Beta_/PP2A)'
p63
S's155'
p64
sS'Complex_br_(Siah-1/Ebi)'
p65
S's101'
p66
sS'Complex_br_(Adenomatous Polyposis Coli/Axin/_br_PP2A/_Beta_-Catenin/_br_Siah-1/Ebi)'
p67
S's159'
p68
sS'Complex_br_(Bcl9/Pygo/../Smad4)'
p69
S's305'
p70
sS'CBP'
p71
S's172'
p72
sS"6 bromoindirubin 3'oxime"
p73
S's304'
p74
sS'Glycogen Synthase Kinase-3_Beta_'
p75
S's37'
p76
sS'Complex_br_(Bcl9/_Beta_-Catenin/_br_TCF/Smad4/_br_Pygo)'
p77
S's183'
p78
sS'Casein Kinase 2'
p79
S's31'
p80
sS'Casein Kinase 1'
p81
S's30'
p82
sS'Complex_br_(Adenomatous Polyposis Coli/_Beta_-Catenin/_br_Axin/PP2A)'
p83
S's278'
p84
sS'Complex_br_(Adenomatous Polyposis Coli/Axin/_br_PP2A/Diversin/_br_Casein Kinase 1/_Beta_-Catenin/_br__beta_TrCP/Glycogen Synthase Kinase-3_Beta_)'
p85
S's266'
p86
sS'Ubiquitin'
p87
S's268'
p88
s.