(dp0
S'ADP'
p1
S'ADP'
p2
sS'trehalose 6-phosphate'
p3
S'Tre6P'
p4
sS'fructose 1,6-bisphosphate'
p5
S'Fru16P2'
p6
sS'ATP'
p7
S'ATP'
p8
sS'hexose monophosphate'
p9
S'HMP'
p10
sS'glucose'
p11
S'Glc'
p12
s.