(dp0
S'Bax#'
p1
S'Bax_hash'
p2
sS'M#:Smac_m'
p3
S'M_hash_Smacm'
p4
sS'BAR'
p5
S'BAR'
p6
sS'Apop'
p7
S'Apop'
p8
sS'M#'
p9
S'M_hash'
p10
sS'Apaf'
p11
S'Apaf'
p12
sS'flip:R#'
p13
S'flip_R_hash'
p14
sS'Apaf#'
p15
S'Apaf_hash'
p16
sS'Bax4:M'
p17
S'Bax4_M'
p18
sS'CytoC'
p19
S'CytoC'
p20
sS'CytoC released'
p21
S'CytoCr'
p22
sS'XIAP'
p23
S'XIAP'
p24
sS'Bax:tBid'
p25
S'Bax_tBid'
p26
sS'R#:pC8'
p27
S'R_hash_pC8'
p28
sS'PARP'
p29
S'PARP'
p30
sS'Ub C3'
p31
S'C3_Ub'
p32
sS'C3:pC6'
p33
S'C3_pC6'
p34
sS'casp6'
p35
S'C6'
p36
sS'Smac_m'
p37
S'Smacm'
p38
sS'Bax2:Bcl2'
p39
S'Bax2_Bcl2'
p40
sS'casp3'
p41
S'C3'
p42
sS'pC3:Apop'
p43
S'pC3_Apop'
p44
sS'Smac:XIAP'
p45
S'Smac_XIAP'
p46
sS'Bid'
p47
S'Bid'
p48
sS'casp8'
p49
S'C8'
p50
sS'tBid'
p51
S'tBid'
p52
sS'C6:pC8'
p53
S'C6_pC8'
p54
sS'XIAP:C3'
p55
S'XIAP_C3'
p56
sS'CytoC:Apaf'
p57
S'CytoC_Apaf'
p58
sS'cytosolic Bcl-2'
p59
S'Bcl2c'
p60
sS'Bax4:Bcl2'
p61
S'Bax4_Bcl2'
p62
sS'Baxm:Bcl2'
p63
S'Baxm_Bcl2'
p64
sS'L:R'
p65
S'L_R'
p66
sS'M'
p67
g67
sS'L'
p68
g68
sS'Bax'
p69
S'Bax'
p70
sS'cPARP'
p71
S'CPARP'
p72
sS'R'
p73
g73
sS'BAR:C8'
p74
S'BAR_C8'
p75
sS'Baxm'
p76
S'Baxm'
p77
sS'R#'
p78
S'R_hash'
p79
sS'Bax4'
p80
S'Bax4'
p81
sS'Bcl2c:tBid'
p82
S'Bcl2c_tBid'
p83
sS'Bcl-2'
p84
S'Bcl2'
p85
sS'Smac released'
p86
S'Smacr'
p87
sS'Apop:XIAP'
p88
S'Apop_XIAP'
p89
sS'C8:Bid'
p90
S'C8_Bid'
p91
sS'Bax2'
p92
S'Bax2'
p93
sS'CytoC_m'
p94
S'CytoCm'
p95
sS'PARP:C3'
p96
S'PARP_C3'
p97
sS'flip'
p98
S'flip'
p99
sS'Smac'
p100
S'Smac'
p101
sS'C8:pC3'
p102
S'C8_pC3'
p103
sS'proC9'
p104
S'pC9'
p105
sS'proC8'
p106
S'pC8'
p107
sS'M#:CytoC_m'
p108
S'M_hash_CytoCm'
p109
sS'proC6'
p110
S'pC6'
p111
sS'proC3'
p112
S'pC3'
p113
s.