(dp0
S'Cln'
p1
S'Cln_1'
p2
sS'MEN'
p3
S'MEN_1'
p4
sS'Pds1T'
p5
S'Pds1T_1'
p6
sS'Net1dep'
p7
S'Net1dep_1'
p8
sS'Tem1'
p9
S'Tem1_1'
p10
sS'Sic1T'
p11
S'Sic1T_1'
p12
sS'Esp1b'
p13
S'Esp1b_1'
p14
sS'Pds1'
p15
S'Pds1_1'
p16
sS'Trim2'
p17
S'Trim2_1'
p18
sS'Trim5'
p19
S'Trim5_1'
p20
sS'Mcm'
p21
S'Mcm_1'
p22
sS'PoloT'
p23
S'PoloT_1'
p24
sS'Esp1T'
p25
S'Esp1T_1'
p26
sS'Clb5T'
p27
S'Clb5T_1'
p28
sS'MBF'
p29
S'MBF_1'
p30
sS'Cdh1'
p31
S'Cdh1_1'
p32
sS'Esp1'
p33
S'Esp1_1'
p34
sS'Net1'
p35
S'Net1_2'
p36
sS'Cdc14n'
p37
S'Cdc14n_1'
p38
sS'RENTp'
p39
S'RENTp_1'
p40
sS'Cdc14c'
p41
S'Cdc14c_1'
p42
sS'Sic1'
p43
S'Sic1_1'
p44
sS'Polo'
p45
S'Polo_1'
p46
sS'RENT'
p47
S'RENT_1'
p48
sS'Clb5'
p49
S'Clb5_1'
p50
sS'Net1p'
p51
S'Net1p_1'
p52
sS'Clb2'
p53
S'Clb2_2'
p54
sS'Cdc15'
p55
S'Cdc15_1'
p56
sS'Net1pp'
p57
S'Net1pp_1'
p58
sS'Clb2T'
p59
S'Clb2T_1'
p60
sS'Cdc20'
p61
S'Cdc20_1'
p62
sS'Swi5'
p63
S'Swi5_1'
p64
s.