(dp0
S'PSmad2_PSmad2_c'
p1
S'PSmad2_PSmad2_c'
p2
sS'AA'
p3
S'AA'
p4
sS'Smad4c'
p5
S'Smad4c'
p6
sS'PSmad2_Smad4_n'
p7
S'PSmad2_Smad4_n'
p8
sS'Smad2c'
p9
S'Smad2c'
p10
sS'empty_degraded'
p11
S'empty_degraded'
p12
sS'TGF_beta_ex'
p13
S'TGF_beta_ex'
p14
sS'Smad2n'
p15
S'Smad2n'
p16
sS'T2R_surf'
p17
S'T2R_surf'
p18
sS'T1R_surf'
p19
S'T1R_surf'
p20
sS'T2R_endo'
p21
S'T2R_endo'
p22
sS'Smad4n'
p23
S'Smad4n'
p24
sS'PSmad2n'
p25
S'PSmad2n'
p26
sS'T1R_endo'
p27
S'T1R_endo'
p28
sS'PSmad2_PSmad2_n'
p29
S'PSmad2_PSmad2_n'
p30
sS'PSmad2c'
p31
S'PSmad2c'
p32
sS'LRC_surf'
p33
S'LRC_surf'
p34
sS'PSmad2_Smad4_c'
p35
S'PSmad2_Smad4_c'
p36
sS'TGF_beta_endo'
p37
S'TGF_beta_endo'
p38
sS'TGF_beta_ns'
p39
S'TGF_beta_ns'
p40
sS'LRC_endo'
p41
S'LRC_endo'
p42
s.