(dp0
S'3-phosphoglycerate'
p1
S'p3g'
p2
sS'phosphohydroxypyruvate'
p3
S'php'
p4
sS'serB'
p5
S'serB'
p6
sS'serC'
p7
S'serC'
p8
sS'serA'
p9
S'serA'
p10
sS'phosphoserine'
p11
S'pser'
p12
sS'serine'
p13
S'ser'
p14
s.