(dp0
S'2-oxobutanoate'
p1
S's_0178'
p2
sS'L-methionine'
p3
S's_1029'
p4
sS'ubiquinol-6'
p5
S's_1535'
p6
sS'TDH1'
p7
S'e_0495'
p8
sS'TDH2'
p9
S'e_0525'
p10
sS'TDH3'
p11
S'e_0392'
p12
sS'L-homocysteine'
p13
S's_1012'
p14
sS'DIA4'
p15
S'e_0425'
p16
sS'DED81'
p17
S'e_0427'
p18
sS'1-(2-carboxyphenylamino)-1-deoxy-D-ribulose 5-phosphate'
p19
S's_0076'
p20
sS'ergosterol ester'
p21
S's_0672'
p22
sS'RNR1'
p23
S'e_0291'
p24
sS'TSC10'
p25
S'e_0092'
p26
sS'TSC13'
p27
S'e_0128'
p28
sS'YCF1'
p29
S'e_0183'
p30
sS'PGI1'
p31
S'e_0079'
p32
sS'SHB17'
p33
S'e_0601'
p34
sS'cerotate'
p35
S's_0505'
p36
sS'glyceraldehyde 3-phosphate'
p37
S'GAP'
p38
sS'Met-tRNA(Met)'
p39
S's_1148'
p40
sS'ATP8'
p41
S'e_0002'
p42
sS'GSC2'
p43
S'e_0364'
p44
sS'ATP3'
p45
S'e_0051'
p46
sS'ATP2'
p47
S'e_0544'
p48
sS'ATP1'
p49
S'e_0033'
p50
sS'WRS1'
p51
S'e_0836'
p52
sS'1D-myo-inositol 1-phosphate'
p53
S's_0126'
p54
sS'ATP6'
p55
S'e_0003'
p56
sS'ATP5'
p57
S'e_0207'
p58
sS'ATP4'
p59
S'e_0913'
p60
sS'ATP18'
p61
S'e_0709'
p62
sS'ATP17'
p63
S'e_0223'
p64
sS'ATP16'
p65
S'e_0127'
p66
sS'ATP15'
p67
S'e_0944'
p68
sS'ATP14'
p69
S'e_0671'
p70
sS'episterol'
p71
S's_0657'
p72
sS'adenylo-succinate'
p73
S's_0393'
p74
sS'tRNA(Leu)'
p75
S's_1598'
p76
sS'PRPP'
p77
S's_1386'
p78
sS'ICL1'
p79
S'e_0289'
p80
sS'L-histidinol phosphate'
p81
S's_1011'
p82
sS'GLY1'
p83
S'e_0260'
p84
sS'HOM6'
p85
S'e_0548'
p86
sS'ERG4'
p87
S'e_0329'
p88
sS'TYR1'
p89
S'e_0074'
p90
sS'fumarate'
p91
S's_0725'
p92
sS'ERG1'
p93
S'e_0385'
p94
sS'ERG2'
p95
S'e_0742'
p96
sS'1-(5-phospho-D-ribosyl)-5-[(5-phospho-D-ribosylamino)methylideneamino]imidazole-4-carboxamide'
p97
S's_0077'
p98
sS'ERG8'
p99
S'e_0747'
p100
sS'PSA1'
p101
S'e_0134'
p102
sS'DCD1'
p103
S'e_0452'
p104
sS'VPH1'
p105
S'e_0884'
p106
sS'HTS1'
p107
S'e_0953'
p108
sS'ceramide-1 (C26)'
p109
S's_0478'
p110
sS'(2R,3R)-2,3-dihydroxy-3-methylpentanoate'
p111
S's_0008'
p112
sS'PMT4'
p113
S'e_0549'
p114
sS'ADE5,7'
p115
S'e_0352'
p116
sS'PIS1'
p117
S'e_0964'
p118
sS'CMP'
p119
S's_0526'
p120
sS'(R)-2,3-dihydroxy-3-methylbutanoate'
p121
S's_0016'
p122
sS'phosphoribosyl-carboxy-aminoimidazole'
p123
S's_1364'
p124
sS'14-demethyllanosterol'
p125
S's_0122'
p126
sS'GPM1'
p127
S'e_0582'
p128
sS'VMA4'
p129
S'e_0892'
p130
sS'SOL4'
p131
S'e_0404'
p132
sS'(S)-2-acetyl-2-hydroxybutanoate'
p133
S's_0039'
p134
sS'SOL3'
p135
S'e_0453'
p136
sS'ARO1'
p137
S'e_0182'
p138
sS'ARO2'
p139
S'e_0342'
p140
sS'N-acetyl-L-gamma-glutamyl phosphate'
p141
S's_1191'
p142
sS'ARO4'
p143
S'e_0088'
p144
sS"5'-adenylyl sulfate"
p145
S's_0298'
p146
sS'ARO7'
p147
S'e_0959'
p148
sS'zymosterol'
p149
S's_1569'
p150
sS'Arg-tRNA(Arg)'
p151
S's_0428'
p152
sS'1-acyl-sn-glycerol 3-phosphate'
p153
S's_0082'
p154
sS'AICAR'
p155
S's_0403'
p156
sS'ethanol'
p157
S's_0681'
p158
sS'D-fructose 6-phosphate'
p159
S'F6P'
p160
sS'phosphatidyl-N-methylethanolamine'
p161
S's_1343'
p162
sS'phosphatidylcholine'
p163
S's_1346'
p164
sS'Asp-tRNA(Asp)'
p165
S's_0432'
p166
sS'DPS1'
p167
S'e_0615'
p168
sS'sedoheptulose 7-phosphate'
p169
S's_1427'
p170
sS'D-fructose 1,6-bisphosphate'
p171
S'F16bP'
p172
sS'ILS1'
p173
S'e_0031'
p174
sS'succinate'
p175
S's_1459'
p176
sS'SES1'
p177
S'e_0168'
p178
sS'CTP'
p179
S's_0539'
p180
sS'6-O-phosphono-D-glucono-1,5-lactone'
p181
S's_0335'
p182
sS'2-isopropylmaleic acid'
p183
S's_0165'
p184
sS'zymosterol intermediate 1b'
p185
S's_1577'
p186
sS'zymosterol intermediate 1c'
p187
S's_1578'
p188
sS'zymosterol intermediate 1a'
p189
S's_1576'
p190
sS'TSC3'
p191
S'e_0054'
p192
sS'COX5A'
p193
S'e_0774'
p194
sS'dolichyl D-mannosyl phosphate'
p195
S's_0644'
p196
sS'5-amino-6-(5-phosphoribitylamino)uracil'
p197
S's_0313'
p198
sS'4,4-dimethyl-5alpha-cholesta-8,14,24-trien-3beta-ol'
p199
S's_0262'
p200
sS'squalene'
p201
S's_1447'
p202
sS'fecosterol'
p203
S's_0700'
p204
sS'N-(5-phospho-beta-D-ribosyl)anthranilate'
p205
S's_1187'
p206
sS"5'-phosphoribosyl-4-(N-succinocarboxamide)-5-aminoimidazole"
p207
S's_0299'
p208
sS'UDP-D-glucose'
p209
S's_1543'
p210
sS'ARG8'
p211
S'e_0840'
p212
sS'chorismate'
p213
S's_0515'
p214
sS'tRNA(Ala)'
p215
S's_1582'
p216
sS'tRNA(Ser)'
p217
S's_1607'
p218
sS'3-ketosphinganine'
p219
S's_0231'
p220
sS'sedoheptulose 1,7-bisphosphate'
p221
S's_1426'
p222
sS'COX4'
p223
S'e_0346'
p224
sS'RNR2'
p225
S'e_0492'
p226
sS'RNR3'
p227
S'e_0467'
p228
sS'(S)-dihydroorotate'
p229
S's_0061'
p230
sS'HOR2'
p231
S'e_0288'
p232
sS'RNR4'
p233
S'e_0387'
p234
sS'INO1'
p235
S'e_0512'
p236
sS'PRS1'
p237
S'e_0585'
p238
sS'S-adenosyl-L-methionine'
p239
S's_1416'
p240
sS'1,3-bisphospho-D-glycerate'
p241
S'BPG'
p242
sS'HOM2'
p243
S'e_0186'
p244
sS'HOM3'
p245
S'e_0281'
p246
sS'3-hydroxy-3-methylglutaryl-CoA'
p247
S's_0218'
p248
sS'zymosterol intermediate 2'
p249
S's_1579'
p250
sS'L-cystathionine'
p251
S's_0980'
p252
sS'3-dehydroshikimate'
p253
S's_0211'
p254
sS'GPD1'
p255
S'e_0129'
p256
sS'DLD2'
p257
S'e_0152'
p258
sS'DLD3'
p259
S'e_0268'
p260
sS'(S)-3-methyl-2-oxopentanoate'
p261
S's_0056'
p262
sS'Ala-tRNA(Ala)'
p263
S's_0404'
p264
sS'(S)-malate'
p265
S's_0066'
p266
sS'myristate'
p267
S's_1161'
p268
sS'COX5B'
p269
S'e_0475'
p270
sS'L-leucine'
p271
S's_1021'
p272
sS'MET12'
p273
S'e_0903'
p274
sS'ornithine'
p275
S's_1266'
p276
sS'YEH1'
p277
S'e_0613'
p278
sS'tRNA(Val)'
p279
S's_1614'
p280
sS'CYS4'
p281
S'e_0380'
p282
sS'SAM2'
p283
S'e_0239'
p284
sS'SAM1'
p285
S'e_0658'
p286
sS'ARG7'
p287
S'e_0729'
p288
sS'CYS3'
p289
S'e_0008'
p290
sS'orotate'
p291
S's_1269'
p292
sS'MET16'
p293
S'e_0975'
p294
sS'Leu-tRNA(Leu)'
p295
S's_1077'
p296
sS'stearoyl-CoA'
p297
S's_1454'
p298
sS'MET17'
p299
S'e_0674'
p300
sS'ADK2'
p301
S'e_0303'
p302
sS'SUR4'
p303
S'e_0687'
p304
sS'ADK1'
p305
S'e_0194'
p306
sS'ACB1'
p307
S'e_0365'
p308
sS'ALD6'
p309
S'e_0911'
p310
sS'ALD5'
p311
S'e_0293'
p312
sS'ADE4'
p313
S'e_0763'
p314
sS'ADE6'
p315
S'e_0368'
p316
sS'ALD4'
p317
S'e_0898'
p318
sS'ADE1'
p319
S'e_0017'
p320
sS'ADE2'
p321
S'e_0860'
p322
sS'ADE3'
p323
S'e_0396'
p324
sS'ILV5'
p325
S'e_0685'
p326
sS'tRNA(Tyr)'
p327
S's_1612'
p328
sS'2,5-diamino-6-(5-phosphono)ribitylamino-4(3H)-pyrimidinone'
p329
S's_0142'
p330
sS'ILV6'
p331
S'e_0100'
p332
sS'ADE8'
p333
S'e_0231'
p334
sS'ILV3'
p335
S'e_0528'
p336
sS'ILV2'
p337
S'e_0734'
p338
sS'CHO1'
p339
S'e_0278'
p340
sS'CHO2'
p341
S'e_0381'
p342
sS'glycerol 3-phosphate'
p343
S's_0767'
p344
sS'ERG6'
p345
S'e_0699'
p346
sS'UDP'
p347
S's_1538'
p348
sS'myo-inositol'
p349
S's_1153'
p350
sS'IPP1'
p351
S'e_0038'
p352
sS'GPT2'
p353
S'e_0607'
p354
sS'L-aspartate 4-semialdehyde'
p355
S's_0978'
p356
sS'L-saccharopine'
p357
S's_1038'
p358
sS'triglyceride'
p359
S's_1524'
p360
sS'NADP(+)'
p361
S's_1207'
p362
sS'ERG10'
p363
S'e_0904'
p364
sS'(R)-S-lactoylglutathione'
p365
S's_0033'
p366
sS'L-alanine'
p367
S's_0955'
p368
sS'PCK1'
p369
S'e_0612'
p370
sS'4-methyl-2-oxopentanoate'
p371
S's_0291'
p372
sS'MDH3'
p373
S'e_0137'
p374
sS'LYS21'
p375
S'e_0146'
p376
sS'YER152C'
p377
S'e_0980'
p378
sS'3-(4-hydroxyphenyl)pyruvate'
p379
S's_0204'
p380
sS'HFA1'
p381
S'e_0744'
p382
sS'MDH2'
p383
S'e_0838'
p384
sS'(1->3)-beta-D-glucan'
p385
S's_0002'
p386
sS'LIP1'
p387
S'e_0762'
p388
sS'Glu-tRNA(Glu)'
p389
S's_0748'
p390
sS'stearate'
p391
S's_1449'
p392
sS'S-adenosyl-L-homocysteine'
p393
S's_1413'
p394
sS'acetoacetyl-CoA'
p395
S's_0367'
p396
sS'ergosta-5,7,22,24(28)-tetraen-3beta-ol'
p397
S's_0662'
p398
sS'RIB1'
p399
S'e_0025'
p400
sS'diphosphate'
p401
S's_0633'
p402
sS'RIB2'
p403
S'e_0832'
p404
sS'pyruvate'
p405
S'PYR'
p406
sS'OPI3'
p407
S'e_0536'
p408
sS'RIB7'
p409
S'e_0071'
p410
sS'dCDP'
p411
S's_0587'
p412
sS'IDP3'
p413
S'e_0769'
p414
sS'IDP1'
p415
S'e_0135'
p416
sS'glutathione'
p417
S's_0750'
p418
sS'GUK1'
p419
S'e_0234'
p420
sS'sulphate'
p421
S's_1468'
p422
sS'myristoyl-CoA'
p423
S's_1176'
p424
sS'methylglyoxal'
p425
S's_1151'
p426
sS'URA3'
p427
S'e_0249'
p428
sS'L-homoserine'
p429
S's_1014'
p430
sS'L-glutamate'
p431
S's_0991'
p432
sS'oxygen'
p433
S's_1277'
p434
sS'FKS1'
p435
S'e_0682'
p436
sS'carbamoyl phosphate'
p437
S's_0455'
p438
sS'(N(omega)-L-arginino)succinic acid'
p439
S's_0015'
p440
sS"5'-phosphoribosyl-N-formylglycineamide"
p441
S's_0301'
p442
sS'carbon dioxide'
p443
S's_0458'
p444
sS'PRO3'
p445
S'e_0276'
p446
sS'RKI1'
p447
S'e_0852'
p448
sS'palmitoyl-CoA'
p449
S's_1302'
p450
sS'LCB2'
p451
S'e_0177'
p452
sS'Tyr-tRNA(Tyr)'
p453
S's_1533'
p454
sS'3-phosphoshikimic acid'
p455
S's_0261'
p456
sS'SLC1'
p457
S'e_0133'
p458
sS'6-phospho-D-gluconate'
p459
S's_0340'
p460
sS'2-isopropylmalate'
p461
S's_0162'
p462
sS'lauroyl-CoA'
p463
S's_1073'
p464
sS'TRR1'
p465
S'e_0218'
p466
sS'TRR2'
p467
S'e_0448'
p468
sS"1-(5-phosphoribosyl)-5'-AMP"
p469
S's_0078'
p470
sS'bicarbonate'
p471
S's_0445'
p472
sS'ILV1'
p473
S'e_0295'
p474
sS'GSY1'
p475
S'e_0317'
p476
sS'phosphoribosyl-formamido-carboxamide'
p477
S's_1365'
p478
sS'GSY2'
p479
S'e_0667'
p480
sS'His-tRNA(His)'
p481
S's_0832'
p482
sS'MET14'
p483
S'e_0556'
p484
sS'MTD1'
p485
S'e_0610'
p486
sS'KRE6'
p487
S'e_0973'
p488
sS'3-phosphoglycerate'
p489
S'P3G'
p490
sS'(S)-lactaldehyde'
p491
S's_0062'
p492
sS'TPS1'
p493
S'e_0065'
p494
sS'TPS3'
p495
S'e_0753'
p496
sS'TPS2'
p497
S'e_0179'
p498
sS'ribose-5-phosphate'
p499
S's_1408'
p500
sS'COX12'
p501
S'e_0632'
p502
sS'COX13'
p503
S'e_0347'
p504
sS'AAT2'
p505
S'e_0629'
p506
sS'AAT1'
p507
S'e_0574'
p508
sS'(S)-lactate'
p509
S's_0063'
p510
sS'GDH2'
p511
S'e_0160'
p512
sS'LAG1'
p513
S'e_0417'
p514
sS'N-acetyl-L-glutamate'
p515
S's_1192'
p516
sS'ERG7'
p517
S'e_0440'
p518
sS'PPA2'
p519
S'e_0754'
p520
sS'ATP'
p521
S'ATP'
p522
sS'ferricytochrome c'
p523
S's_0709'
p524
sS'QCR2'
p525
S'e_0978'
p526
sS'QCR6'
p527
S'e_0322'
p528
sS'GLK1'
p529
S'e_0106'
p530
sS'QCR8'
p531
S'e_0514'
p532
sS'QCR9'
p533
S'e_0389'
p534
sS'glyoxylate'
p535
S's_0779'
p536
sS'QCR7'
p537
S'e_0243'
p538
sS'Ser-tRNA(Ser)'
p539
S's_1428'
p540
sS'N-carbamoyl-L-aspartate'
p541
S's_1194'
p542
sS'phosphoenolpyruvate'
p543
S'PEP'
p544
sS'anthranilate'
p545
S's_0427'
p546
sS'D-ribulose 5-phosphate'
p547
S's_0577'
p548
sS'ERG9'
p549
S'e_0456'
p550
sS'GTP'
p551
S's_0785'
p552
sS'IMP'
p553
S's_0849'
p554
sS'ENO2'
p555
S'e_0454'
p556
sS'prephenate'
p557
S's_1377'
p558
sS'YBT1'
p559
S'e_0621'
p560
sS'LYS1'
p561
S'e_0489'
p562
sS'LYS2'
p563
S'e_0062'
p564
sS'LYS4'
p565
S'e_0196'
p566
sS'LYS5'
p567
S'e_0343'
p568
sS'trehalose'
p569
S's_1520'
p570
sS'INM1'
p571
S'e_0435'
p572
sS'PYK2'
p573
S'e_0895'
p574
sS'dATP'
p575
S's_0586'
p576
sS'3-methyl-2-oxobutanoate'
p577
S's_0232'
p578
sS'(1->6)-beta-D-glucan'
p579
S's_0004'
p580
sS'tRNA(Lys)'
p581
S's_1600'
p582
sS'Val-tRNA(Val)'
p583
S's_1561'
p584
sS'(S)-2,3-epoxysqualene'
p585
S's_0037'
p586
sS'CYC7'
p587
S'e_0255'
p588
sS'tRNA(Cys)'
p589
S's_1589'
p590
sS'acyl-CoA'
p591
S's_0380'
p592
sS'STV1'
p593
S'e_0727'
p594
sS'tRNA(Gln)'
p595
S's_1590'
p596
sS'CYC1'
p597
S'e_0531'
p598
sS'CIT2'
p599
S'e_0111'
p600
sS'CIT3'
p601
S'e_0947'
p602
sS'L-allysine'
p603
S's_0959'
p604
sS"3'-phospho-5'-adenylyl sulfate"
p605
S's_0201'
p606
sS"5'-phosphoribosyl-5-aminoimidazole"
p607
S's_0300'
p608
sS'2-oxoadipic acid'
p609
S's_0176'
p610
sS'CYB2'
p611
S'e_0704'
p612
sS'3-(imidazol-4-yl)-2-oxopropyl dihydrogen phosphate'
p613
S's_0207'
p614
sS'RIP1'
p615
S'e_0250'
p616
sS'L-asparagine'
p617
S's_0969'
p618
sS'beta-D-fructose 2,6-bisphosphate'
p619
S'F26bP'
p620
sS'VAS1'
p621
S'e_0372'
p622
sS'GLR1'
p623
S'e_0915'
p624
sS'IDH1'
p625
S'e_0771'
p626
sS'FAS1'
p627
S'e_0586'
p628
sS'SEC53'
p629
S'e_0314'
p630
sS'Ile-tRNA(Ile)'
p631
S's_0847'
p632
sS'PFK2'
p633
S'e_0743'
p634
sS'PFK1'
p635
S'e_0401'
p636
sS'farnesyl diphosphate'
p637
S's_0190'
p638
sS'(R)-lactate'
p639
S's_0025'
p640
sS'(R)-5-phosphomevalonic acid'
p641
S's_0019'
p642
sS'acetaldehyde'
p643
S's_0360'
p644
sS'prenyl diphosphate'
p645
S's_1376'
p646
sS'URA10'
p647
S'e_0755'
p648
sS'tRNA(His)'
p649
S's_1594'
p650
sS'URA5'
p651
S'e_0712'
p652
sS'ENO1'
p653
S'e_0405'
p654
sS'AIM10'
p655
S'e_0296'
p656
sS'FUM1'
p657
S'e_0940'
p658
sS'Lys-tRNA(Lys)'
p659
S's_1099'
p660
sS'RHR2'
p661
S'e_0466'
p662
sS'ERG12'
p663
S'e_0745'
p664
sS'(2S)-2-isopropyl-3-oxosuccinate'
p665
S's_0010'
p666
sS'TSL1'
p667
S'e_0711'
p668
sS'ERG11'
p669
S'e_0424'
p670
sS'ACC1'
p671
S'e_0808'
p672
sS'SKN1'
p673
S'e_0379'
p674
sS'dolichyl phosphate'
p675
S's_0645'
p676
sS'tRNA(Glu)'
p677
S's_1591'
p678
sS'TKL2'
p679
S'e_0063'
p680
sS'TKL1'
p681
S'e_0962'
p682
sS'diglyceride'
p683
S's_0619'
p684
sS'TPI1'
p685
S'e_0175'
p686
sS'HXK1'
p687
S'e_0325'
p688
sS'HXK2'
p689
S'e_0355'
p690
sS'PMT5'
p691
S'e_0141'
p692
sS'decanoate'
p693
S's_0595'
p694
sS'PMT1'
p695
S'e_0142'
p696
sS'PMT3'
p697
S'e_0890'
p698
sS'PMT2'
p699
S'e_0010'
p700
sS'2-oxoglutarate'
p701
S's_0180'
p702
sS'SHM2'
p703
S'e_0638'
p704
sS'SHM1'
p705
S'e_0091'
p706
sS'PSD2'
p707
S'e_0382'
p708
sS'PSD1'
p709
S'e_0788'
p710
sS'lignoceric acid'
p711
S's_1084'
p712
sS'GLO1'
p713
S'e_0698'
p714
sS'GLO2'
p715
S'e_0202'
p716
sS'GLO4'
p717
S'e_0846'
p718
sS'L-histidinol'
p719
S's_1010'
p720
sS'DLD1'
p721
S'e_0151'
p722
sS'MET10'
p723
S'e_0321'
p724
sS'TGL2'
p725
S'e_0176'
p726
sS'TGL1'
p727
S'e_0578'
p728
sS'MET13'
p729
S'e_0340'
p730
sS'D-xylulose 5-phosphate'
p731
S's_0581'
p732
sS'TGL5'
p733
S'e_0851'
p734
sS'TGL4'
p735
S'e_0611'
p736
sS'L-valine'
p737
S's_1056'
p738
sS'IDH2'
p739
S'e_0862'
p740
sS'Gln-tRNA(Gln)'
p741
S's_0747'
p742
sS'GUS1'
p743
S'e_0353'
p744
sS'ADH1'
p745
S'e_0834'
p746
sS'Gly-tRNA(Gly)'
p747
S's_0757'
p748
sS'ADH3'
p749
S'e_0730'
p750
sS'THF'
p751
S's_1487'
p752
sS'THR4'
p753
S'e_0122'
p754
sS'THR1'
p755
S'e_0428'
p756
sS'URA6'
p757
S'e_0561'
p758
sS'URA7'
p759
S'e_0026'
p760
sS'URA4'
p761
S'e_0692'
p762
sS'L-glycine'
p763
S's_1003'
p764
sS'URA2'
p765
S'e_0508'
p766
sS'dUMP'
p767
S's_0654'
p768
sS'URA1'
p769
S'e_0594'
p770
sS'shikimate'
p771
S's_1429'
p772
sS'ATP20'
p773
S'e_0950'
p774
sS'URA8'
p775
S'e_0540'
p776
sS'LAC1'
p777
S'e_0558'
p778
sS'QCR10'
p779
S'e_0422'
p780
sS'4beta-methylzymosterol-4alpha-carboxylic acid'
p781
S's_0297'
p782
sS'TRX1 disulphide'
p783
S's_1620'
p784
sS'malonyl-CoA'
p785
S's_1101'
p786
sS'2-phospho-D-glyceric acid'
p787
S'P2G'
p788
sS'mannan'
p789
S's_1107'
p790
sS'STR2'
p791
S'e_0545'
p792
sS'FRS1'
p793
S'e_0639'
p794
sS'FRS2'
p795
S'e_0312'
p796
sS'octanoyl-CoA'
p797
S's_1255'
p798
sS'ARO3'
p799
S'e_0169'
p800
sS'decanoyl-CoA'
p801
S's_0602'
p802
sS'cis-aconitate'
p803
S's_0516'
p804
sS'ALT1'
p805
S'e_0642'
p806
sS'5-phosphoribosylamine'
p807
S's_0327'
p808
sS'FBA1'
p809
S'e_0567'
p810
sS'ALA1'
p811
S'e_0894'
p812
sS'D-glucose'
p813
S'GLCx'
p814
sS'CDC19'
p815
S'e_0011'
p816
sS'HMG1'
p817
S'e_0708'
p818
sS'ARO8'
p819
S'e_0348'
p820
sS'CHA1'
p821
S'e_0109'
p822
sS'1-phosphatidyl-1D-myo-inositol'
p823
S's_0089'
p824
sS'5-amino-6-(D-ribitylamino)uracil'
p825
S's_0314'
p826
sS'7-phospho-2-dehydro-3-deoxy-D-arabino-heptonic acid'
p827
S's_0349'
p828
sS'L-threonine'
p829
S's_1045'
p830
sS'PGK1'
p831
S'e_0113'
p832
sS'TRX2'
p833
S'e_0398'
p834
sS'TRX3'
p835
S'e_0124'
p836
sS'TRX1'
p837
S'e_0633'
p838
sS'geranyl diphosphate'
p839
S's_0745'
p840
sS'isocitrate'
p841
S's_0940'
p842
sS'tRNA(Arg)'
p843
S's_1583'
p844
sS'HIS4'
p845
S'e_0103'
p846
sS'HIS5'
p847
S'e_0476'
p848
sS'HIS6'
p849
S'e_0465'
p850
sS'HIS7'
p851
S'e_0087'
p852
sS'HIS1'
p853
S'e_0283'
p854
sS'HIS2'
p855
S'e_0320'
p856
sS'HIS3'
p857
S'e_0875'
p858
sS'2-acetyllactic acid'
p859
S's_0146'
p860
sS'(R)-mevalonate'
p861
S's_0028'
p862
sS'10-formyl-THF'
p863
S's_0120'
p864
sS'hexacosanoyl-CoA'
p865
S's_0816'
p866
sS'ZWF1'
p867
S'e_0792'
p868
sS'hydrogen sulfide'
p869
S's_0841'
p870
sS'tRNA(Trp)'
p871
S's_1610'
p872
sS'dTMP'
p873
S's_0649'
p874
sS'NADH'
p875
S'NADH'
p876
sS'UMP'
p877
S's_1545'
p878
sS'AGX1'
p879
S'e_0313'
p880
sS'L-cysteine'
p881
S's_0981'
p882
sS'ASN2'
p883
S'e_0376'
p884
sS'5-phosphoribosyl-ATP'
p885
S's_0326'
p886
sS'ASN1'
p887
S'e_0970'
p888
sS'COB'
p889
S'e_0004'
p890
sS'but-1-ene-1,2,4-tricarboxylic acid'
p891
S's_0454'
p892
sS'N(2)-acetyl-L-ornithine'
p893
S's_1182'
p894
sS'4alpha-methylzymosterol'
p895
S's_0296'
p896
sS'5,10-methenyl-THF'
p897
S's_0304'
p898
sS'alpha,alpha-trehalose 6-phosphate'
p899
S's_0409'
p900
sS'D-erythrose 4-phosphate'
p901
S's_0551'
p902
sS'oxaloacetate'
p903
S's_1271'
p904
sS'CIT1'
p905
S'e_0805'
p906
sS'YNL247W'
p907
S'e_0793'
p908
sS'1-C-(indol-3-yl)glycerol 3-phosphate'
p909
S's_0086'
p910
sS'LPD1'
p911
S'e_0311'
p912
sS'DPM1'
p913
S'e_0976'
p914
sS'ERG26'
p915
S'e_0326'
p916
sS'TAL1'
p917
S'e_0684'
p918
sS'ERG25'
p919
S'e_0367'
p920
sS'GCV1'
p921
S'e_0167'
p922
sS'GCV2'
p923
S'e_0741'
p924
sS'GCV3'
p925
S'e_0012'
p926
sS'NADPH'
p927
S's_1212'
p928
sS'4-phospho-L-aspartate'
p929
S's_0295'
p930
sS'KEI1'
p931
S'e_0220'
p932
sS'APA1'
p933
S'e_0107'
p934
sS'PYC2'
p935
S'e_0084'
p936
sS'formate'
p937
S's_0722'
p938
sS'PXA2'
p939
S'e_0588'
p940
sS'CDS1'
p941
S'e_0045'
p942
sS'VMA1'
p943
S'e_0155'
p944
sS'VMA2'
p945
S'e_0066'
p946
sS'VMA3'
p947
S'e_0251'
p948
sS'CDP'
p949
S's_0467'
p950
sS'VMA5'
p951
S'e_0569'
p952
sS'VMA6'
p953
S'e_0695'
p954
sS'VMA7'
p955
S'e_0362'
p956
sS'VMA8'
p957
S'e_0263'
p958
sS'BNA3'
p959
S'e_0496'
p960
sS'coenzyme A'
p961
S's_0529'
p962
sS'laurate'
p963
S's_1065'
p964
sS'palmitate'
p965
S's_1286'
p966
sS'O-acetyl-L-homoserine'
p967
S's_1233'
p968
sS'dCMP'
p969
S's_0589'
p970
sS'keto-phenylpyruvate'
p971
S's_0951'
p972
sS'MDH1'
p973
S'e_0571'
p974
sS'GPD2'
p975
S'e_0827'
p976
sS'L-proline'
p977
S's_1035'
p978
sS'MET22'
p979
S'e_0830'
p980
sS'L-aspartate'
p981
S's_0973'
p982
sS'COX8'
p983
S'e_0690'
p984
sS'COX9'
p985
S'e_0136'
p986
sS'glycogen'
p987
S's_0773'
p988
sS'COX2'
p989
S'e_0006'
p990
sS'COX3'
p991
S'e_0007'
p992
sS'MES1'
p993
S'e_0409'
p994
sS'COX1'
p995
S'e_0001'
p996
sS'COX6'
p997
S'e_0436'
p998
sS'COX7'
p999
S'e_0752'
p1000
sS'Cys-tRNA(Cys)'
p1001
S's_0542'
p1002
sS'LYS20'
p1003
S'e_0154'
p1004
sS'dGMP'
p1005
S's_0615'
p1006
sS'Thr-tRNA(Thr)'
p1007
S's_1491'
p1008
sS'DPP1'
p1009
S'e_0203'
p1010
sS'5-phospho-ribosyl-glycineamide'
p1011
S's_0325'
p1012
sS'RIB3'
p1013
S'e_0237'
p1014
sS'phosphatidyl-N,N-dimethylethanolamine'
p1015
S's_1342'
p1016
sS'OLI1'
p1017
S'e_0005'
p1018
sS'RIB4'
p1019
S'e_0841'
p1020
sS'isopentenyl diphosphate'
p1021
S's_0943'
p1022
sS'UTP'
p1023
S's_1559'
p1024
sS'sphinganine'
p1025
S's_1445'
p1026
sS'D-erythro-1-(imidazol-4-yl)glycerol 3-phosphate'
p1027
S's_0550'
p1028
sS'L-tyrosine'
p1029
S's_1051'
p1030
sS'PRS3'
p1031
S'e_0418'
p1032
sS'D-mannose 6-phosphate'
p1033
S's_0574'
p1034
sS'L-arginine'
p1035
S's_0965'
p1036
sS'homocitrate'
p1037
S's_0835'
p1038
sS'PRS5'
p1039
S'e_0829'
p1040
sS'PRS4'
p1041
S'e_0030'
p1042
sS'Phe-tRNA(Phe)'
p1043
S's_1314'
p1044
sS'CDC60'
p1045
S'e_0926'
p1046
sS'VMA10'
p1047
S'e_0432'
p1048
sS'NAD'
p1049
S'NAD'
p1050
sS'ALE1'
p1051
S'e_0869'
p1052
sS'L-citrulline'
p1053
S's_0979'
p1054
sS'GLG1'
p1055
S'e_0603'
p1056
sS'GLG2'
p1057
S'e_0510'
p1058
sS'Pro-tRNA(Pro)'
p1059
S's_1379'
p1060
sS'UGP1'
p1061
S'e_0565'
p1062
sS'HMG2'
p1063
S'e_0697'
p1064
sS'INM2'
p1065
S'e_0204'
p1066
sS'O-phospho-L-homoserine'
p1067
S's_1238'
p1068
sS'ADE17'
p1069
S'e_0736'
p1070
sS'PUT2'
p1071
S'e_0431'
p1072
sS'tRNA(Ile)'
p1073
S's_1596'
p1074
sS'tRNA(Thr)'
p1075
S's_1608'
p1076
sS'ERG20'
p1077
S'e_0515'
p1078
sS'ERG27'
p1079
S'e_0644'
p1080
sS'ADH5'
p1081
S'e_0069'
p1082
sS'acetyl-CoA'
p1083
S's_0373'
p1084
sS'ERG24'
p1085
S'e_0800'
p1086
sS'3-dehydro-4-methylzymosterol'
p1087
S's_0209'
p1088
sS'TYS1'
p1089
S'e_0390'
p1090
sS'L-lysine'
p1091
S's_1025'
p1092
sS'GRE2'
p1093
S'e_0842'
p1094
sS'GRE3'
p1095
S'e_0447'
p1096
sS'(2R,3S)-3-isopropylmalate'
p1097
S's_0009'
p1098
sS'SAH1'
p1099
S'e_0280'
p1100
sS'GDP-alpha-D-mannose'
p1101
S's_0743'
p1102
sS'dGDP'
p1103
S's_0613'
p1104
sS'LYS9'
p1105
S'e_0813'
p1106
sS'IDI1'
p1107
S'e_0922'
p1108
sS'KRS1'
p1109
S'e_0171'
p1110
sS'5-O-(1-carboxyvinyl)-3-phosphoshikimic acid'
p1111
S's_0324'
p1112
sS'5-methyltetrahydrofolate'
p1113
S's_0322'
p1114
sS'FAT1'
p1115
S'e_0053'
p1116
sS'ARG5,6'
p1117
S'e_0290'
p1118
sS'GUA1'
p1119
S'e_0746'
p1120
sS'GLN1'
p1121
S'e_0955'
p1122
sS"5'-phosphoribosyl-N-formylglycineamidine"
p1123
S's_0302'
p1124
sS'tRNA(Asp)'
p1125
S's_1587'
p1126
sS'RIB5'
p1127
S'e_0090'
p1128
sS'YDR341C'
p1129
S'e_0214'
p1130
sS'dAMP'
p1131
S's_0584'
p1132
sS'TGL3'
p1133
S'e_0765'
p1134
sS'FEN1'
p1135
S'e_0117'
p1136
sS'L-tryptophan'
p1137
S's_1048'
p1138
sS'2,5-diamino-4-hydroxy-6-(5-phosphoribosylamino)pyrimidine'
p1139
S's_0141'
p1140
sS'THS1'
p1141
S'e_0470'
p1142
sS'2-acetamido-5-oxopentanoate'
p1143
S's_0145'
p1144
sS'SCT1'
p1145
S'e_0020'
p1146
sS'ergosterol'
p1147
S's_0666'
p1148
sS'sulphite'
p1149
S's_1469'
p1150
sS'5,10-methylenetetrahydrofolate'
p1151
S's_0306'
p1152
sS'CPA2'
p1153
S'e_0542'
p1154
sS'CPA1'
p1155
S'e_0888'
p1156
sS'5-[(5-phospho-1-deoxy-D-ribulos-1-ylamino)methylideneamino]-1-(5-phospho-D-ribosyl)imidazole-4-carboxamide'
p1157
S's_0312'
p1158
sS'NCP1'
p1159
S'e_0434'
p1160
sS'Asn-tRNA(Asn)'
p1161
S's_0430'
p1162
sS'AMP'
p1163
S'AMP'
p1164
sS'MIS1'
p1165
S'e_0057'
p1166
sS'6,7-dimethyl-8-(1-D-ribityl)lumazine'
p1167
S's_0328'
p1168
sS'PGM1'
p1169
S'e_0576'
p1170
sS'PGM2'
p1171
S'e_0733'
p1172
sS'PGM3'
p1173
S'e_0757'
p1174
sS'RPE1'
p1175
S'e_0506'
p1176
sS'DFR1'
p1177
S'e_0880'
p1178
sS'glycerol'
p1179
S's_0766'
p1180
sS'ACO1'
p1181
S'e_0675'
p1182
sS'L-serine'
p1183
S's_1039'
p1184
sS'LYS12'
p1185
S'e_0472'
p1186
sS'MET2'
p1187
S'e_0799'
p1188
sS'phosphatidyl-L-serine'
p1189
S's_1337'
p1190
sS'MET6'
p1191
S'e_0298'
p1192
sS'D-glucose 6-phosphate'
p1193
S'G6P'
p1194
sS'MET5'
p1195
S'e_0547'
p1196
sS'ARG1'
p1197
S'e_0826'
p1198
sS'ARG3'
p1199
S'e_0499'
p1200
sS'ARG4'
p1201
S'e_0426'
p1202
sS'CDC21'
p1203
S'e_0850'
p1204
sS'phosphatidate'
p1205
S's_1331'
p1206
sS"adenosine 3',5'-bismonophosphate"
p1207
S's_0390'
p1208
sS'BAT2'
p1209
S'e_0550'
p1210
sS'BAT1'
p1211
S'e_0457'
p1212
sS'GLN4'
p1213
S'e_0867'
p1214
sS"orotidine 5'-(dihydrogen phosphate)"
p1215
S's_1270'
p1216
sS'PYC1'
p1217
S'e_0334'
p1218
sS'CYT1'
p1219
S'e_0848'
p1220
sS'FAA4'
p1221
S'e_0750'
p1222
sS'FAA1'
p1223
S'e_0889'
p1224
sS'FAA2'
p1225
S'e_0273'
p1226
sS'FAA3'
p1227
S'e_0462'
p1228
sS'D-glucose 1-phosphate'
p1229
S's_0567'
p1230
sS'ACH1'
p1231
S'e_0022'
p1232
sS'tRNA(Met)'
p1233
S's_1602'
p1234
sS'COR1'
p1235
S'e_0028'
p1236
sS'TRP2'
p1237
S'e_0297'
p1238
sS'TRP3'
p1239
S'e_0591'
p1240
sS'TRP1'
p1241
S'e_0165'
p1242
sS'TRP4'
p1243
S'e_0219'
p1244
sS'TRP5'
p1245
S'e_0330'
p1246
sS'ADP'
p1247
S'ADP'
p1248
sS'FAS2'
p1249
S'e_0934'
p1250
sS'(R)-5-diphosphomevalonic acid'
p1251
S's_0018'
p1252
sS'L-histidine'
p1253
S's_1006'
p1254
sS'YND1'
p1255
S'e_0271'
p1256
sS'PHA2'
p1257
S'e_0802'
p1258
sS'GMP'
p1259
S's_0782'
p1260
sS'dADP'
p1261
S's_0582'
p1262
sS'PXA1'
p1263
S'e_0924'
p1264
sS'GDP'
p1265
S's_0739'
p1266
sS'TIM11'
p1267
S'e_0213'
p1268
sS'IMD4'
p1269
S'e_0705'
p1270
sS'IMD2'
p1271
S'e_0458'
p1272
sS'IMD3'
p1273
S'e_0693'
p1274
sS'homoisocitrate'
p1275
S's_0836'
p1276
sS'ADH4'
p1277
S'e_0356'
p1278
sS'xanthosine-5-phosphate'
p1279
S's_1565'
p1280
sS'tRNA(Gly)'
p1281
S's_1593'
p1282
sS'ATP7'
p1283
S'e_0559'
p1284
sS'PDC1'
p1285
S'e_0636'
p1286
sS'phosphate'
p1287
S's_1324'
p1288
sS'adenosine'
p1289
S's_0386'
p1290
sS'L-isoleucine'
p1291
S's_1016'
p1292
sS'Trp-tRNA(Trp)'
p1293
S's_1527'
p1294
sS'3-dehydroquinate'
p1295
S's_0210'
p1296
sS'2-hydroxy-3-oxobutyl phosphate'
p1297
S's_0158'
p1298
sS'SDH1'
p1299
S'e_0581'
p1300
sS'SDH3'
p1301
S'e_0579'
p1302
sS'SDH2'
p1303
S'e_0619'
p1304
sS'SDH4'
p1305
S'e_0188'
p1306
sS'acetate'
p1307
S's_0362'
p1308
sS'PRS2'
p1309
S'e_0299'
p1310
sS'ferrocytochrome c'
p1311
S's_0710'
p1312
sS'1-pyrroline-5-carboxylate'
p1313
S's_0118'
p1314
sS'tRNA(Pro)'
p1315
S's_1606'
p1316
sS'inositol-P-ceramide A (C26)'
p1317
S's_0897'
p1318
sS'tRNA(Phe)'
p1319
S's_1604'
p1320
sS'VMA13'
p1321
S'e_0956'
p1322
sS'dihydrofolic acid'
p1323
S's_0625'
p1324
sS'VMA11'
p1325
S'e_0935'
p1326
sS'VMA16'
p1327
S'e_0429'
p1328
sS'ADE16'
p1329
S'e_0631'
p1330
sS'dihydroxyacetone phosphate'
p1331
S'DHAP'
p1332
sS'ADE12'
p1333
S'e_0791'
p1334
sS'ADE13'
p1335
S'e_0686'
p1336
sS'YNK1'
p1337
S'e_0568'
p1338
sS'PMI40'
p1339
S'e_0269'
p1340
sS'ubiquinone-6'
p1341
S's_1537'
p1342
sS'ERG13'
p1343
S'e_0716'
p1344
sS'phosphatidylethanolamine'
p1345
S's_1351'
p1346
sS'YJL045W'
p1347
S'e_0494'
p1348
sS'AUR1'
p1349
S'e_0557'
p1350
sS'L-2-aminoadipate'
p1351
S's_0953'
p1352
sS'GND2'
p1353
S'e_0407'
p1354
sS'GND1'
p1355
S'e_0455'
p1356
sS'ALD2'
p1357
S'e_0740'
p1358
sS'ammonium'
p1359
S's_0420'
p1360
sS'LEU4'
p1361
S'e_0778'
p1362
sS'LEU2'
p1363
S'e_0101'
p1364
sS'LEU1'
p1365
S'e_0328'
p1366
sS'lanosterol'
p1367
S's_1059'
p1368
sS'CDP-diacylglycerol'
p1369
S's_0471'
p1370
sS'LEU9'
p1371
S'e_0855'
p1372
sS'tRNA(Asn)'
p1373
S's_1585'
p1374
sS'GRS2'
p1375
S'e_0963'
p1376
sS'GRS1'
p1377
S'e_0064'
p1378
sS'DUT1'
p1379
S'e_0089'
p1380
sS'dUTP'
p1381
S's_0656'
p1382
sS'L-glutamine'
p1383
S's_0999'
p1384
sS'D-mannose 1-phosphate'
p1385
S's_0573'
p1386
sS'PDC5'
p1387
S'e_0647'
p1388
sS'L-phenylalanine'
p1389
S's_1032'
p1390
sS'PDC6'
p1391
S'e_0370'
p1392
sS'MVD1'
p1393
S'e_0812'
p1394
sS'riboflavin'
p1395
S's_1405'
p1396
sS'ADO1'
p1397
S'e_0541'
p1398
sS'LCB1'
p1399
S'e_0761'
p1400
sS'citrate'
p1401
S's_0522'
p1402
sS'DGA1'
p1403
S'e_0883'
p1404
s.