(dp0
S'Triose'
p1
S'Triose'
p2
sS'Cn'
p3
S'Cn'
p4
sS'Formic_acid'
p5
S'Formic_acid'
p6
sS'Melanoidin'
p7
S'Melanoidin'
p8
sS'lys_R'
p9
S'lys_R'
p10
sS'Acetic_acid'
p11
S'Acetic_acid'
p12
sS'Fru'
p13
S'Fru'
p14
sS'Amadori'
p15
S'Amadori'
p16
sS'AMP'
p17
S'AMP'
p18
sS'Glu'
p19
S'Glu'
p20
sS'C5'
p21
S'C5'
p22
s.