(dp0
S'pro_TrkA'
p1
S'pro_TrkA'
p2
sS'c_Raf_Ras_GTP'
p3
S'c_Raf_Ras_GTP'
p4
sS'pFRS2_dpEGFR_c_Cbl'
p5
S'pFRS2_dpEGFR_c_Cbl'
p6
sS'Crk'
p7
S'Crk'
p8
sS'Ras_GTP'
p9
S'Ras_GTP'
p10
sS'B_Raf'
p11
S'B_Raf'
p12
sS'c_Cbl'
p13
S'c_Cbl'
p14
sS'Ras_GDP'
p15
S'Ras_GDP'
p16
sS'pShc_dpEGFR_c_Cbl_ubiq'
p17
S'pShc_dpEGFR_c_Cbl_ubiq'
p18
sS'Grb2'
p19
S'Grb2'
p20
sS'B_Raf_Rap1_GTP_MEK'
p21
S'B_Raf_Rap1_GTP_MEK'
p22
sS'pFRS2_dpEGFR'
p23
S'pFRS2_dpEGFR'
p24
sS'pSOS'
p25
S'pSOS'
p26
sS'proteasome'
p27
S'proteosome'
p28
sS'ppMEK'
p29
S'ppMEK'
p30
sS'Shc_dpEGFR'
p31
S'Shc_dpEGFR'
p32
sS'degradation'
p33
S'degradation'
p34
sS'Shc'
p35
S'Shc'
p36
sS'pFRS2_pTrkA'
p37
S'pFRS2_pTrkA'
p38
sS'pFRS2'
p39
S'pFRS2'
p40
sS'B_Raf_Ras_GTP_MEK_ERK'
p41
S'B_Raf_Ras_GTP_MEK_ERK'
p42
sS'Rap1GAP'
p43
S'Rap1GAP'
p44
sS'C3G'
p45
S'C3G'
p46
sS'Grb2_SOS_pShc'
p47
S'Grb2_SOS_pShc'
p48
sS'Crk_C3G_pFRS2_dpEGFR'
p49
S'Crk_C3G_pFRS2_dpEGFR'
p50
sS'pFRS2_pTrkA_endo'
p51
S'pFRS2_pTrkA_endo'
p52
sS'NGF'
p53
S'NGF'
p54
sS'dpEGFR_c_Cbl_ubiq'
p55
S'dpEGFR_c_Cbl_ubiq'
p56
sS'B_Raf_Rap1_GTP_pMEK'
p57
S'B_Raf_Rap1_GTP_pMEK'
p58
sS'Shc_dpEGFR_c_Cbl'
p59
S'Shc_dpEGFR_c_Cbl'
p60
sS'pMEK_ERK'
p61
S'pMEK_ERK'
p62
sS'FRS2'
p63
S'FRS2'
p64
sS'B_Raf_Ras_GTP_pMEK_ERK'
p65
S'B_Raf_Ras_GTP_pMEK_ERK'
p66
sS'ppERK_MKP3'
p67
S'ppERK_MKP3'
p68
sS'Shc_dpEGFR_c_Cbl_ubiq'
p69
S'Shc_dpEGFR_c_Cbl_ubiq'
p70
sS'Crk_C3G_pFRS2_pTrkA_endo'
p71
S'Crk_C3G_pFRS2_pTrkA_endo'
p72
sS'Grb2_SOS_pShc_pTrkA'
p73
S'Grb2_SOS_pShc_pTrkA'
p74
sS'SOS_Grb2'
p75
S'SOS_Grb2'
p76
sS'B_Raf_Rap1_GTP'
p77
S'B_Raf_Rap1_GTP'
p78
sS'EGF'
p79
S'EGF'
p80
sS'c_Raf'
p81
S'c_Raf'
p82
sS'pSOS_Grb2'
p83
S'pSOS_Grb2'
p84
sS'pShc_pTrkA_endo'
p85
S'pShc_pTrkA_endo'
p86
sS'pMEK'
p87
S'pMEK'
p88
sS'ppMEK_ERK'
p89
S'ppMEK_ERK'
p90
sS'B_Raf_Rap1_GTP_pMEK_ERK'
p91
S'B_Raf_Rap1_GTP_pMEK_ERK'
p92
sS'L_EGFR'
p93
S'L_EGFR'
p94
sS'ppERK'
p95
S'ppERK'
p96
sS'Grb2_SOS_pShc_dpEGFR_c_Cbl'
p97
S'Grb2_SOS_pShc_dpEGFR_c_Cbl'
p98
sS'FRS2_dpEGFR_c_Cbl_ubiq'
p99
S'FRS2_dpEGFR_c_Cbl_ubiq'
p100
sS'Shc_pTrkA'
p101
S'Shc_pTrkA'
p102
sS'L_NGFR'
p103
S'L_NGFR'
p104
sS'Crk_C3G'
p105
S'Crk_C3G'
p106
sS'Crk_C3G_pFRS2_pTrkA'
p107
S'Crk_C3G_pFRS2_pTrkA'
p108
sS'Shc_pTrkA_endo'
p109
S'Shc_pTrkA_endo'
p110
sS'dpEGFR_c_Cbl'
p111
S'dpEGFR_c_Cbl'
p112
sS'c_Raf_Ras_GTP_pMEK_ERK'
p113
S'c_Raf_Ras_GTP_pMEK_ERK'
p114
sS'pShc_dpEGFR_c_Cbl'
p115
S'pShc_dpEGFR_c_Cbl'
p116
sS'pShc_pTrkA'
p117
S'pShc_pTrkA'
p118
sS'B_Raf_Ras_GTP_MEK'
p119
S'B_Raf_Ras_GTP_MEK'
p120
sS'Grb2_SOS_pShc_pTrkA_endo'
p121
S'Grb2_SOS_pShc_pTrkA_endo'
p122
sS'L_EGFR_dimer'
p123
S'L_EGFR_dimer'
p124
sS'L_dpEGFR'
p125
S'L_dpEGFR'
p126
sS'Grb2_SOS_pShc_dpEGFR_c_Cbl_ubiq'
p127
S'Grb2_SOS_pShc_dpEGFR_c_Cbl_ubiq'
p128
sS'Crk_C3G_pFRS2_dpEGFR_c_Cbl'
p129
S'Crk_C3G_pFRS2_dpEGFR_c_Cbl'
p130
sS'pShc'
p131
S'pShc'
p132
sS'FRS2_dpEGFR_c_Cbl'
p133
S'FRS2_dpEGFR_c_Cbl'
p134
sS'dppERK_MKP3'
p135
S'dppERK_MKP3'
p136
sS'pFRS2_dpEGFR_c_Cbl_ubiq'
p137
S'pFRS2_dpEGFR_c_Cbl_ubiq'
p138
sS'c_Raf_Ras_GTP_MEK'
p139
S'c_Raf_Ras_GTP_MEK'
p140
sS'Rap1_GDP'
p141
S'Rap1_GDP'
p142
sS'Rap1_GTP'
p143
S'Rap1_GTP'
p144
sS'pTrkA_endo'
p145
S'pTrkA_endo'
p146
sS'MEK'
p147
S'MEK'
p148
sS'B_Raf_Rap1_GTP_MEK_ERK'
p149
S'B_Raf_Rap1_GTP_MEK_ERK'
p150
sS'FRS2_pTrkA'
p151
S'FRS2_pTrkA'
p152
sS'MKP3'
p153
S'MKP3'
p154
sS'EGFR'
p155
S'EGFR'
p156
sS'NGFR'
p157
S'NGFR'
p158
sS'FRS2_pTrkA_endo'
p159
S'FRS2_pTrkA_endo'
p160
sS'RasGAP'
p161
S'RasGAP'
p162
sS'ERK'
p163
S'ERK'
p164
sS'Crk_C3G_pFRS2_dpEGFR_c_Cbl_ubiq'
p165
S'Crk_C3G_pFRS2_dpEGFR_c_Cbl_ubiq'
p166
sS'pro_EGFR'
p167
S'pro_EGFR'
p168
sS'SOS'
p169
S'SOS'
p170
sS'PP2A'
p171
S'PP2A'
p172
sS'FRS2_dpEGFR'
p173
S'FRS2_dpEGFR'
p174
sS'pTrkA'
p175
S'pTrkA'
p176
sS'Grb2_SOS_pShc_dpEGFR'
p177
S'Grb2_SOS_pShc_dpEGFR'
p178
sS'Dok'
p179
S'Dok'
p180
sS'B_Raf_Ras_GTP_pMEK'
p181
S'B_Raf_Ras_GTP_pMEK'
p182
sS'pDok'
p183
S'pDok'
p184
sS'B_Raf_Ras_GTP'
p185
S'B_Raf_Ras_GTP'
p186
sS'c_Raf_Ras_GTP_pMEK'
p187
S'c_Raf_Ras_GTP_pMEK'
p188
sS'pDok_RasGAP'
p189
S'pDok_RasGAP'
p190
sS'MEK_ERK'
p191
S'MEK_ERK'
p192
sS'dppERK'
p193
S'dppERK'
p194
sS'c_Raf_Ras_GTP_MEK_ERK'
p195
S'c_Raf_Ras_GTP_MEK_ERK'
p196
sS'pShc_dpEGFR'
p197
S'pShc_dpEGFR'
p198
s.