(dp0
S'c_10-formyl-THF'
p1
S'c_10f'
p2
sS'Homocysteine'
p3
S'hcy'
p4
sS'b_Cysteine'
p5
S'b_cys'
p6
sS'Glutamyl-Cysteine'
p7
S'glc'
p8
sS'GAR'
p9
S'GAR'
p10
sS'b_Ser'
p11
S'b_ser'
p12
sS'c_Glutamate'
p13
S'c_glu'
p14
sS'c_Cysteine'
p15
S'c_cys'
p16
sS'Sarcosine'
p17
S'src'
p18
sS'Formaldehyde'
p19
S'HCHO'
p20
sS'm_Glycine'
p21
S'm_gly'
p22
sS'c_5-10-methylene-THF'
p23
S'c_2cf'
p24
sS'H2O2'
p25
S'H2O2'
p26
sS'c_5-methyl-THF'
p27
S'c_5mf'
p28
sS'm_Formate'
p29
S'm_coo'
p30
sS'c_DHF'
p31
S'c_dhf'
p32
sS'b_Glycine'
p33
S'b_gly'
p34
sS'b_Glutamate'
p35
S'b_glu'
p36
sS'b_Met'
p37
S'b_met'
p38
sS'c_THF'
p39
S'c_thf'
p40
sS'c_Serine'
p41
S'c_ser'
p42
sS'b_GSSG'
p43
S'b_gsg'
p44
sS'c_Methionine'
p45
S'met'
p46
sS'm_5-10-methylene-THF'
p47
S'm_2cf'
p48
sS'b_GSH'
p49
S'b_gsh'
p50
sS'c_GSSG'
p51
S'c_gsg'
p52
sS'c_formate'
p53
S'c_coo'
p54
sS'Betaine'
p55
S'BET'
p56
sS'NADPH'
p57
S'NADPH'
p58
sS'AICAR'
p59
S'aic'
p60
sS'c_Glycine'
p61
S'c_gly'
p62
sS'm_THF'
p63
S'm_thf'
p64
sS'S-adenosylhomocysteine'
p65
S'sah'
p66
sS'Folate'
p67
S'Fol'
p68
sS'Cystathione'
p69
S'cyt'
p70
sS'CO2'
p71
S'CO'
p72
sS'dUMP'
p73
S'DUMP'
p74
sS'm_5-10-methenyl-THF'
p75
S'm_1cf'
p76
sS'm_10-formyl-THF'
p77
S'm_10f'
p78
sS'S-adenosylmethionine'
p79
S'sam'
p80
sS'c_5-10-methenyl-THF'
p81
S'c_1cf'
p82
sS'Dimethylglycine'
p83
S'dmg'
p84
sS'm_Serine'
p85
S'm_ser'
p86
sS'c_GSH'
p87
S'c_gsh'
p88
s.