(dp0
S'BM(AcDH)'
p1
S'AcDH'
p2
sS'CO2'
p3
S'CO2'
p4
sS'BM(active)'
p5
S'a'
p6
sS'Glucose(feed)'
p7
S'S_f'
p8
sS'BM'
p9
S'x'
p10
sS'Pyruvate'
p11
S's_pyr'
p12
sS'Acetate'
p13
S's_acetate'
p14
sS'Red. Equ. (NADH)'
p15
S'Red'
p16
sS'EtOH'
p17
S's_EtOH'
p18
sS'Acetaldehyde'
p19
S's_acetald'
p20
sS'Glucose'
p21
S's_glu'
p22
s.