(dp0
S'GSSG'
p1
S'GSSG'
p2
sS'Protofibril'
p3
S'Protofibril'
p4
sS'Hsc70-asyn'
p5
S'Hsc70_asyn'
p6
sS'Hsc70'
p7
S'Hsc70'
p8
sS'OH-'
p9
S'OH'
p10
sS'Synphilin-1'
p11
S'Synphilin_1'
p12
sS'L-Tyr'
p13
S'L_Tyr'
p14
sS'asyn-ub'
p15
S'asyn_ub'
p16
sS'Parkin-sub'
p17
S'Parkin_sub'
p18
sS'Hsc70-fibril'
p19
S'Hsc70_fibril'
p20
sS'NADH'
p21
S'NADH'
p22
sS'Autophagosome'
p23
S'Autophagosome_0'
p24
sS'ATP'
p25
S'ATP'
p26
sS'DOPAL'
p27
S'DOPAL'
p28
sS'DOPAC'
p29
S'DOPAC'
p30
sS'GSH'
p31
S'GSH'
p32
sS'Fragments'
p33
S'Fragments'
p34
sS'Parkin'
p35
S'Parkin'
p36
sS'O2'
p37
S'O2_0'
p38
sS'Parkin-synphilin-1-ub'
p39
S'Parkin_synphilin_1_ub'
p40
sS'UbcH13/Uev1a-ub'
p41
S'UbcH13_Uev1a_ub'
p42
sS'Neurotoxins'
p43
S'Neurotoxins'
p44
sS'Preautophagosome_membrane'
p45
S'Preautophagosome_membrane'
p46
sS'UCH-L1'
p47
S'UCH_L1'
p48
sS'H2O2'
p49
S'H2O2'
p50
sS'Proteasome'
p51
S'Proteasome_0'
p52
sS'UbcH13/Uev1a'
p53
S'UbcH13_Uev1a'
p54
sS'Catalase'
p55
S'Catalase'
p56
sS'Fe3+'
p57
S'Fe3'
p58
sS'DA-S-parkin'
p59
S'DA_S_parkin'
p60
sS'Lewy_body'
p61
S'Lewy_body'
p62
sS'Neuromelanin'
p63
S'Neuromelanin'
p64
sS'Protofibril-Ub'
p65
S'Protofibril_Ub'
p66
sS'Alpha_synuclein'
p67
S'Alpha_synuclein'
p68
sS'O2-'
p69
S'O2'
p70
sS'V-DA'
p71
S'V_DA'
p72
sS'Parkin-sub-ub4'
p73
S'Parkin_sub_ub4'
p74
sS'ALDH'
p75
S'ALDH'
p76
sS'asyn-UCH-L1'
p77
S'asyn_UCH_L1'
p78
sS'E1'
p79
S'E1'
p80
sS'Parkin-synphilin-1'
p81
S'Parkin_synphilin_1'
p82
sS'VMAT2'
p83
S'VMAT2'
p84
sS'UbcH8'
p85
S'UbcH8'
p86
sS'Substrate'
p87
S'Substrate'
p88
sS'TH'
p89
S'TH'
p90
sS'DA-GSH'
p91
S'DA_GSH'
p92
sS'UbcH8-Ub'
p93
S'UbcH8_Ub'
p94
sS'SOD'
p95
S'SOD'
p96
sS'V-ntox-ba'
p97
S'V_ntox_ba'
p98
sS'Vesicle'
p99
S'Vesicle_0'
p100
sS'Neuromelanin-ntox-Fe3+'
p101
S'Neuromelanin_ntox_Fe3'
p102
sS'Cysteine'
p103
S'Cysteine'
p104
sS'L-Dopa'
p105
S'L_Dopa'
p106
sS'NH3'
p107
S'NH3'
p108
sS'DDC'
p109
S'DDC'
p110
sS'Bioamines'
p111
S'Bioamines'
p112
sS'DA_quinone'
p113
S'DA_quinone'
p114
sS'UbcH8ub3'
p115
S'UbcH8ub3'
p116
sS'UbcH8ub2'
p117
S'UbcH8ub2'
p118
sS'CO2'
p119
S'CO2'
p120
sS'Protofibril-UCH-L1'
p121
S'Protofibril_UCH_L1'
p122
sS'UbcH8ub4'
p123
S'UbcH8ub4'
p124
sS'Gluta_per'
p125
S'Gluta_per'
p126
sS'Fe2+'
p127
S'Fe2'
p128
sS'Lysosome'
p129
S'Lysosome_0'
p130
sS'Hsc70-Protofibril'
p131
S'Hsc70_Protofibril'
p132
sS'NAD+'
p133
S'NAD'
p134
sS'Fibril'
p135
S'Fibril'
p136
sS'UCH-L1-asyn-ub4'
p137
S'UCH_L1_asyn_ub4'
p138
sS'OH_radical'
p139
S'OH_radical'
p140
sS'Ub-E1'
p141
S'Ub_E1'
p142
sS'Dopamine'
p143
S'Dopamine'
p144
sS'Gluta_red'
p145
S'Gluta_red'
p146
sS'H2O'
p147
S'H2O'
p148
sS'MAO'
p149
S'MAO'
p150
sS'Ubiquitin'
p151
S'Ubiquitin'
p152
s.