(dp0
S'CRP'
p1
S'CRP'
p2
sS'C4BP'
p3
S'C4BP'
p4
sS'C4BP/PC/CRP/LF'
p5
S'C4BP_PC_CRP_LF'
p6
sS'C4BP/PC/CRP'
p7
S'C4BP_PC_CRP'
p8
sS'C2b'
p9
S'C2b'
p10
sS'GlcNac/LF'
p11
S'GlcNac_LF'
p12
sS'C2a'
p13
S'C2a'
p14
sS'C4a'
p15
S'C4a'
p16
sS'C4b'
p17
S'C4b'
p18
sS'GlcNac/LF/C1/MASP'
p19
S'GlcNac_LF_C1_MASP'
p20
sS'HF'
p21
S'HF'
p22
sS'GlcNac/HF'
p23
S'GlcNac_HF'
p24
sS'LF'
p25
S'LF'
p26
sS'dC4b/C2a/C4BP'
p27
S'dC4b_C2a_C4BP'
p28
sS'dC4b/C2a'
p29
S'dC4b_C2a'
p30
sS'GlcNac/LF/CRP/C1'
p31
S'GlcNac_LF_CRP_C1'
p32
sS'C4BP/GlcNac/LF/CRP'
p33
S'C4BP_GlcNac_LF_CRP'
p34
sS'PC'
p35
S'PC'
p36
sS'C4b/C2a/C4BP'
p37
S'C4b_C2a_C4BP'
p38
sS'MASP'
p39
S'MASP'
p40
sS'C3'
p41
S'C3'
p42
sS'C2'
p43
S'C2'
p44
sS'C1'
p45
S'C1'
p46
sS'C4'
p47
S'C4'
p48
sS'PC/CRP/LF/C1/MASP'
p49
S'PC_CRP_LF_C1_MASP'
p50
sS'PC/CRP/LF/C1'
p51
S'PC_CRP_LF_C1'
p52
sS'PC/CRP'
p53
S'PC_CRP'
p54
sS'C3a'
p55
S'C3a'
p56
sS'GlcNac'
p57
S'GlcNac'
p58
sS'GlcNac/HF/MASP'
p59
S'GlcNac_HF_MASP'
p60
sS'C3b'
p61
S'C3b'
p62
sS'X'
p63
g63
sS'PC/CRP/LF/MASP'
p64
S'PC_CRP_LF_MASP'
p65
sS'C4BP/C4b'
p66
S'C4BP_C4b'
p67
sS'dC3b'
p68
S'dC3b'
p69
sS'GlcNac/LF/CRP/MASP'
p70
S'GlcNac_LF_CRP_MASP'
p71
sS'GlcNac/LF/MASP'
p72
S'GlcNac_LF_MASP'
p73
sS'C4b/C2a'
p74
S'C4b_C2a'
p75
sS'PC/CRP/C1'
p76
S'PC_CRP_C1'
p77
sS'iC4b/C2a'
p78
S'iC4b_C2a'
p79
sS'PC/CRP/LF'
p80
S'PC_CRP_LF'
p81
sS'GlcNac/LF/CRP'
p82
S'GlcNac_LF_CRP'
p83
s.