(dp0
S'IkBbt'
p1
S'IkBb_mRNA'
p2
sS'IkBbn'
p3
S'IkBb_nucleus'
p4
sS'IkBaIKKNFkB'
p5
S'IkBaIKKNFkB'
p6
sS'IkBeNFkBn'
p7
S'IkBeNFkB_nucleus'
p8
sS'IkBan'
p9
S'IkBa_nucleus'
p10
sS'IkBbIKKNFkB'
p11
S'IkBbIKKNFkB'
p12
sS'IkBat'
p13
S'IkBa_mRNA'
p14
sS'IKK'
p15
S'IKK'
p16
sS'IkBaIKK'
p17
S'IkBaIKK'
p18
sS'NFkBn'
p19
S'NFkB_nucleus'
p20
sS'IkBet'
p21
S'IkBe_mRNA'
p22
sS'NFkB'
p23
S'NFkB_cytoplasm'
p24
sS'IkBeNFkB'
p25
S'IkBeNFkB_cytoplasm'
p26
sS'IkBb'
p27
S'IkBb_cytoplasm'
p28
sS'IkBen'
p29
S'IkBe_nucleus'
p30
sS'IkBa'
p31
S'IkBa_cytoplasm'
p32
sS'IkBe'
p33
S'IkBe_cytoplasm'
p34
sS'IkBbNFkB'
p35
S'IkBbNFkB_cytoplasm'
p36
sS'IkBeIKK'
p37
S'IkBeIKK'
p38
sS'IkBbNFkBn'
p39
S'IkBbNFkB_nucleus'
p40
sS'IkBaNFkB'
p41
S'IkBaNFkB_cytoplasm'
p42
sS'IkBeIKKNFkB'
p43
S'IkBeIKKNFkB'
p44
sS'IkBaNFkBn'
p45
S'IkBaNFkB_nucleus'
p46
sS'IkBbIKK'
p47
S'IkBbIKK'
p48
s.