(dp0
S'FeII_O2'
p1
S'FeII_O2'
p2
sS'FeII_star_O2'
p3
S'FeII_star_O2'
p4
sS'FeIII_star'
p5
S'FeIII_star'
p6
sS'NADPplus'
p7
S'NADPplus'
p8
sS'NO'
p9
S'NO'
p10
sS'FeII'
p11
S'FeII'
p12
sS'FeIII'
p13
S'FeIII'
p14
sS'citruline'
p15
S'citrulline'
p16
sS'FeIII_t'
p17
S'FeIII_t'
p18
sS'NADPH'
p19
S'NADPH'
p20
sS'FeII_star'
p21
S'FeII_star'
p22
sS'FeIII_NO'
p23
S'FeIII_NO'
p24
sS'FeII_NO'
p25
S'FeII_NO'
p26
sS'O2'
p27
S'O2'
p28
sS'NO3'
p29
S'NO3'
p30
s.