(dp0
S'e'
p1
g1
sS'd'
p2
g2
sS'rs'
p3
S'rs'
p4
sS'ca'
p5
S'ca'
p6
sS'dcon'
p7
S'dcon'
p8
sS'gstar'
p9
S'gstar'
p10
sS'y'
p11
g11
sS'ip3'
p12
S'ip3'
p13
sS'r'
p14
g14
sS'atp'
p15
S'atp'
p16
sS'delta'
p17
S'delta'
p18
sS'ip3con'
p19
S'ip3con'
p20
sS'x'
p21
g21
sS'ro'
p22
S'ro'
p23
sS'kg'
p24
S'kg'
p25
sS'ad'
p26
S'ad'
p27
s.