(dp0
S'Complex Wnt-Frzzl'
p1
S's111'
p2
sS'EGFR'
p3
S's98'
p4
sS'Hes-1'
p5
S's73'
p6
sS'EGF'
p7
S's96'
p8
sS'Notch'
p9
S's57'
p10
sS'Notch TM'
p11
S's58'
p12
sS'SAG'
p13
S's89'
p14
sS'Complex NICD-RBP'
p15
S's72'
p16
sS'Complex EGF-EGFR'
p17
S's100'
p18
sS'smo'
p19
S's88'
p20
sS'Complex GSK3B-Bcatenin'
p21
S's146'
p22
sS'DAPT'
p23
S's61'
p24
sS'Wnt'
p25
S's107'
p26
sS'Gamma secretase'
p27
S's60'
p28
sS'Complex Dishevelled-FRAT-CK2'
p29
S's135'
p30
sS'FRAT-CK2'
p31
S's124'
p32
sS'Shh'
p33
S's81'
p34
sS'Ptch1'
p35
S's83'
p36
sS'Dishevelled'
p37
S's122'
p38
sS'GSK3B'
p39
S's142'
p40
sS'RBP-jk'
p41
S's68'
p42
sS'Frzzl'
p43
S's109'
p44
sS'Complex Shh Ptch1'
p45
S's85'
p46
sS'Beta-catenin'
p47
S's144'
p48
sS'6 bromoindirubin 3`oxime'
p49
S's147'
p50
sS'NICD'
p51
S's53'
p52
sS'Erlotinib'
p53
S's101'
p54
s.