(dp0
S'NGF'
p1
S'NGF'
p2
sS'pro_TrkA'
p3
S'pro_TrkA'
p4
sS'TrkA'
p5
S'TrkA'
p6
sS'pAkt_S6'
p7
S'pAkt_S6'
p8
sS'S6'
p9
S'S6'
p10
sS'Akt'
p11
S'Akt'
p12
sS'pTrkA_Akt'
p13
S'pTrkA_Akt'
p14
sS'pTrkA'
p15
S'pTrkA'
p16
sS'pAkt'
p17
S'pAkt'
p18
sS'pS6'
p19
S'pS6'
p20
sS'NGF_TrkA'
p21
S'NGF_TrkA'
p22
s.