(dp0
S'srcc'
p1
S'srcc'
p2
sS'srca'
p3
S'srca'
p4
sS'Cbp_P_CSK'
p5
S'Cbp_P_CSK'
p6
sS'srci'
p7
S'srci'
p8
sS'srco'
p9
S'srco'
p10
sS'Cbp_P'
p11
S'Cbp_P'
p12
sS'Cbp'
p13
S'Cbp'
p14
sS'PTP_pY789'
p15
S'PTP_pY789'
p16
sS'CSK_cytoplasm'
p17
S'CSK_cytoplasm'
p18
sS'PTP'
p19
S'PTP'
p20
s.