(dp0
S'Mad1:C-Mad2'
p1
S'Mad1_CMad2'
p2
sS'Mad1:C-Mad2:O-Mad2*'
p3
S'Mad1_CMad2_OMad2'
p4
sS'MCC'
p5
S'MCC'
p6
sS'Bub3:BubR1'
p7
S'Bub3_BubR1'
p8
sS'Cdc20'
p9
S'Cdc20'
p10
sS'Bub3:BubR1:Cdc20'
p11
S'Bub3_BubR1_Cdc20'
p12
sS'O-Mad2'
p13
S'OMad2'
p14
sS'Cdc20:C-Mad2'
p15
S'Cdc20_CMad2'
p16
s.