(dp0
S'P2'
p1
S'P2'
p2
sS'E_M1'
p3
S'E_M1'
p4
sS'E'
p5
g5
sS'E_P_1'
p6
S'E_P_1'
p7
sS'E_P_2'
p8
S'E_P_2'
p9
sS'M'
p10
g10
sS'E_P21'
p11
S'E_P21'
p12
sS'P'
p13
g13
sS'M1'
p14
S'M1'
p15
sS'T'
p16
g16
sS'E_P2'
p17
S'E_P2'
p18
sS'P21'
p19
S'P21'
p20
sS'E_M'
p21
S'E_M'
p22
sS'E_P1'
p23
S'E_P1'
p24
s.