(dp0
S'NO_sGCslow_6coord_NO_int'
p1
S'NO_sGCslow_6coord_NO_int'
p2
sS'NO_sGCslow_6coord'
p3
S'NO_sGCslow_6coord'
p4
sS'NO_sGCslow'
p5
S'NO_sGCslow'
p6
sS'sGC_inact_tot'
p7
S'sGC_inact_tot'
p8
sS'NO'
p9
S'NO'
p10
sS'NO_sGCfast'
p11
S'NO_sGCfast'
p12
sS'sGCfast'
p13
S'sGCfast'
p14
sS'NO_sGCfast_6coord'
p15
S'NO_sGCfast_6coord'
p16
sS'NO_sGCslow_5coord'
p17
S'NO_sGCslow_5coord'
p18
sS'NO_sGC_5coord_tot'
p19
S'NO_sGC_5coord_tot'
p20
sS'sGCslow'
p21
S'sGCslow'
p22
sS'NO_sGCfast_5coord'
p23
S'NO_sGCfast_5coord'
p24
s.