(dp0
S'Complex_br_(Cubitus_space_interruptus_space_repressor/Su(fu))'
p1
S's128'
p2
sS'Microtubule'
p3
S's68'
p4
sS'sag'
p5
S's157'
p6
sS'Patched'
p7
S's1'
p8
sS'ATP'
p9
S's9'
p10
sS'Complex_br_(Patched/Hedgehog)'
p11
S's21'
p12
sS'Complex_br_(Costal2/Fused/../microtubule)'
p13
S's159'
p14
sS'Complex_br_(CBP/Cubitus)'
p15
S's158'
p16
sS'smoothened'
p17
S's148'
p18
sS'MIcrotubule'
p19
S's152'
p20
sS'complex'
p21
S's150'
p22
sS'Complex_br_(Su(fu)/Cubitus)'
p23
S's161'
p24
sS'Complex_br_(Costal2/Smoothened/_br_Fused)'
p25
S's48'
p26
sS'ADP'
p27
S's10'
p28
sS'Complex_br_(Sap18/Su(fu)/_br_Cubitus_space_interruptus_space_repressor)'
p29
S's140'
p30
sS'Hedgehog target gene'
p31
S's75'
p32
sS'Complex_br_(Su(fu)/Fused/../_br_Smoothened)'
p33
S's160'
p34
sS'Hedgehog'
p35
S's7'
p36
sS'CBP'
p37
S's71'
p38
sS'Sap18'
p39
S's135'
p40
sS'Complex_br_(Costal2/Fused/_br_Smoothened)'
p41
S's69'
p42
sS'Cubitus_space_interruptus'
p43
S's70'
p44
s.