(dp0
S'2-oxobutanoate'
p1
S's_0178'
p2
sS'L-methionine'
p3
S's_1029'
p4
sS'ubiquinol-6'
p5
S's_1535'
p6
sS'TDH1'
p7
S'e_0495'
p8
sS'TDH2'
p9
S'e_0525'
p10
sS'TDH3'
p11
S'e_0392'
p12
sS'L-homocysteine'
p13
S's_1012'
p14
sS'DIA4'
p15
S'e_0425'
p16
sS'DED81'
p17
S'e_0427'
p18
sS'1-(2-carboxyphenylamino)-1-deoxy-D-ribulose 5-phosphate'
p19
S's_0076'
p20
sS'ergosterol ester'
p21
S's_0672'
p22
sS'TSC10'
p23
S'e_0092'
p24
sS'TSC13'
p25
S'e_0128'
p26
sS'PYC1'
p27
S'e_0334'
p28
sS'PGI1'
p29
S'e_0079'
p30
sS'glyceraldehyde 3-phosphate'
p31
S's_0764'
p32
sS'Met-tRNA(Met)'
p33
S's_1148'
p34
sS'GSC2'
p35
S'e_0364'
p36
sS'WRS1'
p37
S'e_0836'
p38
sS'1D-myo-inositol 1-phosphate'
p39
S's_0126'
p40
sS'ceramide-3 (C24)'
p41
S's_0493'
p42
sS'episterol'
p43
S's_0657'
p44
sS'adenylo-succinate'
p45
S's_0393'
p46
sS'tRNA(Leu)'
p47
S's_1598'
p48
sS'PRPP'
p49
S's_1386'
p50
sS'L-histidinol phosphate'
p51
S's_1011'
p52
sS'HOM6'
p53
S'e_0548'
p54
sS'ERG4'
p55
S'e_0329'
p56
sS'ERG5'
p57
S'e_0724'
p58
sS'TYR1'
p59
S'e_0074'
p60
sS'fumarate'
p61
S's_0725'
p62
sS'ERG1'
p63
S'e_0385'
p64
sS'ERG2'
p65
S'e_0742'
p66
sS'ERG3'
p67
S'e_0637'
p68
sS'1-(5-phospho-D-ribosyl)-5-[(5-phospho-D-ribosylamino)methylideneamino]imidazole-4-carboxamide'
p69
S's_0077'
p70
sS'ERG8'
p71
S'e_0747'
p72
sS'PSA1'
p73
S'e_0134'
p74
sS'DCD1'
p75
S'e_0452'
p76
sS'HTS1'
p77
S'e_0953'
p78
sS'(2R,3R)-2,3-dihydroxy-3-methylpentanoate'
p79
S's_0008'
p80
sS'PMT4'
p81
S'e_0549'
p82
sS'ADE5,7'
p83
S'e_0352'
p84
sS'PIS1'
p85
S'e_0964'
p86
sS'CMP'
p87
S's_0526'
p88
sS'(R)-2,3-dihydroxy-3-methylbutanoate'
p89
S's_0016'
p90
sS'phosphoribosyl-carboxy-aminoimidazole'
p91
S's_1364'
p92
sS'14-demethyllanosterol'
p93
S's_0122'
p94
sS'GPM1'
p95
S'e_0582'
p96
sS'(S)-2-acetyl-2-hydroxybutanoate'
p97
S's_0039'
p98
sS'ARO1'
p99
S'e_0182'
p100
sS'ARO2'
p101
S'e_0342'
p102
sS'N-acetyl-L-gamma-glutamyl phosphate'
p103
S's_1191'
p104
sS'ARO4'
p105
S'e_0088'
p106
sS"5'-adenylyl sulfate"
p107
S's_0298'
p108
sS'ARO7'
p109
S'e_0959'
p110
sS'zymosterol'
p111
S's_1569'
p112
sS'ceramide-2 (C24)'
p113
S's_0481'
p114
sS'Arg-tRNA(Arg)'
p115
S's_0428'
p116
sS'1-acyl-sn-glycerol 3-phosphate'
p117
S's_0082'
p118
sS'AICAR'
p119
S's_0403'
p120
sS'D-fructose 6-phosphate'
p121
S's_0557'
p122
sS'phosphatidyl-N-methylethanolamine'
p123
S's_1343'
p124
sS'phosphatidylcholine'
p125
S's_1346'
p126
sS'Asp-tRNA(Asp)'
p127
S's_0432'
p128
sS'DPS1'
p129
S'e_0615'
p130
sS'sedoheptulose 7-phosphate'
p131
S's_1427'
p132
sS'D-fructose 1,6-bisphosphate'
p133
S's_0555'
p134
sS'GPX1'
p135
S'e_0563'
p136
sS'GPX2'
p137
S'e_0086'
p138
sS'ILS1'
p139
S'e_0031'
p140
sS'D-mannose 6-phosphate'
p141
S's_0574'
p142
sS'SES1'
p143
S'e_0168'
p144
sS'CTP'
p145
S's_0539'
p146
sS'PUT2'
p147
S'e_0431'
p148
sS'2-isopropylmaleic acid'
p149
S's_0165'
p150
sS'zymosterol intermediate 1b'
p151
S's_1577'
p152
sS'zymosterol intermediate 1c'
p153
S's_1578'
p154
sS'zymosterol intermediate 1a'
p155
S's_1576'
p156
sS'TSC3'
p157
S'e_0054'
p158
sS'COX5A'
p159
S'e_0774'
p160
sS'dolichyl D-mannosyl phosphate'
p161
S's_0644'
p162
sS'5-amino-6-(5-phosphoribitylamino)uracil'
p163
S's_0313'
p164
sS'4,4-dimethyl-5alpha-cholesta-8,14,24-trien-3beta-ol'
p165
S's_0262'
p166
sS'squalene'
p167
S's_1447'
p168
sS'fecosterol'
p169
S's_0700'
p170
sS'N-(5-phospho-beta-D-ribosyl)anthranilate'
p171
S's_1187'
p172
sS"5'-phosphoribosyl-4-(N-succinocarboxamide)-5-aminoimidazole"
p173
S's_0299'
p174
sS'UDP-D-glucose'
p175
S's_1543'
p176
sS'ARG8'
p177
S'e_0840'
p178
sS'chorismate'
p179
S's_0515'
p180
sS'tRNA(Ala)'
p181
S's_1582'
p182
sS'tRNA(Ser)'
p183
S's_1607'
p184
sS'3-ketosphinganine'
p185
S's_0231'
p186
sS'DGA1'
p187
S'e_0883'
p188
sS'COX4'
p189
S'e_0346'
p190
sS'RNR2'
p191
S'e_0492'
p192
sS'RNR3'
p193
S'e_0467'
p194
sS'(S)-dihydroorotate'
p195
S's_0061'
p196
sS'RNR1'
p197
S'e_0291'
p198
sS'RNR4'
p199
S'e_0387'
p200
sS'INO1'
p201
S'e_0512'
p202
sS'PRS1'
p203
S'e_0585'
p204
sS'S-adenosyl-L-methionine'
p205
S's_1416'
p206
sS'1,3-bisphospho-D-glycerate'
p207
S's_0075'
p208
sS'HOM2'
p209
S'e_0186'
p210
sS'HOM3'
p211
S'e_0281'
p212
sS'3-hydroxy-3-methylglutaryl-CoA'
p213
S's_0218'
p214
sS'zymosterol intermediate 2'
p215
S's_1579'
p216
sS'L-cystathionine'
p217
S's_0980'
p218
sS'3-dehydroshikimate'
p219
S's_0211'
p220
sS'GPD1'
p221
S'e_0129'
p222
sS'(S)-3-methyl-2-oxopentanoate'
p223
S's_0056'
p224
sS'Ala-tRNA(Ala)'
p225
S's_0404'
p226
sS'(S)-malate'
p227
S's_0066'
p228
sS'myristate'
p229
S's_1161'
p230
sS'COX5B'
p231
S'e_0475'
p232
sS'L-leucine'
p233
S's_1021'
p234
sS'MET12'
p235
S'e_0903'
p236
sS'ornithine'
p237
S's_1266'
p238
sS'YEH1'
p239
S'e_0613'
p240
sS'tRNA(Val)'
p241
S's_1614'
p242
sS'CYS4'
p243
S'e_0380'
p244
sS'NDE1'
p245
S'e_0737'
p246
sS'SAM2'
p247
S'e_0239'
p248
sS'SAM1'
p249
S'e_0658'
p250
sS'NDE2'
p251
S'e_0139'
p252
sS'CYS3'
p253
S'e_0008'
p254
sS'orotate'
p255
S's_1269'
p256
sS'MET16'
p257
S'e_0975'
p258
sS'Leu-tRNA(Leu)'
p259
S's_1077'
p260
sS'stearoyl-CoA'
p261
S's_1454'
p262
sS'MET17'
p263
S'e_0674'
p264
sS'ADK2'
p265
S'e_0303'
p266
sS'SUR4'
p267
S'e_0687'
p268
sS'ADK1'
p269
S'e_0194'
p270
sS'ACB1'
p271
S'e_0365'
p272
sS'FKS1'
p273
S'e_0682'
p274
sS'ADE4'
p275
S'e_0763'
p276
sS'ADE6'
p277
S'e_0368'
p278
sS'ADE1'
p279
S'e_0017'
p280
sS'ADE2'
p281
S'e_0860'
p282
sS'ADE3'
p283
S'e_0396'
p284
sS'ILV5'
p285
S'e_0685'
p286
sS'tRNA(Tyr)'
p287
S's_1612'
p288
sS'2,5-diamino-6-(5-phosphono)ribitylamino-4(3H)-pyrimidinone'
p289
S's_0142'
p290
sS'ILV6'
p291
S'e_0100'
p292
sS'ADE8'
p293
S'e_0231'
p294
sS'ILV3'
p295
S'e_0528'
p296
sS'ILV2'
p297
S'e_0734'
p298
sS'CHO1'
p299
S'e_0278'
p300
sS'CHO2'
p301
S'e_0381'
p302
sS'glycerol 3-phosphate'
p303
S's_0767'
p304
sS'UDP'
p305
S's_1538'
p306
sS'myo-inositol'
p307
S's_1153'
p308
sS'IPP1'
p309
S'e_0038'
p310
sS'GPT2'
p311
S'e_0607'
p312
sS'L-aspartate 4-semialdehyde'
p313
S's_0978'
p314
sS'L-saccharopine'
p315
S's_1038'
p316
sS'triglyceride'
p317
S's_1524'
p318
sS'NADP(+)'
p319
S's_1207'
p320
sS'ERG10'
p321
S'e_0904'
p322
sS'L-alanine'
p323
S's_0955'
p324
sS'4-methyl-2-oxopentanoate'
p325
S's_0291'
p326
sS'MDH3'
p327
S'e_0137'
p328
sS'PRX1'
p329
S'e_0029'
p330
sS'hydrogen peroxide'
p331
S's_0837'
p332
sS'LYS20'
p333
S'e_0154'
p334
sS'YER152C'
p335
S'e_0980'
p336
sS'3-(4-hydroxyphenyl)pyruvate'
p337
S's_0204'
p338
sS'HFA1'
p339
S'e_0744'
p340
sS'MDH2'
p341
S'e_0838'
p342
sS'(1->3)-beta-D-glucan'
p343
S's_0002'
p344
sS'Glu-tRNA(Glu)'
p345
S's_0748'
p346
sS'stearate'
p347
S's_1449'
p348
sS'S-adenosyl-L-homocysteine'
p349
S's_1413'
p350
sS'YDC1'
p351
S'e_0914'
p352
sS'acetoacetyl-CoA'
p353
S's_0367'
p354
sS'ergosta-5,7,22,24(28)-tetraen-3beta-ol'
p355
S's_0662'
p356
sS'RIB1'
p357
S'e_0025'
p358
sS'diphosphate'
p359
S's_0633'
p360
sS'RIB2'
p361
S'e_0832'
p362
sS'pyruvate'
p363
S's_1399'
p364
sS'OPI3'
p365
S'e_0536'
p366
sS'RIB7'
p367
S'e_0071'
p368
sS'dCDP'
p369
S's_0587'
p370
sS'IDP3'
p371
S'e_0769'
p372
sS'IDP1'
p373
S'e_0135'
p374
sS'glutathione'
p375
S's_0750'
p376
sS'GUK1'
p377
S'e_0234'
p378
sS'sulphate'
p379
S's_1468'
p380
sS'myristoyl-CoA'
p381
S's_1176'
p382
sS'URA3'
p383
S'e_0249'
p384
sS'L-homoserine'
p385
S's_1014'
p386
sS'L-glutamate'
p387
S's_0991'
p388
sS'oxygen'
p389
S's_1277'
p390
sS'3-phospho-serine'
p391
S's_0259'
p392
sS'carbamoyl phosphate'
p393
S's_0455'
p394
sS'(N(omega)-L-arginino)succinic acid'
p395
S's_0015'
p396
sS"5'-phosphoribosyl-N-formylglycineamide"
p397
S's_0301'
p398
sS'carbon dioxide'
p399
S's_0458'
p400
sS'PRO3'
p401
S'e_0276'
p402
sS'RKI1'
p403
S'e_0852'
p404
sS'palmitoyl-CoA'
p405
S's_1302'
p406
sS'LCB2'
p407
S'e_0177'
p408
sS'ceramide-4 (C24)'
p409
S's_0499'
p410
sS'Tyr-tRNA(Tyr)'
p411
S's_1533'
p412
sS'3-phosphoshikimic acid'
p413
S's_0261'
p414
sS'SLC1'
p415
S'e_0133'
p416
sS'2-isopropylmalate'
p417
S's_0162'
p418
sS'lauroyl-CoA'
p419
S's_1073'
p420
sS'TRR1'
p421
S'e_0218'
p422
sS'TRR2'
p423
S'e_0448'
p424
sS"1-(5-phosphoribosyl)-5'-AMP"
p425
S's_0078'
p426
sS'bicarbonate'
p427
S's_0445'
p428
sS'GSY1'
p429
S'e_0317'
p430
sS'phosphoribosyl-formamido-carboxamide'
p431
S's_1365'
p432
sS'GSY2'
p433
S'e_0667'
p434
sS'His-tRNA(His)'
p435
S's_0832'
p436
sS'MET14'
p437
S'e_0556'
p438
sS'MTD1'
p439
S'e_0610'
p440
sS'KRE6'
p441
S'e_0973'
p442
sS'3-phosphoglycerate'
p443
S's_0260'
p444
sS'TPS1'
p445
S'e_0065'
p446
sS'TPS3'
p447
S'e_0753'
p448
sS'TPS2'
p449
S'e_0179'
p450
sS'ribose-5-phosphate'
p451
S's_1408'
p452
sS'PDX1'
p453
S'e_0393'
p454
sS'COX12'
p455
S'e_0632'
p456
sS'COX13'
p457
S'e_0347'
p458
sS'ARG7'
p459
S'e_0729'
p460
sS'AAT2'
p461
S'e_0629'
p462
sS'AAT1'
p463
S'e_0574'
p464
sS'GDH1'
p465
S'e_0899'
p466
sS'GDH3'
p467
S'e_0016'
p468
sS'GDH2'
p469
S'e_0160'
p470
sS'ERG6'
p471
S'e_0699'
p472
sS'N-acetyl-L-glutamate'
p473
S's_1192'
p474
sS'ERG7'
p475
S'e_0440'
p476
sS'PPA2'
p477
S'e_0754'
p478
sS'ATP'
p479
S's_0434'
p480
sS'QCR2'
p481
S'e_0978'
p482
sS'ferricytochrome c'
p483
S's_0709'
p484
sS'3-phospho-hydroxypyruvate'
p485
S's_0258'
p486
sS'QCR6'
p487
S'e_0322'
p488
sS'GLK1'
p489
S'e_0106'
p490
sS'QCR8'
p491
S'e_0514'
p492
sS'QCR9'
p493
S'e_0389'
p494
sS'QCR7'
p495
S'e_0243'
p496
sS'Ser-tRNA(Ser)'
p497
S's_1428'
p498
sS'N-carbamoyl-L-aspartate'
p499
S's_1194'
p500
sS'phosphoenolpyruvate'
p501
S's_1360'
p502
sS'anthranilate'
p503
S's_0427'
p504
sS'D-ribulose 5-phosphate'
p505
S's_0577'
p506
sS'ERG9'
p507
S'e_0456'
p508
sS'GTP'
p509
S's_0785'
p510
sS'IMP'
p511
S's_0849'
p512
sS'ENO2'
p513
S'e_0454'
p514
sS'prephenate'
p515
S's_1377'
p516
sS'LYS1'
p517
S'e_0489'
p518
sS'LYS2'
p519
S'e_0062'
p520
sS'LYS4'
p521
S'e_0196'
p522
sS'phytosphingosine'
p523
S's_1366'
p524
sS'trehalose'
p525
S's_1520'
p526
sS'PDA1'
p527
S'e_0306'
p528
sS'INM1'
p529
S'e_0435'
p530
sS'PYK2'
p531
S'e_0895'
p532
sS'dATP'
p533
S's_0586'
p534
sS'3-methyl-2-oxobutanoate'
p535
S's_0232'
p536
sS'(1->6)-beta-D-glucan'
p537
S's_0004'
p538
sS'tRNA(Lys)'
p539
S's_1600'
p540
sS'Val-tRNA(Val)'
p541
S's_1561'
p542
sS'(S)-2,3-epoxysqualene'
p543
S's_0037'
p544
sS'CYC7'
p545
S'e_0255'
p546
sS'tRNA(Cys)'
p547
S's_1589'
p548
sS'acyl-CoA'
p549
S's_0380'
p550
sS'tRNA(Gln)'
p551
S's_1590'
p552
sS'CYC1'
p553
S'e_0531'
p554
sS'CIT2'
p555
S'e_0111'
p556
sS'CIT3'
p557
S'e_0947'
p558
sS'L-allysine'
p559
S's_0959'
p560
sS"3'-phospho-5'-adenylyl sulfate"
p561
S's_0201'
p562
sS"5'-phosphoribosyl-5-aminoimidazole"
p563
S's_0300'
p564
sS'LYS21'
p565
S'e_0146'
p566
sS'2-oxoadipic acid'
p567
S's_0176'
p568
sS'3-(imidazol-4-yl)-2-oxopropyl dihydrogen phosphate'
p569
S's_0207'
p570
sS'RIP1'
p571
S'e_0250'
p572
sS'L-asparagine'
p573
S's_0969'
p574
sS'VAS1'
p575
S'e_0372'
p576
sS'GLR1'
p577
S'e_0915'
p578
sS'IDH1'
p579
S'e_0771'
p580
sS'FAS1'
p581
S'e_0586'
p582
sS'SEC53'
p583
S'e_0314'
p584
sS'Ile-tRNA(Ile)'
p585
S's_0847'
p586
sS'PFK2'
p587
S'e_0743'
p588
sS'PFK1'
p589
S'e_0401'
p590
sS'farnesyl diphosphate'
p591
S's_0190'
p592
sS'(R)-5-phosphomevalonic acid'
p593
S's_0019'
p594
sS'CYT1'
p595
S'e_0848'
p596
sS'prenyl diphosphate'
p597
S's_1376'
p598
sS'URA10'
p599
S'e_0755'
p600
sS'tRNA(His)'
p601
S's_1594'
p602
sS'FBA1'
p603
S'e_0567'
p604
sS'inositol-P-ceramide D (C24)'
p605
S's_0918'
p606
sS'ENO1'
p607
S'e_0405'
p608
sS'AIM10'
p609
S'e_0296'
p610
sS'Lys-tRNA(Lys)'
p611
S's_1099'
p612
sS'ERG12'
p613
S'e_0745'
p614
sS'(2S)-2-isopropyl-3-oxosuccinate'
p615
S's_0010'
p616
sS'TSL1'
p617
S'e_0711'
p618
sS'ERG11'
p619
S'e_0424'
p620
sS'ACC1'
p621
S'e_0808'
p622
sS'SKN1'
p623
S'e_0379'
p624
sS'dolichyl phosphate'
p625
S's_0645'
p626
sS'tRNA(Glu)'
p627
S's_1591'
p628
sS'TKL2'
p629
S'e_0063'
p630
sS'TKL1'
p631
S'e_0962'
p632
sS'diglyceride'
p633
S's_0619'
p634
sS'TPI1'
p635
S'e_0175'
p636
sS'HXK1'
p637
S'e_0325'
p638
sS'HXK2'
p639
S'e_0355'
p640
sS'PMT5'
p641
S'e_0141'
p642
sS'decanoate'
p643
S's_0595'
p644
sS'PMT1'
p645
S'e_0142'
p646
sS'PMT3'
p647
S'e_0890'
p648
sS'PMT2'
p649
S'e_0010'
p650
sS'2-oxoglutarate'
p651
S's_0180'
p652
sS'SHM2'
p653
S'e_0638'
p654
sS'SHM1'
p655
S'e_0091'
p656
sS'PSD2'
p657
S'e_0382'
p658
sS'PSD1'
p659
S'e_0788'
p660
sS'lignoceric acid'
p661
S's_1084'
p662
sS'L-histidinol'
p663
S's_1010'
p664
sS'MET10'
p665
S'e_0321'
p666
sS'TGL2'
p667
S'e_0176'
p668
sS'TGL1'
p669
S'e_0578'
p670
sS'MET13'
p671
S'e_0340'
p672
sS'D-xylulose 5-phosphate'
p673
S's_0581'
p674
sS'TGL5'
p675
S'e_0851'
p676
sS'TGL4'
p677
S'e_0611'
p678
sS'L-valine'
p679
S's_1056'
p680
sS'IDH2'
p681
S'e_0862'
p682
sS'Gln-tRNA(Gln)'
p683
S's_0747'
p684
sS'GUS1'
p685
S'e_0353'
p686
sS'Gly-tRNA(Gly)'
p687
S's_0757'
p688
sS'THF'
p689
S's_1487'
p690
sS'THR4'
p691
S'e_0122'
p692
sS'URA5'
p693
S'e_0712'
p694
sS'THR1'
p695
S'e_0428'
p696
sS'URA6'
p697
S'e_0561'
p698
sS'URA7'
p699
S'e_0026'
p700
sS'URA4'
p701
S'e_0692'
p702
sS'L-glycine'
p703
S's_1003'
p704
sS'URA2'
p705
S'e_0508'
p706
sS'dUMP'
p707
S's_0654'
p708
sS'URA1'
p709
S'e_0594'
p710
sS'shikimate'
p711
S's_1429'
p712
sS'URA8'
p713
S'e_0540'
p714
sS'QCR10'
p715
S'e_0422'
p716
sS'4beta-methylzymosterol-4alpha-carboxylic acid'
p717
S's_0297'
p718
sS'TRX1 disulphide'
p719
S's_1620'
p720
sS'malonyl-CoA'
p721
S's_1101'
p722
sS'2-phospho-D-glyceric acid'
p723
S's_0188'
p724
sS'mannan'
p725
S's_1107'
p726
sS'STR2'
p727
S'e_0545'
p728
sS'FRS1'
p729
S'e_0639'
p730
sS'FRS2'
p731
S'e_0312'
p732
sS'octanoyl-CoA'
p733
S's_1255'
p734
sS'TSA2'
p735
S'e_0233'
p736
sS'ARO3'
p737
S'e_0169'
p738
sS'decanoyl-CoA'
p739
S's_0602'
p740
sS'cis-aconitate'
p741
S's_0516'
p742
sS'ALT1'
p743
S'e_0642'
p744
sS'5-phosphoribosylamine'
p745
S's_0327'
p746
sS'DOT5'
p747
S'e_0463'
p748
sS'D-glucose'
p749
S's_0565'
p750
sS'CDC19'
p751
S'e_0011'
p752
sS'HMG1'
p753
S'e_0708'
p754
sS'ARO8'
p755
S'e_0348'
p756
sS'1-phosphatidyl-1D-myo-inositol'
p757
S's_0089'
p758
sS'5-amino-6-(D-ribitylamino)uracil'
p759
S's_0314'
p760
sS'7-phospho-2-dehydro-3-deoxy-D-arabino-heptonic acid'
p761
S's_0349'
p762
sS'L-threonine'
p763
S's_1045'
p764
sS'PGK1'
p765
S'e_0113'
p766
sS'TRX2'
p767
S'e_0398'
p768
sS'TRX3'
p769
S'e_0124'
p770
sS'TRX1'
p771
S'e_0633'
p772
sS'geranyl diphosphate'
p773
S's_0745'
p774
sS'isocitrate'
p775
S's_0940'
p776
sS'tRNA(Arg)'
p777
S's_1583'
p778
sS'HIS4'
p779
S'e_0103'
p780
sS'HIS5'
p781
S'e_0476'
p782
sS'HIS6'
p783
S'e_0465'
p784
sS'HIS7'
p785
S'e_0087'
p786
sS'HIS1'
p787
S'e_0283'
p788
sS'HIS2'
p789
S'e_0320'
p790
sS'HIS3'
p791
S'e_0875'
p792
sS'2-acetyllactic acid'
p793
S's_0146'
p794
sS'(R)-mevalonate'
p795
S's_0028'
p796
sS'10-formyl-THF'
p797
S's_0120'
p798
sS'hydrogen sulfide'
p799
S's_0841'
p800
sS'tRNA(Trp)'
p801
S's_1610'
p802
sS'dTMP'
p803
S's_0649'
p804
sS'NADH'
p805
S's_1203'
p806
sS'UMP'
p807
S's_1545'
p808
sS'ceramide-1 (C24)'
p809
S's_0475'
p810
sS'L-cysteine'
p811
S's_0981'
p812
sS'ASN2'
p813
S'e_0376'
p814
sS'5-phosphoribosyl-ATP'
p815
S's_0326'
p816
sS'ASN1'
p817
S'e_0970'
p818
sS'COB'
p819
S'e_0004'
p820
sS'but-1-ene-1,2,4-tricarboxylic acid'
p821
S's_0454'
p822
sS'N(2)-acetyl-L-ornithine'
p823
S's_1182'
p824
sS'4alpha-methylzymosterol'
p825
S's_0296'
p826
sS'5,10-methenyl-THF'
p827
S's_0304'
p828
sS'alpha,alpha-trehalose 6-phosphate'
p829
S's_0409'
p830
sS'D-erythrose 4-phosphate'
p831
S's_0551'
p832
sS'oxaloacetate'
p833
S's_1271'
p834
sS'CIT1'
p835
S'e_0805'
p836
sS'YNL247W'
p837
S'e_0793'
p838
sS'1-C-(indol-3-yl)glycerol 3-phosphate'
p839
S's_0086'
p840
sS'LPD1'
p841
S'e_0311'
p842
sS'DPM1'
p843
S'e_0976'
p844
sS'TAL1'
p845
S'e_0684'
p846
sS'ERG25'
p847
S'e_0367'
p848
sS'GCV1'
p849
S'e_0167'
p850
sS'GCV2'
p851
S'e_0741'
p852
sS'GCV3'
p853
S'e_0012'
p854
sS'NADPH'
p855
S's_1212'
p856
sS'4-phospho-L-aspartate'
p857
S's_0295'
p858
sS'KEI1'
p859
S'e_0220'
p860
sS'APA1'
p861
S'e_0107'
p862
sS'PYC2'
p863
S'e_0084'
p864
sS'formate'
p865
S's_0723'
p866
sS'GRX2'
p867
S'e_0242'
p868
sS'CDS1'
p869
S'e_0045'
p870
sS'GRX1'
p871
S'e_0104'
p872
sS'CDP'
p873
S's_0467'
p874
sS'BNA3'
p875
S'e_0496'
p876
sS'coenzyme A'
p877
S's_0529'
p878
sS'laurate'
p879
S's_1065'
p880
sS'palmitate'
p881
S's_1286'
p882
sS'O-acetyl-L-homoserine'
p883
S's_1233'
p884
sS'dCMP'
p885
S's_0589'
p886
sS'keto-phenylpyruvate'
p887
S's_0951'
p888
sS'MDH1'
p889
S'e_0571'
p890
sS'GPD2'
p891
S'e_0827'
p892
sS'L-proline'
p893
S's_1035'
p894
sS'MET22'
p895
S'e_0830'
p896
sS'glutathione disulfide'
p897
S's_0754'
p898
sS'L-aspartate'
p899
S's_0973'
p900
sS'COX8'
p901
S'e_0690'
p902
sS'COX9'
p903
S'e_0136'
p904
sS'glycogen'
p905
S's_0773'
p906
sS'COX2'
p907
S'e_0006'
p908
sS'COX3'
p909
S'e_0007'
p910
sS'MES1'
p911
S'e_0409'
p912
sS'COX1'
p913
S'e_0001'
p914
sS'COX6'
p915
S'e_0436'
p916
sS'COX7'
p917
S'e_0752'
p918
sS'Cys-tRNA(Cys)'
p919
S's_0542'
p920
sS'PDB1'
p921
S'e_0085'
p922
sS'dGMP'
p923
S's_0615'
p924
sS'Thr-tRNA(Thr)'
p925
S's_1491'
p926
sS'DPP1'
p927
S'e_0203'
p928
sS'5-phospho-ribosyl-glycineamide'
p929
S's_0325'
p930
sS'RIB3'
p931
S'e_0237'
p932
sS'phosphatidyl-N,N-dimethylethanolamine'
p933
S's_1342'
p934
sS'YPC1'
p935
S'e_0077'
p936
sS'RIB5'
p937
S'e_0090'
p938
sS'RIB4'
p939
S'e_0841'
p940
sS'isopentenyl diphosphate'
p941
S's_0943'
p942
sS'UTP'
p943
S's_1559'
p944
sS'sphinganine'
p945
S's_1445'
p946
sS'D-erythro-1-(imidazol-4-yl)glycerol 3-phosphate'
p947
S's_0550'
p948
sS'L-tyrosine'
p949
S's_1051'
p950
sS'PRS3'
p951
S'e_0418'
p952
sS'2-hydroxy-3-oxobutyl phosphate'
p953
S's_0158'
p954
sS'L-arginine'
p955
S's_0965'
p956
sS'homocitrate'
p957
S's_0835'
p958
sS'PRS5'
p959
S'e_0829'
p960
sS'PRS4'
p961
S'e_0030'
p962
sS'Phe-tRNA(Phe)'
p963
S's_1314'
p964
sS'CDC60'
p965
S'e_0926'
p966
sS'FUM1'
p967
S'e_0940'
p968
sS'LAT1'
p969
S'e_0775'
p970
sS'NAD'
p971
S's_1198'
p972
sS'ALE1'
p973
S'e_0869'
p974
sS'L-citrulline'
p975
S's_0979'
p976
sS'GLG1'
p977
S'e_0603'
p978
sS'GLG2'
p979
S'e_0510'
p980
sS'Pro-tRNA(Pro)'
p981
S's_1379'
p982
sS'UGP1'
p983
S'e_0565'
p984
sS'HMG2'
p985
S'e_0697'
p986
sS'INM2'
p987
S'e_0204'
p988
sS'O-phospho-L-homoserine'
p989
S's_1238'
p990
sS'ADE17'
p991
S'e_0736'
p992
sS'tRNA(Ile)'
p993
S's_1596'
p994
sS'tRNA(Thr)'
p995
S's_1608'
p996
sS'ERG20'
p997
S'e_0515'
p998
sS'ERG27'
p999
S'e_0644'
p1000
sS'ERG26'
p1001
S'e_0326'
p1002
sS'acetyl-CoA'
p1003
S's_0373'
p1004
sS'ERG24'
p1005
S'e_0800'
p1006
sS'3-dehydro-4-methylzymosterol'
p1007
S's_0209'
p1008
sS'TYS1'
p1009
S'e_0390'
p1010
sS'L-lysine'
p1011
S's_1025'
p1012
sS'(2R,3S)-3-isopropylmalate'
p1013
S's_0009'
p1014
sS'SAH1'
p1015
S'e_0280'
p1016
sS'GDP-alpha-D-mannose'
p1017
S's_0743'
p1018
sS'dGDP'
p1019
S's_0613'
p1020
sS'LYS9'
p1021
S'e_0813'
p1022
sS'IDI1'
p1023
S'e_0922'
p1024
sS'KRS1'
p1025
S'e_0171'
p1026
sS'5-O-(1-carboxyvinyl)-3-phosphoshikimic acid'
p1027
S's_0324'
p1028
sS'5-methyltetrahydrofolate'
p1029
S's_0322'
p1030
sS'ARG5,6'
p1031
S'e_0290'
p1032
sS'GUA1'
p1033
S'e_0746'
p1034
sS'GLN1'
p1035
S'e_0955'
p1036
sS"5'-phosphoribosyl-N-formylglycineamidine"
p1037
S's_0302'
p1038
sS'tRNA(Asp)'
p1039
S's_1587'
p1040
sS'YDR341C'
p1041
S'e_0214'
p1042
sS'dAMP'
p1043
S's_0584'
p1044
sS'TGL3'
p1045
S'e_0765'
p1046
sS'FEN1'
p1047
S'e_0117'
p1048
sS'L-tryptophan'
p1049
S's_1048'
p1050
sS'2,5-diamino-4-hydroxy-6-(5-phosphoribosylamino)pyrimidine'
p1051
S's_0141'
p1052
sS'THS1'
p1053
S'e_0470'
p1054
sS'2-acetamido-5-oxopentanoate'
p1055
S's_0145'
p1056
sS'SCT1'
p1057
S'e_0020'
p1058
sS'ergosterol'
p1059
S's_0666'
p1060
sS'sulphite'
p1061
S's_1469'
p1062
sS'5,10-methylenetetrahydrofolate'
p1063
S's_0306'
p1064
sS'CPA2'
p1065
S'e_0542'
p1066
sS'CPA1'
p1067
S'e_0888'
p1068
sS'5-[(5-phospho-1-deoxy-D-ribulos-1-ylamino)methylideneamino]-1-(5-phospho-D-ribosyl)imidazole-4-carboxamide'
p1069
S's_0312'
p1070
sS'NCP1'
p1071
S'e_0434'
p1072
sS'SER33'
p1073
S'e_0469'
p1074
sS'Asn-tRNA(Asn)'
p1075
S's_0430'
p1076
sS'AMP'
p1077
S's_0423'
p1078
sS'NDI1'
p1079
S'e_0714'
p1080
sS'MIS1'
p1081
S'e_0057'
p1082
sS'SER2'
p1083
S'e_0397'
p1084
sS'SER3'
p1085
S'e_0294'
p1086
sS'HYR1'
p1087
S'e_0490'
p1088
sS'SER1'
p1089
S'e_0872'
p1090
sS'6,7-dimethyl-8-(1-D-ribityl)lumazine'
p1091
S's_0328'
p1092
sS'PGM1'
p1093
S'e_0576'
p1094
sS'PGM2'
p1095
S'e_0733'
p1096
sS'PGM3'
p1097
S'e_0757'
p1098
sS'RPE1'
p1099
S'e_0506'
p1100
sS'DFR1'
p1101
S'e_0880'
p1102
sS'ACO1'
p1103
S'e_0675'
p1104
sS'L-serine'
p1105
S's_1039'
p1106
sS'LYS12'
p1107
S'e_0472'
p1108
sS'MET2'
p1109
S'e_0799'
p1110
sS'phosphatidyl-L-serine'
p1111
S's_1337'
p1112
sS'MET6'
p1113
S'e_0298'
p1114
sS'D-glucose 6-phosphate'
p1115
S's_0568'
p1116
sS'MET5'
p1117
S'e_0547'
p1118
sS'ARG1'
p1119
S'e_0826'
p1120
sS'ARG3'
p1121
S'e_0499'
p1122
sS'ARG4'
p1123
S'e_0426'
p1124
sS'CDC21'
p1125
S'e_0850'
p1126
sS'phosphatidate'
p1127
S's_1331'
p1128
sS"adenosine 3',5'-bismonophosphate"
p1129
S's_0390'
p1130
sS'SUR2'
p1131
S'e_0206'
p1132
sS'BAT2'
p1133
S'e_0550'
p1134
sS'BAT1'
p1135
S'e_0457'
p1136
sS'GLN4'
p1137
S'e_0867'
p1138
sS"orotidine 5'-(dihydrogen phosphate)"
p1139
S's_1270'
p1140
sS'FAA4'
p1141
S'e_0750'
p1142
sS'FAA1'
p1143
S'e_0889'
p1144
sS'FAA2'
p1145
S'e_0273'
p1146
sS'FAA3'
p1147
S'e_0462'
p1148
sS'D-glucose 1-phosphate'
p1149
S's_0567'
p1150
sS'ACH1'
p1151
S'e_0022'
p1152
sS'tRNA(Met)'
p1153
S's_1602'
p1154
sS'COR1'
p1155
S'e_0028'
p1156
sS'TRP2'
p1157
S'e_0297'
p1158
sS'TRP3'
p1159
S'e_0591'
p1160
sS'TRP1'
p1161
S'e_0165'
p1162
sS'TRP4'
p1163
S'e_0219'
p1164
sS'TRP5'
p1165
S'e_0330'
p1166
sS'ADP'
p1167
S's_0394'
p1168
sS'FAS2'
p1169
S'e_0934'
p1170
sS'(R)-5-diphosphomevalonic acid'
p1171
S's_0018'
p1172
sS'L-histidine'
p1173
S's_1006'
p1174
sS'YND1'
p1175
S'e_0271'
p1176
sS'PHA2'
p1177
S'e_0802'
p1178
sS'GMP'
p1179
S's_0782'
p1180
sS'dADP'
p1181
S's_0582'
p1182
sS'GDP'
p1183
S's_0739'
p1184
sS'LCB1'
p1185
S'e_0761'
p1186
sS'IMD4'
p1187
S'e_0705'
p1188
sS'IMD2'
p1189
S'e_0458'
p1190
sS'IMD3'
p1191
S'e_0693'
p1192
sS'homoisocitrate'
p1193
S's_0836'
p1194
sS'xanthosine-5-phosphate'
p1195
S's_1565'
p1196
sS'tRNA(Gly)'
p1197
S's_1593'
p1198
sS'ALA1'
p1199
S'e_0894'
p1200
sS'phosphate'
p1201
S's_1324'
p1202
sS'adenosine'
p1203
S's_0386'
p1204
sS'L-isoleucine'
p1205
S's_1016'
p1206
sS'Trp-tRNA(Trp)'
p1207
S's_1527'
p1208
sS'3-dehydroquinate'
p1209
S's_0210'
p1210
sS'acetate'
p1211
S's_0362'
p1212
sS'PRS2'
p1213
S'e_0299'
p1214
sS'GRX3'
p1215
S'e_0181'
p1216
sS'ferrocytochrome c'
p1217
S's_0710'
p1218
sS'1-pyrroline-5-carboxylate'
p1219
S's_0118'
p1220
sS'ergosta-5,7,24(28)-trien-3beta-ol'
p1221
S's_0664'
p1222
sS'GRX5'
p1223
S'e_0910'
p1224
sS'GRX4'
p1225
S'e_0304'
p1226
sS'SCS7'
p1227
S'e_0756'
p1228
sS'tRNA(Pro)'
p1229
S's_1606'
p1230
sS'AHP1'
p1231
S'e_0645'
p1232
sS'tRNA(Phe)'
p1233
S's_1604'
p1234
sS'dihydrofolic acid'
p1235
S's_0625'
p1236
sS'ADE16'
p1237
S'e_0631'
p1238
sS'dihydroxyacetone phosphate'
p1239
S's_0629'
p1240
sS'ADE12'
p1241
S'e_0791'
p1242
sS'ADE13'
p1243
S'e_0686'
p1244
sS'YNK1'
p1245
S'e_0568'
p1246
sS'PMI40'
p1247
S'e_0269'
p1248
sS'ubiquinone-6'
p1249
S's_1537'
p1250
sS'ERG13'
p1251
S'e_0716'
p1252
sS'phosphatidylethanolamine'
p1253
S's_1351'
p1254
sS'AUR1'
p1255
S'e_0557'
p1256
sS'LYS5'
p1257
S'e_0343'
p1258
sS'L-2-aminoadipate'
p1259
S's_0953'
p1260
sS'ammonium'
p1261
S's_0420'
p1262
sS'LEU4'
p1263
S'e_0778'
p1264
sS'LEU2'
p1265
S'e_0101'
p1266
sS'LEU1'
p1267
S'e_0328'
p1268
sS'lanosterol'
p1269
S's_1059'
p1270
sS'CDP-diacylglycerol'
p1271
S's_0471'
p1272
sS'LEU9'
p1273
S'e_0855'
p1274
sS'tRNA(Asn)'
p1275
S's_1585'
p1276
sS'GRS2'
p1277
S'e_0963'
p1278
sS'GRS1'
p1279
S'e_0064'
p1280
sS'DUT1'
p1281
S'e_0089'
p1282
sS'dUTP'
p1283
S's_0656'
p1284
sS'L-glutamine'
p1285
S's_0999'
p1286
sS'D-mannose 1-phosphate'
p1287
S's_0573'
p1288
sS'L-phenylalanine'
p1289
S's_1032'
p1290
sS'MVD1'
p1291
S'e_0812'
p1292
sS'riboflavin'
p1293
S's_1405'
p1294
sS'ADO1'
p1295
S'e_0541'
p1296
sS'citrate'
p1297
S's_0522'
p1298
s.