(dp0
S'G\xce\xb2\xce\xb3'
p1
S'Gbc'
p2
sS'G\xce\xb1GDP'
p3
S'GaGDP'
p4
sS'Fus3PP'
p5
S'Fus3PP'
p6
sS'Ste11'
p7
S'Ste11'
p8
sS'Ste12'
p9
S'Ste12'
p10
sS'Bar1'
p11
S'Bar1'
p12
sS'Bar1active'
p13
S'Bar1a'
p14
sS'G\xce\xb1GTP'
p15
S'GaGTP'
p16
sS'Ste2active'
p17
S'Ste2a'
p18
sS'G\xce\xb1\xce\xb2\xce\xb3'
p19
S'Gabc'
p20
sS'Sst2'
p21
S'Sst2'
p22
sS'\xce\xb1-factor'
p23
S'alpha'
p24
sS'complexD'
p25
S'complexD'
p26
sS'complexE'
p27
S'complexE'
p28
sS'complexF'
p29
S'complexF'
p30
sS'complexG'
p31
S'complexG'
p32
sS'complexA'
p33
S'complexA'
p34
sS'complexB'
p35
S'complexB'
p36
sS'complexC'
p37
S'complexC'
p38
sS'complexL'
p39
S'complexL'
p40
sS'complexM'
p41
S'complexM'
p42
sS'complexN'
p43
S'complexN'
p44
sS'complexH'
p45
S'complexH'
p46
sS'complexI'
p47
S'complexI'
p48
sS'Ste12active'
p49
S'Ste12a'
p50
sS'complexK'
p51
S'complexK'
p52
sS'Fus3'
p53
S'Fus3'
p54
sS'Bar1activeEx'
p55
S'Bar1aex'
p56
sS'Ste20'
p57
S'Ste20'
p58
sS'Far1ubiquitin'
p59
S'Far1U'
p60
sS'Far1PP'
p61
S'Far1PP'
p62
sS'Ste2'
p63
S'Ste2'
p64
sS'p'
p65
g65
sS'Cdc28'
p66
S'Cdc28'
p67
sS'Far1'
p68
S'Far1'
p69
sS'Ste7'
p70
S'Ste7'
p71
sS'Ste5'
p72
S'Ste5'
p73
s.