(dp0
S'pRBpp'
p1
S'pRBpp'
p2
sS'E2F1'
p3
S'E2F1'
p4
sS'pRB'
p5
S'pRB'
p6
sS'CycEa/cdk2(a)'
p7
S'CycEa'
p8
sS'AP1'
p9
S'AP1'
p10
sS'CycE/cdk2(i)'
p11
S'CycEi'
p12
sS'CycD/cdk4,6(i)'
p13
S'CycDi'
p14
sS'pRBp'
p15
S'pRBp'
p16
sS'CycD/cdk4,6(a)'
p17
S'CycDa'
p18
s.