(dp0
S'MKK-P_MKKK-P'
p1
S'species_11'
p2
sS'MKKK-P'
p3
S'species_8'
p4
sS'MKK'
p5
S'species_7'
p6
sS'MK_MKK-PP'
p7
S'species_3'
p8
sS'MK-PP'
p9
S'species_6'
p10
sS'MKK-P'
p11
S'species_10'
p12
sS'Sig'
p13
S'species_18'
p14
sS'MKKK'
p15
S'species_16'
p16
sS'MK-P_P2'
p17
S'species_22'
p18
sS'MK-P'
p19
S'species_4'
p20
sS'MKKK_P1'
p21
S'species_27'
p22
sS'MK_P2'
p23
S'species_23'
p24
sS'MK-P_MKK-PP'
p25
S'species_5'
p26
sS'MKK-PP_P2'
p27
S'species_12'
p28
sS'MKK-PP_P1'
p29
S'species_24'
p30
sS'P2'
p31
S'species_13'
p32
sS'P1'
p33
S'species_20'
p34
sS'MK-PP_P2'
p35
S'species_21'
p36
sS'MKKK-P_P1'
p37
S'species_19'
p38
sS'MKK-P_P1'
p39
S'species_25'
p40
sS'MKK_P1'
p41
S'species_26'
p42
sS'MKKK_Sig'
p43
S'species_17'
p44
sS'MKK-PP'
p45
S'species_2'
p46
sS'MKK_P2'
p47
S'species_15'
p48
sS'MKK-P_P2'
p49
S'species_14'
p50
sS'MK'
p51
S'species_1'
p52
sS'MKK_MKKK-P'
p53
S'species_9'
p54
s.