(dp0
S'GDP'
p1
S'GDP'
p2
sS'D'
p3
S'agonist'
p4
sS'G_GTP'
p5
S'G_GTP'
p6
sS'DR'
p7
S'DR'
p8
sS'DRG_GTP'
p9
S'DRG_GTP'
p10
sS'GTP'
p11
S'GTP'
p12
sS'R'
p13
S'Recptor'
p14
sS'G_GDP'
p15
S'G_GDP'
p16
sS'DRG_GDP'
p17
S'DRG_GDP'
p18
sS'DRG'
p19
S'DRG'
p20
s.