(dp0
S'PCS'
p1
S'species_32'
p2
sS'LCAT'
p3
S'species_31'
p4
sS'DC'
p5
S'species_1'
p6
sS'HDLC'
p7
S'species_30'
p8
sS'HNHDLS'
p9
S'species_16'
p10
sS'VLDLC'
p11
S'species_17'
p12
sS'HSL'
p13
S'species_24'
p14
sS'INHDLS'
p15
S'species_9'
p16
sS'HFC'
p17
S'species_7'
p18
sS'IBS'
p19
S'species_5'
p20
sS'HBS'
p21
S'species_4'
p22
sS'PCE'
p23
S'species_28'
p24
sS'NHDL'
p25
S'species_10'
p26
sS'CEH'
p27
S'species_15'
p28
sS'IDLC'
p29
S'species_21'
p30
sS'PLDLRsS'
p31
S'species_26'
p32
sS'SRB1'
p33
S'species_34'
p34
sS'HCS'
p35
S'species_12'
p36
sS'LDLC'
p37
S'species_23'
p38
sS'CETP'
p39
S'species_33'
p40
sS'EC'
p41
S'species_8'
p42
sS'HLDLRs'
p43
S'species_18'
p44
sS'PLDLRD'
p45
S'species_27'
p46
sS'LPL'
p47
S'species_22'
p48
sS'HCE'
p49
S'species_13'
p50
sS'ICS'
p51
S'species_3'
p52
sS'IC'
p53
S'species_2'
p54
sS'HLDLRsS'
p55
S'species_19'
p56
sS'PFC'
p57
S'species_11'
p58
sS'PLDLRs'
p59
S'species_25'
p60
sS'ACAT'
p61
S'species_14'
p62
sS'EBS'
p63
S'species_6'
p64
sS'HLDLRD'
p65
S'species_20'
p66
sS'PSS'
p67
S'species_29'
p68
s.