(dp0
S'CRP'
p1
S'mwd5313618_89eb_4c8c_bc82_66f10f966349'
p2
sS'Ab'
p3
S'mwbc2f5464_81e5_43fd_8b39_f5a2756af72f'
p4
sS'Ab_sR_IL6'
p5
S'mwedc1bc00_adf7_4144_a1c2_7dc1a9565dc2'
p6
sS'R_IL6_gp130'
p7
S'mw824bc3d4_1ac3_4912_9b51_8f14ff1c96b9'
p8
sS'CRP (% of baseline)'
p9
S'CRP____of_baseline'
p10
sS'sR'
p11
S'mwd31f52cc_04e7_40e0_885f_c7b2d9e62215'
p12
sS'geneProduct'
p13
S'mw0083d743_836f_4238_a17f_4602193d5bc0'
p14
sS'sR_IL6_sgp130'
p15
S'mw6335d5d7_c7b0_4bc0_b883_f7ee4915c2c3'
p16
sS'sgp130'
p17
S'mwd65b5b39_dc1b_4e77_a999_67277a880e5e'
p18
sS'Ab_sR'
p19
S'mw5d764bb8_5693_4ac8_9557_f65992cc5eb0'
p20
sS'gp130'
p21
S'mw8c9107e6_f51d_442d_b2dc_2bfdbb8482ca'
p22
sS'sR_IL6'
p23
S'mw7becb5fe_8da8_4285_a821_0d77ad811b62'
p24
sS'IL6'
p25
S'mw2c9b0499_3325_4394_8af3_bbf653a944a0'
p26
sS'CRP Suppression (%)'
p27
S'CRP_Suppression___'
p28
sS'pSTAT3'
p29
S'mw48867e93_f170_44e8_ac7a_185b23e1bf3b'
p30
sS'R'
p31
S'mw10315fa3_6f13_4618_bda8_a8694bd3c374'
p32
sS'Ractive'
p33
S'mw6cce2109_0e32_4dd9_98ec_41173e8ef07d'
p34
sS'Ab_R'
p35
S'mw772cbf20_3fc1_4800_ae59_77884f1ae333'
p36
sS'STAT3'
p37
S'mw2b255f94_8018_4b99_bde8_918eeac45446'
p38
sS'R_IL6'
p39
S'mw7d86cc23_a1af_44c3_bdb9_71e9b1bb2a83'
p40
sS'CRPExtracellular'
p41
S'mw36ea78c1_ed71_4def_96d3_857a442d7195'
p42
s.