(dp0
S'(ErbB4:ErbB2)_P:GAP:(Shc_P):Grb2:Sos'
p1
S'c368'
p2
sS'(ErbB1:ErbB3)_P:GAP:Grb2:Gab1_P:PI3K:PIP2'
p3
S'c450'
p4
sS'ErbB1:Inh'
p5
S'c286'
p6
sS'(ErbB1:ErbB3)_P:GAP:Grb2:Sos:(Ras:GDP):cPP'
p7
S'c250'
p8
sS'ERK_P:MEK_PP'
p9
S'c58'
p10
sS'(ErbB4:ErbB2)_P:GAP:(Shc_P):Grb2:Sos:(Ras:GDP)'
p11
S'c374'
p12
sS'PIP3:Shp'
p13
S'c462'
p14
sS'2(EGF:ErbB1)_P'
p15
S'c8'
p16
sS'(ErbB3:ErbB2)_P:GAP:Grb2:Gab1'
p17
S'c439'
p18
sS'(ErbB1:ErbB4)_P:GAP:(Shc_P):Grb2:Sos:(Ras:GTP):cPP'
p19
S'c224'
p20
sS'2(EGF:ErbB1)_P:GAP:Grb2:Sos:(Ras:GDP):cPP'
p21
S'c89'
p22
sS'(ErbB1:ErbB3)_P:GAP:Grb2:Sos:(Ras:GTP)'
p23
S'c256'
p24
sS'(ErbB1:ErbB2)_P:GAP'
p25
S'c151'
p26
sS'(Shc_P)'
p27
S'c40'
p28
sS'2(EGF:ErbB1)_P:GAP:Grb2:Sos'
p29
S'c19'
p30
sS'2(ErbB2)_P:GAP:Grb2:Gab1:ATP'
p31
S'c133'
p32
sS'(EGF:ErbB1:Inh::EGF:ErbB1_h:ATP)-HalfActive'
p33
S'c556'
p34
sS'2(EGF:ErbB1)_P:RTK_Pase'
p35
S'c415'
p36
sS'(ErbB1:ErbB3)_P:GAP:Grb2:Gab1'
p37
S'c428'
p38
sS'(ErbB3:ErbB2)_P:GAP:Grb2:Sos:(Ras:GTP)'
p39
S'c401'
p40
sS'AKT_P'
p41
S'c112'
p42
sS'PTEN'
p43
S'c279'
p44
sS'(ErbB1:ErbB2)_P:GAP:(Shc_P):Grb2:Sos:cPP'
p45
S'c204'
p46
sS'(ErbB1:ErbB3)_P:GAP:Grb2:Gab1_P:ERK_PP_i'
p47
S'c437'
p48
sS'(ErbB3:ErbB2)_P:GAP:Grb2:Sos'
p49
S'c389'
p50
sS'2(EGF:ErbB1)_P:GAP:Grb2:Gab1:ATP'
p51
S'c136'
p52
sS'(MEK_P:Pase2)_i'
p53
S'c79'
p54
sS'(ErbB3:ErbB2)_P:GAP:(Shc_P):Grb2:Sos:(Ras:GDP)'
p55
S'c371'
p56
sS'(EGF:ErbB1:Inh::EGF:ErbB1_h:Inh)'
p57
S'c554'
p58
sS'(HRG:ErbB3:ErbB1):ATP'
p59
S'c137'
p60
sS'(EGF:ErbB1:ATP::EGF:ErbB1:Inh)'
p61
S'c500'
p62
sS'2(EGF:ErbB1)_P:GAP:Grb2:cPP'
p63
S'c7'
p64
sS'2(EGF:ErbB1)_P:GAP:Grb2:Sos:(Ras:GTP):cPP'
p65
S'c90'
p66
sS'((HRG:ErbB4):ErbB2):ATP'
p67
S'c170'
p68
sS'ErbB3/4:ErbB2:Gab1_P#'
p69
S'c491'
p70
sS'(ErbB1:ErbB4)_P:GAP:Grb2:Sos:(Ras:GDP):cPP'
p71
S'c251'
p72
sS'AKT:P:P:Pase4'
p73
S'c498'
p74
sS'(MEK:Raf_P)_i'
p75
S'c74'
p76
sS'(ErbB3:ErbB2)_P:GAP:Grb2:Gab1_P:PI3K'
p77
S'c405'
p78
sS'(ErbB3:ErbB2)_P:GAP:Shc'
p79
S'c349'
p80
sS'2(EGF:ErbB1)_P:GAP:Grb2:Sos:(Ras:GDP)'
p81
S'c20'
p82
sS'(HRG:ErbB3)'
p83
S'c157'
p84
sS'EGF:ErbB1_P'
p85
S'c330'
p86
sS'(ErbB3:ErbB2)_P:GAP:Grb2:Sos:(Ras:GDP):cPP'
p87
S'c394'
p88
sS'(ErbB1:ErbB2)_P:GAP:(Shc_P):Grb2:cPP'
p89
S'c195'
p90
sS'(ErbB4:ErbB2)_P:GAP:Grb2:Sos:(Ras:GDP):cPP'
p91
S'c397'
p92
sS'(ERK_PP:Pase3)_i'
p93
S'c84'
p94
sS'(EGF:ErbB1:ATP::EGF:ErbB1_h:ATP)'
p95
S'c550'
p96
sS'ErbB3:ErbB2:Inh'
p97
S'c510'
p98
sS'(HRG:ErbB4)'
p99
S'c158'
p100
sS'(ErbB3:ErbB2)_P:GAP'
p101
S'c343'
p102
sS'(ErbB1:ErbB3)_P:GAP:Grb2:Gab1_P'
p103
S'c409'
p104
sS'AKT'
p105
S'c107'
p106
sS'ErbB1_h:ATP'
p107
S'c530'
p108
sS'(EGF:ErbB1:ErbB3)'
p109
S'c160'
p110
sS'(ErbB1:ErbB2)_P:GAP:Grb2:Sos:(Ras:GDP):cPP'
p111
S'c249'
p112
sS'(ErbB3:ErbB2)_P'
p113
S'c337'
p114
sS'MEK_P:Pase2'
p115
S'c54'
p116
sS'2(EGF:ErbB1):Gab1_P#'
p117
S'c488'
p118
sS'Ras:GDP'
p119
S'c26'
p120
sS'ErbB2:ErbB2_P:ATP'
p121
S'c129'
p122
sS'(ErbB1:ErbB2)_P:GAP:Grb2:Gab1_P:ERK_PP'
p123
S'c433'
p124
sS'(EGF:ErbB1:ErbB4):ATP'
p125
S'c125'
p126
sS'ErbB4:Inh'
p127
S'c512'
p128
sS'2(ErbB2)_P:GAP:(Shc_P):Grb2:cPP'
p129
S'c301'
p130
sS'PI3K'
p131
S'c455'
p132
sS'2(EGF:ErbB1)_P:GAP:Grb2:Sos:(Ras:GTP)'
p133
S'c21'
p134
sS'(Ras_activated:GTP)_i'
p135
S'c71'
p136
sS'Inh'
p137
S'c285'
p138
sS'2(EGF:ErbB1)_P:GAP:Grb2:(Gab1_P#)'
p139
S'c486'
p140
sS'(ErbB4:ErbB2)_P:GAP:Grb2:Gab1_P:PI3K'
p141
S'c408'
p142
sS'ErbB4:Inh:ErbB2'
p143
S'c513'
p144
sS'(ErbB1:ErbB3)_P:GAP:Grb2:Sos:(Ras:GDP)'
p145
S'c247'
p146
sS'ERK'
p147
S'c55'
p148
sS'(ErbB1:ErbB4)_P'
p149
S'c164'
p150
sS'2(EGF:ErbB1)_P:GAP:Grb2:Gab1_P:PI3K:PIP2'
p151
S'c448'
p152
sS'(ErbB1:ErbB4)_P:GAP'
p153
S'c153'
p154
sS'(ErbB3:ErbB2)_P:GAP:(Shc_P):Grb2'
p155
S'c359'
p156
sS'(ERK_P:Pase3)_i'
p157
S'c85'
p158
sS'2(EGF:ErbB1)_P:GAP:Grb2:(Sos_P)'
p159
S'c100'
p160
sS'(Shc_P):Grb2:Sos'
p161
S'c38'
p162
sS'(ErbB1:ErbB3)_P:GAP:Shc'
p163
S'c175'
p164
sS'((ERK_PP):Sos)_i'
p165
S'c102'
p166
sS'ErbB4:ErbB2:Inh'
p167
S'c511'
p168
sS'(ErbB4:ErbB2)_P:GAP:(Shc_P)'
p169
S'c356'
p170
sS'2(ErbB2)_P:GAP:Grb2:Gab1_P:PI3K:Ras:GDP'
p171
S'c268'
p172
sS'2(ErbB2)_P:GAP:Grb2:Gab1_P:PI3K'
p173
S'c324'
p174
sS'MEK_P'
p175
S'c49'
p176
sS'PIP3:AKT'
p177
S'c108'
p178
sS'MEK:Raf_P'
p179
S'c48'
p180
sS'(ErbB4:ErbB2)_P:GAP'
p181
S'c346'
p182
sS'2(EGF:ErbB1):ATP'
p183
S'c126'
p184
sS'(ErbB4:ErbB2)_P:GAP:(Shc_P):Grb2:cPP'
p185
S'c361'
p186
sS'(ErbB4:ErbB2)'
p187
S'c340'
p188
sS'(ErbB1:ErbB3)_P:GAP:Grb2:Gab1:ATP'
p189
S'c131'
p190
sS'(HRG:ErbB3):ErbB2)'
p191
S'c421'
p192
sS'(ErbB1:ErbB4)_P:GAP:Grb2:Sos:(Ras:GTP)'
p193
S'c257'
p194
sS'(ErbB1:ErbB2)_P'
p195
S'c162'
p196
sS'EGF'
p197
S'c16'
p198
sS'(ErbB4:ErbB2)_P:GAP:Grb2:Gab1:ATP'
p199
S'c135'
p200
sS'2(EGF:ErbB1)_P:GAP:Grb2:Sos_P'
p201
S'c99'
p202
sS'(ErbB1:ErbB4)_P:RTK_Pase'
p203
S'c282'
p204
sS'(ErbB3:ErbB2)_P:GAP:Grb2:Gab1_P:PI3K:(PIP2)4'
p205
S'c469'
p206
sS'(ErbB1:ErbB3)_P:GAP:Grb2'
p207
S'c229'
p208
sS'(ErbB1:ErbB3)_P:GAP:(Shc_P):Grb2:Sos:cPP'
p209
S'c205'
p210
sS'(ErbB1:ErbB4)_P:GAP:(Shc_P):Grb2:Sos:(Ras:GDP)'
p211
S'c212'
p212
sS'(ErbB1:ErbB4)_P:GAP:Shc'
p213
S'c176'
p214
sS'PIP3:AKT:PDK1'
p215
S'c110'
p216
sS'(ErbB3:ErbB2)_P:GAP:Grb2:Gab1:ATP'
p217
S'c134'
p218
sS'Shp'
p219
S'c461'
p220
sS'2(ErbB2)_P:GAP:Grb2:Gab1_P:ERK_PP_i'
p221
S'c475'
p222
sS'2(EGF:ErbB1)_P:GAP:(Shc_P):Grb2:cPP'
p223
S'c91'
p224
sS'Shc'
p225
S'c31'
p226
sS'HRG'
p227
S'c514'
p228
sS'Raf'
p229
S'c41'
p230
sS'(MEK_P)_i'
p231
S'c75'
p232
sS'(ERK_PP):Sos'
p233
S'c101'
p234
sS'(Ras:GTP)_i'
p235
S'c69'
p236
sS'(HRG:ErbB3:ErbB1)'
p237
S'c518'
p238
sS'2(EGF:ErbB1)_P:GAP:(Shc_P):Grb2'
p239
S'c65'
p240
sS'2(EGF:ErbB1):Gab1_P#:Pase9t'
p241
S'c522'
p242
sS'(ErbB1:ErbB2)_P:GAP:Grb2:Sos'
p243
S'c237'
p244
sS'2(EGF:ErbB1_h:ATP)-FullActive'
p245
S'c557'
p246
sS'ErbB1:ATP'
p247
S'c6'
p248
sS'(ErbB3:ErbB2)_P:GAP:(Shc_P):Grb2:Sos:(Ras:GTP):cPP'
p249
S'c376'
p250
sS'2(EGF:ErbB1)_P:GAP:(Shc_P):Grb2:(Sos_P)'
p251
S'c420'
p252
sS'2(EGF:ErbB1)_P:GAP:Grb2:(Gab1_P):ERK_PP_i'
p253
S'c432'
p254
sS'(ErbB1:ErbB4)_P:GAP:Grb2:Sos'
p255
S'c239'
p256
sS'(ErbB1:ErbB2)_P:GAP:Grb2:Gab1_P:Shp2'
p257
S'c464'
p258
sS'(ErbB2:ErbB3)'
p259
S'c288'
p260
sS'(HRG:ErbB3):ErbB2'
p261
S'c355'
p262
sS'(ErbB1:ErbB2)_P:GAP:Grb2:Gab1_P'
p263
S'c445'
p264
sS'(ErbB4:ErbB2)_P:GAP:(Shc_P):Grb2:Sos:cPP'
p265
S'c367'
p266
sS'ErbB3:Inh'
p267
S'c506'
p268
sS'(ErbB3:ErbB2)_P:GAP:(Shc_P):Grb2:cPP'
p269
S'c358'
p270
sS'Raf_P'
p271
S'c45'
p272
sS'(EGF:ErbB1:ErbB3):ATP'
p273
S'c124'
p274
sS'(ErbB3:ErbB2)_P:GAP:Grb2:Gab1_P:PI3K:(PIP2)3'
p275
S'c468'
p276
sS'(ErbB3:ErbB2)_P:GAP:Grb2:Gab1_P:PI3K:(PIP2)2'
p277
S'c467'
p278
sS'(ErbB4:ErbB2)_P:GAP:Grb2:Gab1:_PP'
p279
S'c487'
p280
sS'(ErbB3:ErbB2)_P:GAP:Grb2:Gab1_P:PI3K:(PIP2)6'
p281
S'c471'
p282
sS'(ErbB3:ErbB2)_P:GAP:Grb2:Gab1_P:PI3K:(PIP2)5'
p283
S'c470'
p284
sS'ErbB3'
p285
S'c154'
p286
sS'((HRG:ErbB4):ErbB2)'
p287
S'c422'
p288
sS'2(ErbB2)_P:GAP:Grb2:Gab1_P:PI3K:PIP2'
p289
S'c452'
p290
sS'2(ErbB2)_P:GAP:Shc'
p291
S'c296'
p292
sS'MEK_PP:Pase2'
p293
S'c52'
p294
sS'(EGF:ErbB1:ATP::EGF:ErbB1_h:Inh)-HalfActive'
p295
S'c558'
p296
sS'EGF:ErbB1:Inh'
p297
S'c499'
p298
sS'ERK_P'
p299
S'c57'
p300
sS'ErbB1:ErbB:Gab1_P#'
p301
S'c430'
p302
sS'(EGF:ErbB1:ErbB4)'
p303
S'c161'
p304
sS'(ErbB3:ErbB2)_P:GAP:Grb2:Sos:cPP'
p305
S'c388'
p306
sS'(ErbB1:ErbB2)_P:GAP:(Shc_P):Grb2:Sos:(Ras:GTP)'
p307
S'c219'
p308
sS'2(ErbB2)2:Gab1_P#:Pase9t'
p309
S'c523'
p310
sS'(ErbB2:ErbB3)_P:RTK_Pase'
p311
S'c417'
p312
sS'(ErbB1:ErbB2)_P:GAP:Grb2:Gab1_P:PI3K:PIP2'
p313
S'c449'
p314
sS'2(EGF:ErbB1)_P:GAP:Grb2:Gab1_P:PI3K'
p315
S'c104'
p316
sS'(ErbB1:ErbB3)_P:GAP:Grb2:Sos'
p317
S'c238'
p318
sS'(ErbB4:ErbB2)_P:GAP:(Shc_P):Grb2:Sos:(Ras:GTP):cPP'
p319
S'c379'
p320
sS'(ErbB1:ErbB3)_P:GAP:(Shc_P):Grb2:Sos:(Ras:GDP):cPP'
p321
S'c214'
p322
sS'(ErbB1:ErbB2)_P:GAP:(Shc_P):Grb2:Sos:(Ras:GDP)'
p323
S'c210'
p324
sS'(ERK_PP)_i'
p325
S'c83'
p326
sS'2(ErbB2)_P:GAP:(Shc_P):Grb2:Sos:(Ras:GDP)'
p327
S'c308'
p328
sS'(MEK_P:Raf_P)_i'
p329
S'c76'
p330
sS'(ErbB1:ErbB3)_P:GAP:Grb2:Gab1_P:ERK_PP'
p331
S'c435'
p332
sS'R_degraded'
p333
S'c86'
p334
sS'2(EGF:ErbB1)_P:GAP:(Shc_P):Grb2:Sos:(Ras:GDP):cPP'
p335
S'c93'
p336
sS'ATP  1.2e9'
p337
S'c105'
p338
sS'(EGF:ErbB1:ErbB2):Inh'
p339
S'c504'
p340
sS'(HRG:ErbB4):ErbB2:ATP'
p341
S'c139'
p342
sS'(ErbB1:ErbB3)_P:GAP:(Shc_P):Grb2:Sos'
p343
S'c202'
p344
sS'2(ErbB2)_P:GAP:(Shc_P):Grb2:Sos:(Ras:GTP):cPP'
p345
S'c310'
p346
sS'Sos_P'
p347
S'c103'
p348
sS'(Raf_P)_i'
p349
S'c72'
p350
sS'(ErbB1:ErbB4)_P:GAP:Grb2:Sos:cPP'
p351
S'c242'
p352
sS'2(ErbB2)_P:GAP:Grb2:Gab1_P'
p353
S'c454'
p354
sS'2(EGF:ErbB1)_P:GAP:Grb2:(Gab1_P):Shp2'
p355
S'c489'
p356
sS'(ErbB1:ErbB2)_P:GAP:Grb2:Gab1:ATP'
p357
S'c130'
p358
sS'2(EGF:ErbB1_h:Inh)'
p359
S'c528'
p360
sS'(ErbB1:ErbB4)_P:GAP:Grb2:Gab1_P:Pase9t'
p361
S'c412'
p362
sS'(ErbB1:ErbB3)_P:RTK_Pase'
p363
S'c281'
p364
sS'Pase2'
p365
S'c53'
p366
sS'Pase3'
p367
S'c60'
p368
sS'(ErbB1:ErbB4)_P:GAP:(Shc_P):Grb2:Sos:cPP'
p369
S'c206'
p370
sS'Pase1'
p371
S'c44'
p372
sS'Pase4'
p373
S'c113'
p374
sS'(ErbB1:ErbB4)_P:GAP:(Shc_P):Grb2:Sos:(Ras:GTP)'
p375
S'c221'
p376
sS'MKP_deg'
p377
S'c520'
p378
sS'(ErbB4:ErbB2)_P:GAP:Grb2'
p379
S'c386'
p380
sS'2(EGF:ErbB1:ATP)-FullActive'
p381
S'c116'
p382
sS'2(ErbB2)_P:GAP:Grb2:Sos:(Ras:GTP):cPP'
p383
S'c322'
p384
sS'(ErbB1:ErbB2)_P:GAP:Grb2:Sos:(Ras:GTP):cPP'
p385
S'c258'
p386
sS'(ErbB1:ErbB2)_P:GAP:(Shc_P):Grb2'
p387
S'c192'
p388
sS'(ErbB2:ErbB4)_P:RTK_Pase'
p389
S'c418'
p390
sS'2(EGF:ErbB1)_P:GAP:Grb2:(Gab1_P):ERK_PP'
p391
S'c431'
p392
sS'2(ErbB2)_P:GAP:Grb2'
p393
S'c314'
p394
sS'(EGF:ErbB1:ATP::EGF:ErbB1_h:Inh)'
p395
S'c553'
p396
sS'(ErbB1:ErbB4)_P:GAP:Grb2:Gab1_P:ERK_PP_i'
p397
S'c440'
p398
sS'2(EGF:ErbB1)_P:GAP:(Shc_P):Grb2:Sos:(Ras:GTP)'
p399
S'c68'
p400
sS'(ErbB1:ErbB3)_P:GAP'
p401
S'c152'
p402
sS'(ErbB1:ErbB4)_P:GAP:Grb2:Gab1:ATP'
p403
S'c132'
p404
sS'(ErbB1:ErbB4)_P:GAP:(Shc_P):Grb2:Sos'
p405
S'c203'
p406
sS'(ErbB1:ErbB2)_P:GAP:Grb2:Sos:(Ras:GTP)'
p407
S'c255'
p408
sS'2(ErbB2)_P:GAP:Grb2:Sos:cPP'
p409
S'c316'
p410
sS'(ErbB1:ErbB3)_P:GAP:(Shc_P)'
p411
S'c184'
p412
sS'(ErbB4:ErbB2)_P:GAP:Grb2:Gab1_P:PI3K:Ras:GDP'
p413
S'c325'
p414
sS'2(ErbB2)_P:GAP:Grb2:Sos:(Ras:GDP)'
p415
S'c320'
p416
sS'PIP3:PDK1'
p417
S'c111'
p418
sS'EGF:ErbB1:Inh:ErB4'
p419
S'c494'
p420
sS'(ErbB3:ErbB2)_P:GAP:Grb2:Sos:(Ras:GDP)'
p421
S'c395'
p422
sS'EGF:ErbB1:Inh:ErB2'
p423
S'c492'
p424
sS'EGF:ErbB1:Inh:ErB3'
p425
S'c493'
p426
sS'2(ErbB2)_P:GAP:(Shc_P):Grb2:Sos'
p427
S'c305'
p428
sS'(ErbB1:ErbB2)_P:GAP:Grb2:Sos:(Ras:GDP)'
p429
S'c246'
p430
sS'(ErbB1:ErbB3)_P:GAP:Grb2:cPP'
p431
S'c232'
p432
sS'2(EGF:ErbB1)_P:GAP:(Shc_P):Grb2:Sos:cPP'
p433
S'c92'
p434
sS'(ErbB1:ErbB4)_P:GAP:Grb2:Gab1_P'
p435
S'c410'
p436
sS'ErbB2'
p437
S'c155'
p438
sS'(ErbB1:ErbB2)_P:GAP:(Shc_P):Grb2:Sos'
p439
S'c201'
p440
sS'ErbB1'
p441
S'c531'
p442
sS'ErbB4'
p443
S'c156'
p444
sS'(ErbB1:ErbB4)_P:GAP:Grb2:Sos:(Ras:GDP)'
p445
S'c248'
p446
sS'2(ErbB2)_P:GAP:(Shc_P):Grb2'
p447
S'c302'
p448
sS'2(ErbB2)_P:GAP:Grb2:Sos:(Ras:GTP)'
p449
S'c323'
p450
sS'(HRG:ErbB3):ErbB2:ATP'
p451
S'c168'
p452
sS'ErbB3_P'
p453
S'c331'
p454
sS'2(EGF:ErbB1)_P:GAP:Grb2:Sos:(ERK_PP)'
p455
S'c96'
p456
sS'(ErbB4:ErbB2)_P:GAP:Grb2:Gab1_P:Shp2'
p457
S'c479'
p458
sS'(ErbB3:ErbB2)_P:GAP:Grb2:Gab1_P:PI3K:PIP2'
p459
S'c453'
p460
sS'(ErbB1:ErbB3)_P:GAP:(Shc_P):Grb2'
p461
S'c193'
p462
sS'(ErbB3:ErbB2)_P:GAP:(Shc_P):Grb2:Sos:(Ras:GDP):cPP'
p463
S'c370'
p464
sS'(ErbB1:ErbB2)_P:GAP:Grb2:Gab1_P:ERK_PP_i'
p465
S'c434'
p466
sS'2(EGF:ErbB1)_P:GAP:Grb2:Gab1'
p467
S'c483'
p468
sS'(ErbB1:ErbB2)_P:RTK_Pase'
p469
S'c416'
p470
sS'2(EGF:ErbB1)_P:GAP:(Shc_P):Grb2:Sos:(Ras:GTP):cPP'
p471
S'c94'
p472
sS'(ErbB3:ErbB2)_P:GAP:Grb2:Gab1_P:ERK_PP_i'
p473
S'c478'
p474
sS'(ErbB4:ErbB2)_P:GAP:Shc'
p475
S'c350'
p476
sS'(ErbB1:ErbB4)_P:GAP:Grb2:Gab1_P_ERK_PP'
p477
S'c438'
p478
sS'2(ErbB2)_P:RTK_Pase'
p479
S'c283'
p480
sS'(ErbB4:ErbB2)_P:GAP:Grb2:Gab1_P'
p481
S'c460'
p482
sS'2(ErbB2)2:Gab1_P#'
p483
S'c490'
p484
sS'EGF:ErbB1:ErbB4:ATP'
p485
S'c128'
p486
sS'(ErbB1:ErbB3)_P:GAP:(Shc_P):Grb2:Sos:(Ras:GTP)'
p487
S'c220'
p488
sS'2(EGF:ErbB1)_P:GAP:(Shc_P):Grb2:Sos'
p489
S'c66'
p490
sS'MEK_PP:ERK_P'
p491
S'c82'
p492
sS'EGF:ErbB1:ErbB3:ATP'
p493
S'c127'
p494
sS'(EGF:ErbB1:ATP::EGF:ErbB1_h:ATP)-FullActive'
p495
S'c555'
p496
sS'2(ErbB2)_P:GAP:Grb2:Gab1'
p497
S'c436'
p498
sS'MEK_P:Raf_P'
p499
S'c50'
p500
sS'RTK_Pase'
p501
S'c280'
p502
sS'(ErbB1:ErbB3)_P:GAP:Grb2:Gab1_P:Shp2'
p503
S'c465'
p504
sS'(ErbB1:ErbB3)_P:GAP:(Shc_P):Grb2:Sos:(Ras:GDP)'
p505
S'c211'
p506
sS'ErbB2:ErbB4'
p507
S'c117'
p508
sS'EGF:ErbB1:ATP'
p509
S'c10'
p510
sS'2(ErbB2)_P:GAP:(Shc_P)'
p511
S'c299'
p512
sS'ErbB2:ErbB2_P'
p513
S'c284'
p514
sS'(Shc_P):Grb2'
p515
S'c39'
p516
sS'Ras_activated:GTP'
p517
S'c43'
p518
sS'(ErbB1:ErbB4)_P:GAP:Grb2:Gab1_P:PI3K:Ras:GDP'
p519
S'c267'
p520
sS'ERK_P:Pase3'
p521
S'c62'
p522
sS'Pase9t'
p523
S'c521'
p524
sS'(ErbB1:ErbB4)_P:GAP:(Shc_P):Grb2:cPP'
p525
S'c197'
p526
sS'(ERK_P)_i'
p527
S'c81'
p528
sS'(ErbB1:ErbB4)_P:GAP:Grb2'
p529
S'c230'
p530
sS'(MEK_PP:Pase2)_i'
p531
S'c78'
p532
sS'(Raf:Ras:GTP)_i'
p533
S'c70'
p534
sS'(ErbB1:ErbB4)_P:GAP:Grb2:Gab1_P:PI3K:PIP2'
p535
S'c451'
p536
sS'ErbB4_P'
p537
S'c332'
p538
sS'(ErbB4:ErbB2)_P:GAP:Grb2:cPP'
p539
S'c385'
p540
sS'ErbB2:Inh'
p541
S'c508'
p542
sS'GAP'
p543
S'c14'
p544
sS'Grb2'
p545
S'c22'
p546
sS'(ErbB1:ErbB3)_P:GAP:Grb2:Gab1_P:Pase9t'
p547
S'c411'
p548
sS'(ErbB3:ErbB2)_P:GAP:(Shc_P)'
p549
S'c353'
p550
sS'Shp2'
p551
S'c463'
p552
sS'HRG:ErbB4'
p553
S'c144'
p554
sS'HRG:ErbB3'
p555
S'c142'
p556
sS'((HRG:ErbB3):ErbB2):ATP'
p557
S'c169'
p558
sS'2(EGF:ErbB1)_P:GAP:(Shc_P)'
p559
S'c64'
p560
sS'ErbB1:ErbB:Gab1_P#:Pase9t'
p561
S'c424'
p562
sS'ErbB2_P'
p563
S'c87'
p564
sS'2(ErbB2)_P:GAP:(Shc_P):Grb2:Sos:(Ras:GTP)'
p565
S'c311'
p566
sS'2(ErbB2)_P:GAP:Grb2:Sos'
p567
S'c317'
p568
sS'PDK1'
p569
S'c109'
p570
sS'Sos'
p571
S'c24'
p572
sS'2(ErbB2)_P'
p573
S'c290'
p574
sS'(ErbB4:ErbB2)_P:GAP:Grb2:Sos:(Ras:GTP):cPP'
p575
S'c403'
p576
sS'2(EGF:ErbB1)_P:GAP:(Shc_P):Grb2:Sos:(ERK_PP)'
p577
S'c98'
p578
sS'Ras:GTP'
p579
S'c28'
p580
sS'2(EGF:ErbB1)_P:GAP:Grb2:Sos:cPP'
p581
S'c88'
p582
sS'(ErbB1:ErbB2)_P:GAP:Grb2:Gab1_P:PI3K:Ras:GDP'
p583
S'c265'
p584
sS'EGF_degraded'
p585
S'c13'
p586
sS'AKT:P:P:Raf:P:Ser'
p587
S'c472'
p588
sS'Gab1'
p589
S'c426'
p590
sS'(ErbB3:ErbB2)_P:GAP:Grb2:Gab1_P:ERK_PP'
p591
S'c477'
p592
sS'(ErbB4:ErbB2)_P:GAP:Grb2:Gab1'
p593
S'c442'
p594
sS'(ErbB3:ErbB2)_P:GAP:(Shc_P):Grb2:Sos:(Ras:GTP)'
p595
S'c377'
p596
sS'(HRG:ErbB4:ErbB1)'
p597
S'c519'
p598
sS'AKT:P:P'
p599
S'c497'
p600
sS'MEK_PP:ERK'
p601
S'c80'
p602
sS'(ErbB1:ErbB2)_P:GAP:Shc'
p603
S'c174'
p604
sS'(ErbB1:ErbB3)_P'
p605
S'c163'
p606
sS'(ErbB1:ErbB2)_P:GAP:(Shc_P):Grb2:Sos:(Ras:GTP):cPP'
p607
S'c222'
p608
sS'(ErbB1:ErbB2)_P:GAP:Grb2:Gab1_P:PI3K'
p609
S'c261'
p610
sS'2(ErbB2)'
p611
S'c425'
p612
sS'2(ErbB2)_P:GAP:Grb2:cPP'
p613
S'c313'
p614
sS'(EGF:ErbB1:ATP::EGF:ErbB1:Inh)-HalfActive'
p615
S'c115'
p616
sS'(ErbB4:ErbB2)_P:GAP:Grb2:Gab1:_PP:Pase9t'
p617
S'c407'
p618
sS'(ErbB1:ErbB3)_P:GAP:(Shc_P):Grb2:Sos:(Ras:GTP):cPP'
p619
S'c223'
p620
sS'(EGF:ErbB1:ErbB2):ATP'
p621
S'c123'
p622
sS'(ErbB4:ErbB2)_P:GAP:Grb2:Sos:cPP'
p623
S'c391'
p624
sS'(Raf_P:Pase1)_i'
p625
S'c73'
p626
sS'ERK:MEK_PP'
p627
S'c56'
p628
sS'2(ErbB2)_P:GAP:(Shc_P):Grb2:Sos:(Ras:GDP):cPP'
p629
S'c307'
p630
sS'(ErbB1:ErbB2)_P:GAP:Grb2:cPP'
p631
S'c231'
p632
sS'2(EGF:ErbB1)_P:GAP:(Shc_P):Grb2:Sos:(Ras:GDP)'
p633
S'c67'
p634
sS'(ErbB1:ErbB3)_P:GAP:Grb2:Gab1_P:PI3K:Ras:GDP'
p635
S'c266'
p636
sS'(ErbB1:ErbB3)_P:GAP:Grb2:Sos:(Ras:GTP):cPP'
p637
S'c259'
p638
sS'(ErbB1:ErbB4)_P:GAP:Grb2:Sos:(Ras:GTP):cPP'
p639
S'c260'
p640
sS'2(ErbB2)_P:GAP:(Shc_P):Grb2:Sos:cPP'
p641
S'c304'
p642
sS'(MEK_PP)_i'
p643
S'c77'
p644
sS'(ErbB1:ErbB2)_P:GAP:Grb2:Gab1'
p645
S'c427'
p646
sS'(ErbB3:ErbB2)_P:GAP:Grb2'
p647
S'c383'
p648
sS'(ErbB1:ErbB4)_P:GAP:Grb2:cPP'
p649
S'c233'
p650
sS'(EGF:ErbB1:Inh::EGF:ErbB1_h:ATP)'
p651
S'c551'
p652
sS'(ErbB1:ErbB4)_P:GAP:(Shc_P):Grb2:Sos:(Ras:GDP):cPP'
p653
S'c215'
p654
sS'AKT_P:Pase4'
p655
S'c114'
p656
sS'(ErbB4:ErbB2)_P:GAP:(Shc_P):Grb2'
p657
S'c362'
p658
sS'2(EGF:ErbB1:Inh)'
p659
S'c501'
p660
sS'Grb2:Sos'
p661
S'c30'
p662
sS'(ErbB1:ErbB4)_P:GAP:Grb2:Gab1_P:Shp2'
p663
S'c466'
p664
sS'(ErbB3:ErbB2)_P:GAP:(Shc_P):Grb2:Sos'
p665
S'c365'
p666
sS'ErbB2:ErbB2:Inh'
p667
S'c509'
p668
sS'(ErbB1:ErbB2)_P:GAP:(Shc_P)'
p669
S'c183'
p670
sS'(ErbB4:ErbB2)_P:GAP:Grb2:Gab1_P:ERK_PP'
p671
S'c480'
p672
sS'(ErbB1:ErbB3)_P:GAP:Grb2:Gab1_P:PI3K'
p673
S'c262'
p674
sS'(HRG:ErbB4):ErbB2'
p675
S'c345'
p676
sS'Raf:P:Ser'
p677
S'c485'
p678
sS'(EGF:ErbB1:ErbB3)_P:Inh'
p679
S'c507'
p680
sS'Raf:Ras:GTP'
p681
S'c42'
p682
sS'2(EGF:ErbB1)_P:GAP:(Shc_P):Grb2:Sos:ERK_PP'
p683
S'c97'
p684
sS'(HRG:ErbB4:ErbB1):ATP'
p685
S'c138'
p686
sS'PIP3:AKT_P'
p687
S'c495'
p688
sS'(ErbB1:ErbB3)_P:GAP:(Shc_P):Grb2:cPP'
p689
S'c196'
p690
sS'MEK_PP'
p691
S'c51'
p692
sS'2(ErbB2)_P:GAP'
p693
S'c293'
p694
sS'2(ErbB2)_P:GAP:Grb2:Gab1_P:Shp2'
p695
S'c473'
p696
sS'(ErbB1:ErbB4)_P:GAP:(Shc_P)'
p697
S'c185'
p698
sS'(ErbB1:ErbB4)_P:GAP:(Shc_P):Grb2'
p699
S'c194'
p700
sS'PIP3'
p701
S'c106'
p702
sS'PIP2'
p703
S'c444'
p704
sS'ErbB1_h'
p705
S'c532'
p706
sS'2(EGF:ErbB1)_P:GAP:Grb2'
p707
S'c18'
p708
sS'(ErbB3:ErbB2)_P:GAP:Grb2:Sos:(Ras:GTP):cPP'
p709
S'c400'
p710
sS'(ErbB3:ErbB2)_P:GAP:Grb2:Gab1_P:Shp2'
p711
S'c476'
p712
sS'(ErbB4:ErbB2)_P:GAP:Grb2:Sos'
p713
S'c392'
p714
sS'Raf_P:Pase1'
p715
S'c46'
p716
sS'AKT:P:P:Raf:P:Ser_i'
p717
S'c484'
p718
sS'(ErbB3:ErbB2)_P:GAP:Grb2:Gab1_P:PI3K:Ras:GDP'
p719
S'c269'
p720
sS'MEK'
p721
S'c47'
p722
sS'2(EGF:ErbB1:ATP)'
p723
S'c11'
p724
sS'(ErbB1:ErbB2)_P:GAP:Grb2'
p725
S'c228'
p726
sS'EGF:ErbB1_h:ATP'
p727
S'c529'
p728
sS'2(EGF:ErbB1)_P:GAP:Grb2:(Gab1_P):PI3K:Ras:GDP'
p729
S'c264'
p730
sS'(ErbB4:ErbB2)_P:GAP:Grb2:Gab1_P:ERK_PP_i'
p731
S'c481'
p732
sS'(ErbB4:ErbB2)_P:GAP:(Shc_P):Grb2:Sos:(Ras:GDP):cPP'
p733
S'c373'
p734
sS'PIP3:PTEN'
p735
S'c482'
p736
sS'(ErbB4:ErbB2)_P:GAP:Grb2:Sos:(Ras:GDP)'
p737
S'c398'
p738
sS'ERK_PP'
p739
S'c59'
p740
sS'PIP3:AKT_P:PDK1'
p741
S'c496'
p742
sS'2(EGF:ErbB1)_P:GAP'
p743
S'c17'
p744
sS'(ErbB1:ErbB3)_P:GAP:Grb2:Sos:cPP'
p745
S'c241'
p746
sS'(ErbB3:ErbB2)_P:GAP:Grb2:Gab1_P'
p747
S'c457'
p748
sS'2(ErbB2)_P:GAP:Grb2:Gab1_P:ERK_PP'
p749
S'c474'
p750
sS'ErbB3/4:ErbB2:Gab1_P#:Pase9t'
p751
S'c456'
p752
sS'(ErbB3:ErbB2)'
p753
S'c339'
p754
sS'(ErbB1:ErbB2)_P:GAP:(Shc_P):Grb2:Sos:(Ras:GDP):cPP'
p755
S'c213'
p756
sS'(ErbB4:ErbB2)_P:GAP:Grb2:Sos:(Ras:GTP)'
p757
S'c404'
p758
sS'cPP'
p759
S'c9'
p760
sS'(ErbB1:ErbB4)_P:GAP:Grb2:Gab1_P:PI3K'
p761
S'c263'
p762
sS'(EGF:ErbB1:ErbB2)'
p763
S'c159'
p764
sS'(ErbB3:ErbB2)_P:GAP:(Shc_P):Grb2:Sos:cPP'
p765
S'c364'
p766
sS'EGF:ErbB1:ErbB2:ATP'
p767
S'c122'
p768
sS'EGF:ErbB1:ErbB2'
p769
S'c145'
p770
sS'EGF:ErbB1:ErbB3'
p771
S'c146'
p772
sS'EGF:ErbB1:ErbB4'
p773
S'c147'
p774
sS'(ErbB3:ErbB2)_P:GAP:Grb2:cPP'
p775
S'c382'
p776
sS'EGF:ErbB1_h:Inh'
p777
S'c526'
p778
sS'2(ErbB2)_P:GAP:Grb2:Sos:(Ras:GDP):cPP'
p779
S'c319'
p780
sS'2(EGF:ErbB1)_P:GAP:Shc'
p781
S'c63'
p782
sS'(ErbB1:ErbB2)_P:GAP:Grb2:Sos:cPP'
p783
S'c240'
p784
sS'ERK_PP:Pase3'
p785
S'c61'
p786
sS'(ErbB4:ErbB2)_P:GAP:(Shc_P):Grb2:Sos:(Ras:GTP)'
p787
S'c380'
p788
sS'(ErbB4:ErbB2)_P'
p789
S'c338'
p790
sS'(ErbB1:ErbB4)_P:GAP:Grb2:Gab1'
p791
S'c429'
p792
sS'ErbB1_h:Inh'
p793
S'c525'
p794
s.