(dp0
S'acc'
p1
S'acc'
p2
sS'cca1luc_mrna'
p3
S'cca1luc_mrna'
p4
sS'cca1luc'
p5
S'cca1luc'
p6
sS'toc1luc_mrna'
p7
S'toc1luc_mrna'
p8
sS'luc_mrna'
p9
S'luc_mrna'
p10
sS'toc1luc_1'
p11
S'toc1luc_1'
p12
sS'toc1_mrna'
p13
S'toc1_mrna'
p14
sS'toc1_1'
p15
S'toc1_1'
p16
sS'toc1_2'
p17
S'toc1_2'
p18
sS'luc'
p19
S'luc'
p20
sS'cca1_c'
p21
S'cca1_c'
p22
sS'cca1_n'
p23
S'cca1_n'
p24
sS'cca1_mrna'
p25
S'cca1_mrna'
p26
sS'toc1luc_2'
p27
S'toc1luc_2'
p28
s.