(dp0
S'MLCK.Ca_super_2_plus__endsuper_.CaM'
p1
S's292'
p2
sS'RhoGAP'
p3
S's118'
p4
sS'IP3'
p5
S's152'
p6
sS'PLC_beta_'
p7
S's424'
p8
sS'G_sub_q_endsub__alpha_.GTP'
p9
S's187'
p10
sS'Rho.GTP.Rho-kinase'
p11
S's252'
p12
sS'PC'
p13
S's164'
p14
sS'thrombin_R'
p15
S's174'
p16
sS'Rho.GTP'
p17
S's214'
p18
sS'Rho_GEF'
p19
S's233'
p20
sS'csa35_degraded'
p21
S's331'
p22
sS'sa40_degraded'
p23
S's183'
p24
sS'Rho-kinase.MLC'
p25
S's362'
p26
sS'thrombin_ligand'
p27
S's4'
p28
sS'p115RhoGEF'
p29
S's98'
p30
sS'MYPT1.Rho-kinase'
p31
S's496'
p32
sS'Ca_super_2_plus__endsuper_'
p33
S's135'
p34
sS'G_sub_q_endsub__alpha_.GDP'
p35
S's440'
p36
sS'G_sub_12_endsub__alpha__beta__gamma_'
p37
S's437'
p38
sS'CaM'
p39
S's276'
p40
sS'thrombinR'
p41
S's55'
p42
sS'Rho_GEF_active'
p43
S's245'
p44
sS'RGS'
p45
S's184'
p46
sS'MLCK.2Ca_super_2_plus__endsuper_.CaM.MLC'
p47
S's539'
p48
sS'Ca_super_2_plus__endsuper_.CaM'
p49
S's277'
p50
sS'pro_thrombinR'
p51
S's130'
p52
sS'G_sub_q_endsub__alpha__beta__gamma__thrombinR active'
p53
S's441'
p54
sS'G_sub_12_endsub__alpha_.GTP'
p55
S's439'
p56
sS'MLCK.3Ca_super_2_plus__endsuper_.CaM'
p57
S's294'
p58
sS'thrombin'
p59
S's2'
p60
sS'PKC'
p61
S's309'
p62
sS'MYPT1_PPase'
p63
S's570'
p64
sS'G_sub_12_endsub__alpha__beta__gamma__thrombinR active'
p65
S's435'
p66
sS'3IP3.IP3R'
p67
S's173'
p68
sS'PKC active_2.CPI'
p69
S's335'
p70
sS'IP3R'
p71
S's171'
p72
sS'CPI-17'
p73
S's350'
p74
sS'G_sub_12_endsub__alpha_.GDP'
p75
S's438'
p76
sS'Inositol'
p77
S's165'
p78
sS'Ca_super_2_plus__endsuper_ pump'
p79
S's432'
p80
sS'PKC.Ca_super_2_plus__endsuper_.DAG'
p81
S's565'
p82
sS'MLCK.4Ca_super_2_plus__endsuper_.CaM'
p83
S's295'
p84
sS'PLC_beta_.G_sub_q_endsub_.GTP.Ca.PIP2'
p85
S's567'
p86
sS'Rho.GDP'
p87
S's231'
p88
sS'4Ca_super_2_plus__endsuper_.CaM'
p89
S's280'
p90
sS'Rho.GTP.Rho-kinase.MLC'
p91
S's456'
p92
sS'2Ca_super_2_plus__endsuper_ .Ca_super_2_plus__endsuper_ trunsp'
p93
S's444'
p94
sS'PKC.DAG'
p95
S's311'
p96
sS'p115RhoGEF.GTP_alpha_'
p97
S's436'
p98
sS'PLC_beta_.Ca.PIP2'
p99
S's568'
p100
sS'MLCK.3Ca_super_2_plus__endsuper_.CaM.MLC'
p101
S's520'
p102
sS'MLCK.MLC'
p103
S's487'
p104
sS'Rho-kinase'
p105
S's124'
p106
sS'thrombinR active'
p107
S's57'
p108
sS'Rho_GAP'
p109
S's213'
p110
sS'PKC.Ca_super_2_plus__endsuper_'
p111
S's566'
p112
sS'Ca_super_2_plus__endsuper_ store'
p113
S's172'
p114
sS'Ca_super_2_plus__endsuper_  pump.Ca_super_2_plus__endsuper_'
p115
S's446'
p116
sS'PIP2'
p117
S's151'
p118
sS'Ca_super_2_plus__endsuper_ int leak'
p119
S's557'
p120
sS'GTP'
p121
S's48'
p122
sS'csa39_degraded'
p123
S's329'
p124
sS'GDP'
p125
S's50'
p126
sS'2Ca_super_2_plus__endsuper_.CaM'
p127
S's278'
p128
sS'Ca_super_2_plus__endsuper_ trunsp'
p129
S's430'
p130
sS'CPI-17.MYPT1_PPase'
p131
S's355'
p132
sS'G_sub_q_endsub__alpha__beta__gamma_'
p133
S's442'
p134
sS'MLCK.Ca_super_2_plus__endsuper_.CaM.MLC'
p135
S's551'
p136
sS'MLCK.2Ca_super_2_plus__endsuper_.CaM'
p137
S's293'
p138
sS'PKC active1'
p139
S's310'
p140
sS'PLC_beta_.G_sub_q_endsub__alpha_.GTP.Ca_super_2_plus__endsuper_'
p141
S's564'
p142
sS'Ca_super_2_plus__endsuper_ ext'
p143
S's267'
p144
sS'MLCK.4Ca_super_2_plus__endsuper_.CaM.MLC'
p145
S's513'
p146
sS'G_beta__gamma__2'
p147
S's421'
p148
sS'PLC_beta_.G_sub_q_endsub__alpha_.GTP'
p149
S's443'
p150
sS'MLCK'
p151
S's289'
p152
sS'MYPT1.MLC'
p153
S's480'
p154
sS'3Ca_super_2_plus__endsuper_.CaM'
p155
S's279'
p156
sS'DAG'
p157
S's153'
p158
sS'MLC'
p159
S's359'
p160
sS'PKC active_1.CPI'
p161
S's332'
p162
sS'PKC active_3.CPI'
p163
S's338'
p164
sS'G_beta__gamma__1'
p165
S's410'
p166
sS'csa36_degraded'
p167
S's330'
p168
sS'PKC active_3'
p169
S's324'
p170
sS'PKC active_2'
p171
S's314'
p172
sS'PLC_beta_.Ca_super_2_plus__endsuper_'
p173
S's569'
p174
sS'Ca_super_2_plus__endsuper_ ext leak'
p175
S's556'
p176
s.