(dp0
S'Va'
p1
S'Va'
p2
sS'PT'
p3
S'PT'
p4
sS'Xa_ATIII'
p5
S'Xa_ATIII'
p6
sS'Xa'
p7
S'Xa'
p8
sS'IIa_ATIII'
p9
S'IIa_ATIII'
p10
sS'II'
p11
S'II'
p12
sS'IIa'
p13
S'IIa'
p14
sS'RVV'
p15
S'RVV'
p16
sS'V'
p17
g17
sS'X'
p18
g18
sS'IIa_alpha2M'
p19
S'IIa_alpha2M'
p20
sS'PL'
p21
S'PL'
p22
s.