(dp0
S'Sho1'
p1
S'species_10'
p2
sS'Pbs2P'
p3
S'species_5'
p4
sS'Glyex'
p5
S'species_13'
p6
sS'Hog1PPActive'
p7
S'species_12'
p8
sS'Hog1PP'
p9
S'species_3'
p10
sS'RNA'
p11
S'species_8'
p12
sS'Hog1P'
p13
S'species_9'
p14
sS'Sho1Pbs2P'
p15
S'species_11'
p16
sS'Hog1'
p17
S'species_2'
p18
sS'Phosphatase'
p19
S'species_6'
p20
sS'Glyin'
p21
S'species_1'
p22
sS'Pbs2'
p23
S'species_4'
p24
sS'Protein'
p25
S'species_7'
p26
sS'Fps1'
p27
S'species_14'
p28
sS'Fps1P'
p29
S'species_15'
p30
s.