(dp0
S'ACA'
p1
S'species_4'
p2
sS'In_cAMP'
p3
S'species_1'
p4
sS'Ex_cAMP'
p5
S'species_0'
p6
sS'CAR1'
p7
S'species_5'
p8
sS'ERK2'
p9
S'species_6'
p10
sS'PKA'
p11
S'species_2'
p12
sS'REGA'
p13
S'species_3'
p14
s.