(dp0
S'Ras:GDP'
p1
S's103'
p2
sS'Hsp90-eNOS-CaM-Ca2'
p3
S's61'
p4
sS'Ca_s'
p5
S's2'
p6
sS'Calmodulin'
p7
S's52'
p8
sS'Shear Stress'
p9
S's119'
p10
sS'eNOS-Cav-1'
p11
S's51'
p12
sS'Hsp90-eNOS-CaM-Ca4'
p13
S's58'
p14
sS'p-FAK:p-Shc'
p15
S's112'
p16
sS'pre_time'
p17
S's38'
p18
sS'Hsp90'
p19
S's57'
p20
sS'PP2A'
p21
S's15'
p22
sS'sa49_degraded'
p23
S's116'
p24
sS'AKT'
p25
S's16'
p26
sS'IP3'
p27
S's6'
p28
sS'Ca_c'
p29
S's3'
p30
sS'eNOS'
p31
S's115'
p32
sS'Hsp90-p-eNOS-CaM-Ca2'
p33
S's62'
p34
sS'L-Arg'
p35
S's63'
p36
sS'p-PI3K'
p37
S's20'
p38
sS'Hsp90-p-eNOS'
p39
S's65'
p40
sS's9'
p41
S's9'
p42
sS's8'
p43
S's8'
p44
sS'p-MEKK1'
p45
S's101'
p46
sS'p-FAK:p-Shc:Grb2:Sos'
p47
S's113'
p48
sS'NO'
p49
S's64'
p50
sS's3'
p51
S's21'
p52
sS'CaM-Ca4'
p53
S's47'
p54
sS'eNOS-CaM-Ca4'
p55
S's45'
p56
sS'PIP2'
p57
S's19'
p58
sS's7'
p59
S's7'
p60
sS's5'
p61
S's5'
p62
sS'CaM-Ca2'
p63
S's48'
p64
sS's35'
p65
S's35'
p66
sS'Ca_B'
p67
S's4'
p68
sS'Hsp90-p-eNOS-CaM-Ca4'
p69
S's60'
p70
sS'KLF2'
p71
S's105'
p72
sS'AP-1'
p73
S's42'
p74
sS'p-FAK'
p75
S's93'
p76
sS'AKT:PI3P'
p77
S's28'
p78
sS'pp-JNKK'
p79
S's43'
p80
sS's37'
p81
S's37'
p82
sS's117'
p83
S's117'
p84
sS'Src'
p85
S's94'
p86
sS'PDK1_cyto'
p87
S's25'
p88
sS'PI3K'
p89
S's22'
p90
sS's13'
p91
S's13'
p92
sS'p-AKT:PI3P'
p93
S's26'
p94
sS's11'
p95
S's11'
p96
sS's10'
p97
S's10'
p98
sS'Ca_ex'
p99
S's1'
p100
sS'p-Shc:Grb2:Sos'
p101
S's114'
p102
sS'MEKK1'
p103
S's97'
p104
sS'JNK'
p105
S's99'
p106
sS'Shc'
p107
S's91'
p108
sS'pp-JNK'
p109
S's44'
p110
sS'Time'
p111
S's39'
p112
sS'aAP-1'
p113
S's107'
p114
sS'PI3P'
p115
S's17'
p116
sS'p-JNK'
p117
S's104'
p118
sS'Hsp90-eNOS'
p119
S's66'
p120
sS'TimeT'
p121
S's12'
p122
sS'Ras:GTP'
p123
S's102'
p124
sS's118'
p125
S's118'
p126
sS'p-JNKK'
p127
S's100'
p128
sS'FAK'
p129
S's95'
p130
sS'PDK1'
p131
S's14'
p132
sS'PTEN'
p133
S's18'
p134
sS'PDK2'
p135
S's24'
p136
sS'Grb2:Sos'
p137
S's111'
p138
sS'p-FAK:Shc'
p139
S's110'
p140
sS'pp-AKT:PI3P'
p141
S's27'
p142
sS'eNOS-CaM-Ca2'
p143
S's50'
p144
sS'p-Src'
p145
S's92'
p146
sS'p-Shc'
p147
S's98'
p148
sS'JNKK'
p149
S's96'
p150
s.