(dp0
S'pAkt_S6'
p1
S'pAkt_S6'
p2
sS'pEGFR_Akt'
p3
S'pEGFR_Akt'
p4
sS'pS6'
p5
S'pS6'
p6
sS'pro_EGFR'
p7
S'pro_EGFR'
p8
sS'EGFR'
p9
S'EGFR'
p10
sS'S6'
p11
S'S6'
p12
sS'Akt'
p13
S'Akt'
p14
sS'EGF_EGFR'
p15
S'EGF_EGFR'
p16
sS'pAkt'
p17
S'pAkt'
p18
sS'pEGFR'
p19
S'pEGFR'
p20
sS'EGF'
p21
S'EGF'
p22
s.