(dp0
S'PROTEIN_P_Snail'
p1
S'PROTEIN_P_Snail'
p2
sS'PROTEIN_P_Alx1'
p3
S'PROTEIN_P_Alx1'
p4
sS'PROTEIN_E_GataE'
p5
S'PROTEIN_E_GataE'
p6
sS'GENE_M_Tel'
p7
S'GENE_M_Tel'
p8
sS'PROTEIN_E_GataC'
p9
S'PROTEIN_E_GataC'
p10
sS'GENE_M_Endo16'
p11
S'GENE_M_Endo16'
p12
sS'GENE_E_CyP'
p13
S'GENE_E_CyP'
p14
sS'mRNA_E_GataC'
p15
S'mRNA_E_GataC'
p16
sS'mRNA_E_GataE'
p17
S'mRNA_E_GataE'
p18
sS'mRNA_P_Erg'
p19
S'mRNA_P_Erg'
p20
sS'PRE_M_UbiqSoxB1'
p21
S'PRE_M_UbiqSoxB1'
p22
sS'mRNA_M_Blimp1'
p23
S'mRNA_M_Blimp1'
p24
sS'GENE_M_CAPK'
p25
S'GENE_M_CAPK'
p26
sS'mRNA_M_SuTx'
p27
S'mRNA_M_SuTx'
p28
sS'PROTEIN_M_GroTCF'
p29
S'PROTEIN_M_GroTCF'
p30
sS'PROTEIN_M_Not'
p31
S'PROTEIN_M_Not'
p32
sS'GENE_P_HesC'
p33
S'GENE_P_HesC'
p34
sS'PROTEIN_M_SoxB1'
p35
S'PROTEIN_M_SoxB1'
p36
sS'mRNA_P_cB'
p37
S'mRNA_P_cB'
p38
sS'mRNA_P_Hex'
p39
S'mRNA_P_Hex'
p40
sS'mRNA_P_Wnt8'
p41
S'mRNA_P_Wnt8'
p42
sS'mRNA_P_Hnf6'
p43
S'mRNA_P_Hnf6'
p44
sS'PROTEIN_P_cB'
p45
S'PROTEIN_P_cB'
p46
sS'GENE_P_SoxB1'
p47
S'GENE_P_SoxB1'
p48
sS'PROTEIN_P_UbiqHesC'
p49
S'PROTEIN_P_UbiqHesC'
p50
sS'GENE_M_Otx'
p51
S'GENE_M_Otx'
p52
sS'PROTEIN_E_GSK3_i'
p53
S'PROTEIN_E_GSK3_i'
p54
sS'PROTEIN_E_GSK3_a'
p55
S'PROTEIN_E_GSK3_a'
p56
sS'PROTEIN_P_UVAOtx'
p57
S'PROTEIN_P_UVAOtx'
p58
sS'PROTEIN_E_TCF'
p59
S'PROTEIN_E_TCF'
p60
sS'PROTEIN_P_GroTFC'
p61
S'PROTEIN_P_GroTFC'
p62
sS'PROTEIN_E_Wnt8'
p63
S'PROTEIN_E_Wnt8'
p64
sS'GENE_E_CAPK'
p65
S'GENE_E_CAPK'
p66
sS'mRNA_M_z13'
p67
S'mRNA_M_z13'
p68
sS'GENE_M_Lim'
p69
S'GENE_M_Lim'
p70
sS'mRNA_P_Tel'
p71
S'mRNA_P_Tel'
p72
sS'mRNA_M_MspL'
p73
S'mRNA_M_MspL'
p74
sS'PROTEIN_P_Sm30'
p75
S'PROTEIN_P_Sm30'
p76
sS'GENE_P_TBr'
p77
S'GENE_P_TBr'
p78
sS'GENE_E_Hnf6'
p79
S'GENE_E_Hnf6'
p80
sS'GENE_M_TBr'
p81
S'GENE_M_TBr'
p82
sS'mRNA_M_Ets1'
p83
S'mRNA_M_Ets1'
p84
sS'PROTEIN_E_GroTCF'
p85
S'PROTEIN_E_GroTCF'
p86
sS'mRNA_M_Endo16'
p87
S'mRNA_M_Endo16'
p88
sS'PROTEIN_M_CyP'
p89
S'PROTEIN_M_CyP'
p90
sS'PROTEIN_E_Gro'
p91
S'PROTEIN_E_Gro'
p92
sS'PROTEIN_M_Hox'
p93
S'PROTEIN_M_Hox'
p94
sS'GENE_E_Brn'
p95
S'GENE_E_Brn'
p96
sS'PRE_P_UbiqEts1'
p97
S'PRE_P_UbiqEts1'
p98
sS'PROTEIN_E_UVAOtx'
p99
S'PROTEIN_E_UVAOtx'
p100
sS'mRNA_E_Pks'
p101
S'mRNA_E_Pks'
p102
sS'PROTEIN_M_Apobec'
p103
S'PROTEIN_M_Apobec'
p104
sS'GENE_E_Bra'
p105
S'GENE_E_Bra'
p106
sS'PROTEIN_E_UbiqSoxC'
p107
S'PROTEIN_E_UbiqSoxC'
p108
sS'GENE_E_Dri'
p109
S'GENE_E_Dri'
p110
sS'GENE_P_Tgif'
p111
S'GENE_P_Tgif'
p112
sS'PRE_P_UbiqAlx1'
p113
S'PRE_P_UbiqAlx1'
p114
sS'PROTEIN_E_Kakapo'
p115
S'PROTEIN_E_Kakapo'
p116
sS'PROTEIN_E_ES'
p117
S'PROTEIN_E_ES'
p118
sS'PROTEIN_P_Endo16'
p119
S'PROTEIN_P_Endo16'
p120
sS'PROTEIN_P_UbiqEts1'
p121
S'PROTEIN_P_UbiqEts1'
p122
sS'GENE_E_Delta'
p123
S'GENE_E_Delta'
p124
sS'mRNA_E_Msp130'
p125
S'mRNA_E_Msp130'
p126
sS'mRNA_M_SuH'
p127
S'mRNA_M_SuH'
p128
sS'mRNA_P_Sm27'
p129
S'mRNA_P_Sm27'
p130
sS'mRNA_E_UVAOtx'
p131
S'mRNA_E_UVAOtx'
p132
sS'GENE_M_Gcad'
p133
S'GENE_M_Gcad'
p134
sS'mRNA_M_Sm50'
p135
S'mRNA_M_Sm50'
p136
sS'PRE_M_UMANrl'
p137
S'PRE_M_UMANrl'
p138
sS'PROTEIN_M_MspL'
p139
S'PROTEIN_M_MspL'
p140
sS'mRNA_M_GataC'
p141
S'mRNA_M_GataC'
p142
sS'PROTEIN_M_frizzled_i'
p143
S'PROTEIN_M_frizzled_i'
p144
sS'PROTEIN_P_SuTx'
p145
S'PROTEIN_P_SuTx'
p146
sS'PROTEIN_P_Bra'
p147
S'PROTEIN_P_Bra'
p148
sS'GENE_M_Delta'
p149
S'GENE_M_Delta'
p150
sS'PROTEIN_M_frizzled_a'
p151
S'PROTEIN_M_frizzled_a'
p152
sS'mRNA_P_Sm50'
p153
S'mRNA_P_Sm50'
p154
sS'PROTEIN_P_Hnf6'
p155
S'PROTEIN_P_Hnf6'
p156
sS'mRNA_P_UbiqEts1'
p157
S'mRNA_P_UbiqEts1'
p158
sS'PROTEIN_M_Gcm'
p159
S'PROTEIN_M_Gcm'
p160
sS'PROTEIN_P_Hex'
p161
S'PROTEIN_P_Hex'
p162
sS'mRNA_M_Notch'
p163
S'mRNA_M_Notch'
p164
sS'GENE_P_Tel'
p165
S'GENE_P_Tel'
p166
sS'mRNA_E_Blimp1'
p167
S'mRNA_E_Blimp1'
p168
sS'mRNA_E_Endo16'
p169
S'mRNA_E_Endo16'
p170
sS'GENE_E_Sm50'
p171
S'GENE_E_Sm50'
p172
sS'GENE_P_Kakapo'
p173
S'GENE_P_Kakapo'
p174
sS'PRE_E_cB'
p175
S'PRE_E_cB'
p176
sS'mRNA_P_Gelsolin'
p177
S'mRNA_P_Gelsolin'
p178
sS'PROTEIN_E_Sm30'
p179
S'PROTEIN_E_Sm30'
p180
sS'mRNA_P_Not'
p181
S'mRNA_P_Not'
p182
sS'mRNA_M_Bra'
p183
S'mRNA_M_Bra'
p184
sS'mRNA_M_Snail'
p185
S'mRNA_M_Snail'
p186
sS'PROTEIN_E_VEGFR'
p187
S'PROTEIN_E_VEGFR'
p188
sS'PROTEIN_M_UMADelta'
p189
S'PROTEIN_M_UMADelta'
p190
sS'GENE_P_Hex'
p191
S'GENE_P_Hex'
p192
sS'mRNA_E_Hox'
p193
S'mRNA_E_Hox'
p194
sS'mRNA_M_Msp130'
p195
S'mRNA_M_Msp130'
p196
sS'mRNA_P_Nrl'
p197
S'mRNA_P_Nrl'
p198
sS'PROTEIN_P_nBTCF'
p199
S'PROTEIN_P_nBTCF'
p200
sS'GENE_E_Wnt8'
p201
S'GENE_E_Wnt8'
p202
sS'PROTEIN_M_Dpt'
p203
S'PROTEIN_M_Dpt'
p204
sS'PROTEIN_P_VEGFSignal'
p205
S'PROTEIN_P_VEGFSignal'
p206
sS'mRNA_E_Otx'
p207
S'mRNA_E_Otx'
p208
sS'mRNA_E_Sm27'
p209
S'mRNA_E_Sm27'
p210
sS'mRNA_E_Not'
p211
S'mRNA_E_Not'
p212
sS'PROTEIN_E_Not'
p213
S'PROTEIN_E_Not'
p214
sS'mRNA_P_VEGFR'
p215
S'mRNA_P_VEGFR'
p216
sS'none'
p217
S'none'
p218
sS'GENE_E_Sm27'
p219
S'GENE_E_Sm27'
p220
sS'PROTEIN_E_Gelsolin'
p221
S'PROTEIN_E_Gelsolin'
p222
sS'PROTEIN_E_Sm50'
p223
S'PROTEIN_E_Sm50'
p224
sS'PROTEIN_P_UbiqTel'
p225
S'PROTEIN_P_UbiqTel'
p226
sS'mRNA_E_Bra'
p227
S'mRNA_E_Bra'
p228
sS'mRNA_E_SuTx'
p229
S'mRNA_E_SuTx'
p230
sS'mRNA_E_Brn'
p231
S'mRNA_E_Brn'
p232
sS'GENE_P_Ficolin'
p233
S'GENE_P_Ficolin'
p234
sS'PROTEIN_E_SoxB1'
p235
S'PROTEIN_E_SoxB1'
p236
sS'GENE_M_Not'
p237
S'GENE_M_Not'
p238
sS'mRNA_M_Alx1'
p239
S'mRNA_M_Alx1'
p240
sS'PROTEIN_M_Sm30'
p241
S'PROTEIN_M_Sm30'
p242
sS'GENE_P_VEGFR'
p243
S'GENE_P_VEGFR'
p244
sS'mRNA_E_FvMo'
p245
S'mRNA_E_FvMo'
p246
sS'PROTEIN_E_SoxC'
p247
S'PROTEIN_E_SoxC'
p248
sS'mRNA_E_HesC'
p249
S'mRNA_E_HesC'
p250
sS'mRNA_E_Kakapo'
p251
S'mRNA_E_Kakapo'
p252
sS'GENE_M_GataE'
p253
S'GENE_M_GataE'
p254
sS'PROTEIN_M_Gcad'
p255
S'PROTEIN_M_Gcad'
p256
sS'GENE_M_GataC'
p257
S'GENE_M_GataC'
p258
sS'mRNA_P_SuTx'
p259
S'mRNA_P_SuTx'
p260
sS'PROTEIN_P_TCF'
p261
S'PROTEIN_P_TCF'
p262
sS'GENE_P_Sm27'
p263
S'GENE_P_Sm27'
p264
sS'GENE_M_Pmar1'
p265
S'GENE_M_Pmar1'
p266
sS'mRNA_M_CyP'
p267
S'mRNA_M_CyP'
p268
sS'PROTEIN_E_Dri'
p269
S'PROTEIN_E_Dri'
p270
sS'GENE_E_Not'
p271
S'GENE_E_Not'
p272
sS'PROTEIN_P_UbiqAlx1'
p273
S'PROTEIN_P_UbiqAlx1'
p274
sS'mRNA_M_FvMo'
p275
S'mRNA_M_FvMo'
p276
sS'PROTEIN_M_TBr'
p277
S'PROTEIN_M_TBr'
p278
sS'PROTEIN_E_Hox'
p279
S'PROTEIN_E_Hox'
p280
sS'mRNA_P_Apobec'
p281
S'mRNA_P_Apobec'
p282
sS'PROTEIN_P_Gcad'
p283
S'PROTEIN_P_Gcad'
p284
sS'PROTEIN_M_SoxC'
p285
S'PROTEIN_M_SoxC'
p286
sS'mRNA_E_SoxB1'
p287
S'mRNA_E_SoxB1'
p288
sS'mRNA_M_Pks'
p289
S'mRNA_M_Pks'
p290
sS'mRNA_P_CyP'
p291
S'mRNA_P_CyP'
p292
sS'GENE_E_OrCt'
p293
S'GENE_E_OrCt'
p294
sS'GENE_E_FvMo'
p295
S'GENE_E_FvMo'
p296
sS'PROTEIN_M_Gro'
p297
S'PROTEIN_M_Gro'
p298
sS'mRNA_M_Gcm'
p299
S'mRNA_M_Gcm'
p300
sS'PRE_E_UbiqSoxB1'
p301
S'PRE_E_UbiqSoxB1'
p302
sS'PROTEIN_M_Brn'
p303
S'PROTEIN_M_Brn'
p304
sS'PROTEIN_M_UbiqGcad'
p305
S'PROTEIN_M_UbiqGcad'
p306
sS'GENE_E_Apobec'
p307
S'GENE_E_Apobec'
p308
sS'PROTEIN_E_CAPK'
p309
S'PROTEIN_E_CAPK'
p310
sS'PROTEIN_E_UbiqES'
p311
S'PROTEIN_E_UbiqES'
p312
sS'mRNA_P_UbiqAlx1'
p313
S'mRNA_P_UbiqAlx1'
p314
sS'GENE_P_CAPK'
p315
S'GENE_P_CAPK'
p316
sS'PRE_E_SuH'
p317
S'PRE_E_SuH'
p318
sS'mRNA_P_Snail'
p319
S'mRNA_P_Snail'
p320
sS'mRNA_M_Sm27'
p321
S'mRNA_M_Sm27'
p322
sS'PROTEIN_P_Lim'
p323
S'PROTEIN_P_Lim'
p324
sS'mRNA_M_Wnt8'
p325
S'mRNA_M_Wnt8'
p326
sS'PROTEIN_M_Snail'
p327
S'PROTEIN_M_Snail'
p328
sS'GENE_E_ES'
p329
S'GENE_E_ES'
p330
sS'mRNA_P_Sm30'
p331
S'mRNA_P_Sm30'
p332
sS'mRNA_E_UbiqSoxB1'
p333
S'mRNA_E_UbiqSoxB1'
p334
sS'PRE_P_UbiqES'
p335
S'PRE_P_UbiqES'
p336
sS'PROTEIN_M_Delta'
p337
S'PROTEIN_M_Delta'
p338
sS'GENE_E_Hox'
p339
S'GENE_E_Hox'
p340
sS'GENE_M_Tgif'
p341
S'GENE_M_Tgif'
p342
sS'PROTEIN_P_Blimp1'
p343
S'PROTEIN_P_Blimp1'
p344
sS'GENE_M_Msp130'
p345
S'GENE_M_Msp130'
p346
sS'GENE_E_z13'
p347
S'GENE_E_z13'
p348
sS'mRNA_M_OrCt'
p349
S'mRNA_M_OrCt'
p350
sS'PROTEIN_E_FvMo'
p351
S'PROTEIN_E_FvMo'
p352
sS'mRNA_E_CAPK'
p353
S'mRNA_E_CAPK'
p354
sS'mRNA_P_Ets1'
p355
S'mRNA_P_Ets1'
p356
sS'mRNA_P_FvMo'
p357
S'mRNA_P_FvMo'
p358
sS'PROTEIN_E_UbiqHnf6'
p359
S'PROTEIN_E_UbiqHnf6'
p360
sS'PROTEIN_P_Nrl'
p361
S'PROTEIN_P_Nrl'
p362
sS'PROTEIN_M_Wnt8'
p363
S'PROTEIN_M_Wnt8'
p364
sS'PROTEIN_P_Pmar1'
p365
S'PROTEIN_P_Pmar1'
p366
sS'GENE_E_GataE'
p367
S'GENE_E_GataE'
p368
sS'GENE_E_Blimp1'
p369
S'GENE_E_Blimp1'
p370
sS'GENE_M_Hox'
p371
S'GENE_M_Hox'
p372
sS'GENE_M_Gcm'
p373
S'GENE_M_Gcm'
p374
sS'mRNA_E_Apobec'
p375
S'mRNA_E_Apobec'
p376
sS'PROTEIN_P_OrCt'
p377
S'PROTEIN_P_OrCt'
p378
sS'PROTEIN_E_Tel'
p379
S'PROTEIN_E_Tel'
p380
sS'PROTEIN_P_Sm50'
p381
S'PROTEIN_P_Sm50'
p382
sS'mRNA_M_Gcad'
p383
S'mRNA_M_Gcad'
p384
sS'GENE_E_SoxC'
p385
S'GENE_E_SoxC'
p386
sS'PROTEIN_E_UbiqTel'
p387
S'PROTEIN_E_UbiqTel'
p388
sS'mRNA_E_Snail'
p389
S'mRNA_E_Snail'
p390
sS'GENE_E_Pks'
p391
S'GENE_E_Pks'
p392
sS'GENE_E_SoxB1'
p393
S'GENE_E_SoxB1'
p394
sS'GENE_P_Delta'
p395
S'GENE_P_Delta'
p396
sS'PROTEIN_P_Notch2'
p397
S'PROTEIN_P_Notch2'
p398
sS'GENE_E_Tgif'
p399
S'GENE_E_Tgif'
p400
sS'mRNA_E_OrCt'
p401
S'mRNA_E_OrCt'
p402
sS'PROTEIN_P_MspL'
p403
S'PROTEIN_P_MspL'
p404
sS'GENE_M_Ficolin'
p405
S'GENE_M_Ficolin'
p406
sS'mRNA_E_Alx1'
p407
S'mRNA_E_Alx1'
p408
sS'mRNA_E_CyP'
p409
S'mRNA_E_CyP'
p410
sS'PROTEIN_E_UbiqAlx1'
p411
S'PROTEIN_E_UbiqAlx1'
p412
sS'PROTEIN_P_Sm27'
p413
S'PROTEIN_P_Sm27'
p414
sS'GENE_M_SoxB1'
p415
S'GENE_M_SoxB1'
p416
sS'PROTEIN_E_Gcm'
p417
S'PROTEIN_E_Gcm'
p418
sS'GENE_P_z13'
p419
S'GENE_P_z13'
p420
sS'PROTEIN_M_FvMo'
p421
S'PROTEIN_M_FvMo'
p422
sS'PROTEIN_M_Eve'
p423
S'PROTEIN_M_Eve'
p424
sS'GENE_E_Nrl'
p425
S'GENE_E_Nrl'
p426
sS'mRNA_M_Dpt'
p427
S'mRNA_M_Dpt'
p428
sS'PROTEIN_M_FoxB'
p429
S'PROTEIN_M_FoxB'
p430
sS'mRNA_M_cB'
p431
S'mRNA_M_cB'
p432
sS'GENE_M_CyP'
p433
S'GENE_M_CyP'
p434
sS'PROTEIN_M_FoxA'
p435
S'PROTEIN_M_FoxA'
p436
sS'GENE_M_FoxA'
p437
S'GENE_M_FoxA'
p438
sS'GENE_M_FoxB'
p439
S'GENE_M_FoxB'
p440
sS'GENE_M_HesC'
p441
S'GENE_M_HesC'
p442
sS'mRNA_E_Hex'
p443
S'mRNA_E_Hex'
p444
sS'PROTEIN_M_L1'
p445
S'PROTEIN_M_L1'
p446
sS'GENE_P_FoxN23'
p447
S'GENE_P_FoxN23'
p448
sS'GENE_M_FoxO'
p449
S'GENE_M_FoxO'
p450
sS'PROTEIN_E_UMADelta'
p451
S'PROTEIN_E_UMADelta'
p452
sS'GENE_E_Gelsolin'
p453
S'GENE_E_Gelsolin'
p454
sS'PROTEIN_M_Ficolin'
p455
S'PROTEIN_M_Ficolin'
p456
sS'mRNA_E_Dpt'
p457
S'mRNA_E_Dpt'
p458
sS'GENE_P_Gcm'
p459
S'GENE_P_Gcm'
p460
sS'mRNA_P_Bra'
p461
S'mRNA_P_Bra'
p462
sS'mRNA_P_UbiqTel'
p463
S'mRNA_P_UbiqTel'
p464
sS'PROTEIN_M_VEGFSignal'
p465
S'PROTEIN_M_VEGFSignal'
p466
sS'PROTEIN_E_Delta2'
p467
S'PROTEIN_E_Delta2'
p468
sS'mRNA_P_Brn'
p469
S'mRNA_P_Brn'
p470
sS'PROTEIN_P_Apobec'
p471
S'PROTEIN_P_Apobec'
p472
sS'PROTEIN_E_Ets1'
p473
S'PROTEIN_E_Ets1'
p474
sS'PROTEIN_E_SuTx'
p475
S'PROTEIN_E_SuTx'
p476
sS'GENE_E_FoxA'
p477
S'GENE_E_FoxA'
p478
sS'PROTEIN_E_MspL'
p479
S'PROTEIN_E_MspL'
p480
sS'PRE_E_Gcad'
p481
S'PRE_E_Gcad'
p482
sS'PROTEIN_M_SuH'
p483
S'PROTEIN_M_SuH'
p484
sS'GENE_P_Dri'
p485
S'GENE_P_Dri'
p486
sS'mRNA_P_UbiqHnf6'
p487
S'mRNA_P_UbiqHnf6'
p488
sS'GENE_M_Pks'
p489
S'GENE_M_Pks'
p490
sS'PROTEIN_M_UbiqSoxC'
p491
S'PROTEIN_M_UbiqSoxC'
p492
sS'PROTEIN_M_Nrl'
p493
S'PROTEIN_M_Nrl'
p494
sS'mRNA_E_VEGF'
p495
S'mRNA_E_VEGF'
p496
sS'PROTEIN_M_FoxO'
p497
S'PROTEIN_M_FoxO'
p498
sS'GENE_M_Eve'
p499
S'GENE_M_Eve'
p500
sS'GENE_M_MspL'
p501
S'GENE_M_MspL'
p502
sS'mRNA_E_SoxC'
p503
S'mRNA_E_SoxC'
p504
sS'mRNA_M_Apobec'
p505
S'mRNA_M_Apobec'
p506
sS'PROTEIN_P_UbiqDelta'
p507
S'PROTEIN_P_UbiqDelta'
p508
sS'PROTEIN_P_Ficolin'
p509
S'PROTEIN_P_Ficolin'
p510
sS'PROTEIN_M_Notch2'
p511
S'PROTEIN_M_Notch2'
p512
sS'GENE_P_Apobec'
p513
S'GENE_P_Apobec'
p514
sS'PROTEIN_M_HesC'
p515
S'PROTEIN_M_HesC'
p516
sS'GENE_E_Msp130'
p517
S'GENE_E_Msp130'
p518
sS'PROTEIN_M_Kakapo'
p519
S'PROTEIN_M_Kakapo'
p520
sS'mRNA_P_Kakapo'
p521
S'mRNA_P_Kakapo'
p522
sS'GENE_M_Alx1'
p523
S'GENE_M_Alx1'
p524
sS'mRNA_P_Dri'
p525
S'mRNA_P_Dri'
p526
sS'GENE_E_Snail'
p527
S'GENE_E_Snail'
p528
sS'PROTEIN_E_Snail'
p529
S'PROTEIN_E_Snail'
p530
sS'GENE_P_Pmar1'
p531
S'GENE_P_Pmar1'
p532
sS'PROTEIN_E_Hex'
p533
S'PROTEIN_E_Hex'
p534
sS'mRNA_M_Sm30'
p535
S'mRNA_M_Sm30'
p536
sS'GENE_P_Nrl'
p537
S'GENE_P_Nrl'
p538
sS'PROTEIN_P_frizzled_a'
p539
S'PROTEIN_P_frizzled_a'
p540
sS'PROTEIN_M_Blimp1'
p541
S'PROTEIN_M_Blimp1'
p542
sS'PROTEIN_P_frizzled_i'
p543
S'PROTEIN_P_frizzled_i'
p544
sS'GENE_E_SuTx'
p545
S'GENE_E_SuTx'
p546
sS'PRE_M_UMADelta'
p547
S'PRE_M_UMADelta'
p548
sS'PROTEIN_E_Notch2'
p549
S'PROTEIN_E_Notch2'
p550
sS'mRNA_E_Ficolin'
p551
S'mRNA_E_Ficolin'
p552
sS'mRNA_M_UMR'
p553
S'mRNA_M_UMR'
p554
sS'PROTEIN_E_VEGFSignal'
p555
S'PROTEIN_E_VEGFSignal'
p556
sS'PROTEIN_M_Bra'
p557
S'PROTEIN_M_Bra'
p558
sS'mRNA_E_FoxN23'
p559
S'mRNA_E_FoxN23'
p560
sS'PROTEIN_E_Sm27'
p561
S'PROTEIN_E_Sm27'
p562
sS'GENE_M_SoxC'
p563
S'GENE_M_SoxC'
p564
sS'mRNA_E_Gelsolin'
p565
S'mRNA_E_Gelsolin'
p566
sS'PROTEIN_E_Eve'
p567
S'PROTEIN_E_Eve'
p568
sS'mRNA_M_FoxB'
p569
S'mRNA_M_FoxB'
p570
sS'mRNA_M_FoxA'
p571
S'mRNA_M_FoxA'
p572
sS'GENE_E_Tel'
p573
S'GENE_E_Tel'
p574
sS'PROTEIN_M_TCF'
p575
S'PROTEIN_M_TCF'
p576
sS'PRE_M_UMR'
p577
S'PRE_M_UMR'
p578
sS'GENE_M_Wnt8'
p579
S'GENE_M_Wnt8'
p580
sS'GENE_M_Dpt'
p581
S'GENE_M_Dpt'
p582
sS'GENE_E_Gcm'
p583
S'GENE_E_Gcm'
p584
sS'PRE_M_SoxB1'
p585
S'PRE_M_SoxB1'
p586
sS'PROTEIN_M_UMANrl'
p587
S'PROTEIN_M_UMANrl'
p588
sS'mRNA_P_z13'
p589
S'mRNA_P_z13'
p590
sS'GENE_E_FoxN23'
p591
S'GENE_E_FoxN23'
p592
sS'GENE_E_Hex'
p593
S'GENE_E_Hex'
p594
sS'PROTEIN_E_FoxO'
p595
S'PROTEIN_E_FoxO'
p596
sS'PROTEIN_E_FoxB'
p597
S'PROTEIN_E_FoxB'
p598
sS'PROTEIN_E_FoxA'
p599
S'PROTEIN_E_FoxA'
p600
sS'PROTEIN_M_Erg'
p601
S'PROTEIN_M_Erg'
p602
sS'PROTEIN_P_UbiqGcad'
p603
S'PROTEIN_P_UbiqGcad'
p604
sS'GENE_E_Eve'
p605
S'GENE_E_Eve'
p606
sS'mRNA_E_Lim'
p607
S'mRNA_E_Lim'
p608
sS'mRNA_M_Delta'
p609
S'mRNA_M_Delta'
p610
sS'GENE_P_Not'
p611
S'GENE_P_Not'
p612
sS'PROTEIN_E_Ficolin'
p613
S'PROTEIN_E_Ficolin'
p614
sS'PROTEIN_E_UbiqGcad'
p615
S'PROTEIN_E_UbiqGcad'
p616
sS'PROTEIN_P_GataC'
p617
S'PROTEIN_P_GataC'
p618
sS'PROTEIN_P_GataE'
p619
S'PROTEIN_P_GataE'
p620
sS'GENE_P_Gelsolin'
p621
S'GENE_P_Gelsolin'
p622
sS'GENE_E_GataC'
p623
S'GENE_E_GataC'
p624
sS'PROTEIN_P_SoxC'
p625
S'PROTEIN_P_SoxC'
p626
sS'PRE_E_Otx'
p627
S'PRE_E_Otx'
p628
sS'GENE_M_Hex'
p629
S'GENE_M_Hex'
p630
sS'PROTEIN_P_Erg'
p631
S'PROTEIN_P_Erg'
p632
sS'PROTEIN_P_HesC'
p633
S'PROTEIN_P_HesC'
p634
sS'mRNA_P_Endo16'
p635
S'mRNA_P_Endo16'
p636
sS'PROTEIN_M_UbiqDelta'
p637
S'PROTEIN_M_UbiqDelta'
p638
sS'mRNA_E_Nrl'
p639
S'mRNA_E_Nrl'
p640
sS'GENE_E_TBr'
p641
S'GENE_E_TBr'
p642
sS'GENE_M_Erg'
p643
S'GENE_M_Erg'
p644
sS'GENE_M_Dri'
p645
S'GENE_M_Dri'
p646
sS'PROTEIN_M_Sm50'
p647
S'PROTEIN_M_Sm50'
p648
sS'PROTEIN_P_Brn'
p649
S'PROTEIN_P_Brn'
p650
sS'GENE_P_Blimp1'
p651
S'GENE_P_Blimp1'
p652
sS'mRNA_P_CAPK'
p653
S'mRNA_P_CAPK'
p654
sS'PROTEIN_P_Dri'
p655
S'PROTEIN_P_Dri'
p656
sS'GENE_E_Kakapo'
p657
S'GENE_E_Kakapo'
p658
sS'GENE_P_SuTx'
p659
S'GENE_P_SuTx'
p660
sS'PROTEIN_M_UbiqHnf6'
p661
S'PROTEIN_M_UbiqHnf6'
p662
sS'PROTEIN_E_nBTCF'
p663
S'PROTEIN_E_nBTCF'
p664
sS'PRE_P_UbiqSoxC'
p665
S'PRE_P_UbiqSoxC'
p666
sS'PROTEIN_P_Gelsolin'
p667
S'PROTEIN_P_Gelsolin'
p668
sS'mRNA_M_HesC'
p669
S'mRNA_M_HesC'
p670
sS'PROTEIN_E_Msp130'
p671
S'PROTEIN_E_Msp130'
p672
sS'PROTEIN_E_UMR'
p673
S'PROTEIN_E_UMR'
p674
sS'mRNA_E_TBr'
p675
S'mRNA_E_TBr'
p676
sS'mRNA_M_SoxB1'
p677
S'mRNA_M_SoxB1'
p678
sS'mRNA_P_Otx'
p679
S'mRNA_P_Otx'
p680
sS'PROTEIN_P_TBr'
p681
S'PROTEIN_P_TBr'
p682
sS'PROTEIN_M_CAPK'
p683
S'PROTEIN_M_CAPK'
p684
sS'PROTEIN_E_cB'
p685
S'PROTEIN_E_cB'
p686
sS'mRNA_P_Lim'
p687
S'mRNA_P_Lim'
p688
sS'PRE_P_Otx'
p689
S'PRE_P_Otx'
p690
sS'GENE_E_Ficolin'
p691
S'GENE_E_Ficolin'
p692
sS'GENE_E_Otx'
p693
S'GENE_E_Otx'
p694
sS'PROTEIN_E_Hnf6'
p695
S'PROTEIN_E_Hnf6'
p696
sS'mRNA_E_Delta'
p697
S'mRNA_E_Delta'
p698
sS'GENE_P_MspL'
p699
S'GENE_P_MspL'
p700
sS'PROTEIN_P_UbiqSoxC'
p701
S'PROTEIN_P_UbiqSoxC'
p702
sS'PRE_M_cB'
p703
S'PRE_M_cB'
p704
sS'PROTEIN_M_UbiqAlx1'
p705
S'PROTEIN_M_UbiqAlx1'
p706
sS'mRNA_M_TBr'
p707
S'mRNA_M_TBr'
p708
sS'mRNA_E_MspL'
p709
S'mRNA_E_MspL'
p710
sS'mRNA_P_TBr'
p711
S'mRNA_P_TBr'
p712
sS'mRNA_E_Sm50'
p713
S'mRNA_E_Sm50'
p714
sS'mRNA_M_UbiqSoxB1'
p715
S'mRNA_M_UbiqSoxB1'
p716
sS'GENE_P_Ets1'
p717
S'GENE_P_Ets1'
p718
sS'mRNA_E_FoxA'
p719
S'mRNA_E_FoxA'
p720
sS'PROTEIN_M_Lim'
p721
S'PROTEIN_M_Lim'
p722
sS'mRNA_E_FoxO'
p723
S'mRNA_E_FoxO'
p724
sS'GENE_P_Endo16'
p725
S'GENE_P_Endo16'
p726
sS'mRNA_E_z13'
p727
S'mRNA_E_z13'
p728
sS'GENE_E_Sm30'
p729
S'GENE_E_Sm30'
p730
sS'mRNA_E_Tel'
p731
S'mRNA_E_Tel'
p732
sS'PROTEIN_E_Gcad'
p733
S'PROTEIN_E_Gcad'
p734
sS'PROTEIN_M_OrCt'
p735
S'PROTEIN_M_OrCt'
p736
sS'PROTEIN_E_L1'
p737
S'PROTEIN_E_L1'
p738
sS'PRE_M_Notch'
p739
S'PRE_M_Notch'
p740
sS'mRNA_M_Tgif'
p741
S'mRNA_M_Tgif'
p742
sS'PROTEIN_E_Erg'
p743
S'PROTEIN_E_Erg'
p744
sS'PRE_P_UbiqHnf6'
p745
S'PRE_P_UbiqHnf6'
p746
sS'mRNA_M_UMANrl'
p747
S'mRNA_M_UMANrl'
p748
sS'GENE_E_Ets1'
p749
S'GENE_E_Ets1'
p750
sS'PROTEIN_E_UbiqHesC'
p751
S'PROTEIN_E_UbiqHesC'
p752
sS'PROTEIN_P_FoxN23'
p753
S'PROTEIN_P_FoxN23'
p754
sS'mRNA_P_UbiqHesC'
p755
S'mRNA_P_UbiqHesC'
p756
sS'PROTEIN_P_Gcm'
p757
S'PROTEIN_P_Gcm'
p758
sS'PRE_E_UVAOtx'
p759
S'PRE_E_UVAOtx'
p760
sS'PROTEIN_M_SuHN'
p761
S'PROTEIN_M_SuHN'
p762
sS'mRNA_P_UbiqES'
p763
S'mRNA_P_UbiqES'
p764
sS'PRE_E_Notch'
p765
S'PRE_E_Notch'
p766
sS'GENE_M_Sm27'
p767
S'GENE_M_Sm27'
p768
sS'PROTEIN_M_VEGFR'
p769
S'PROTEIN_M_VEGFR'
p770
sS'PROTEIN_P_SuH'
p771
S'PROTEIN_P_SuH'
p772
sS'mRNA_P_Gcad'
p773
S'mRNA_P_Gcad'
p774
sS'GENE_E_MspL'
p775
S'GENE_E_MspL'
p776
sS'GENE_P_Otx'
p777
S'GENE_P_Otx'
p778
sS'GENE_P_GataC'
p779
S'GENE_P_GataC'
p780
sS'GENE_P_GataE'
p781
S'GENE_P_GataE'
p782
sS'mRNA_P_Delta'
p783
S'mRNA_P_Delta'
p784
sS'PROTEIN_E_UbiqSoxB1'
p785
S'PROTEIN_E_UbiqSoxB1'
p786
sS'PROTEIN_GCM'
p787
S'PROTEIN_GCM'
p788
sS'GENE_M_Sm50'
p789
S'GENE_M_Sm50'
p790
sS'mRNA_E_Wnt8'
p791
S'mRNA_E_Wnt8'
p792
sS'PROTEIN_P_UbiqSoxB1'
p793
S'PROTEIN_P_UbiqSoxB1'
p794
sS'PROTEIN_E_HesC'
p795
S'PROTEIN_E_HesC'
p796
sS'GENE_P_Sm50'
p797
S'GENE_P_Sm50'
p798
sS'PROTEIN_P_Eve'
p799
S'PROTEIN_P_Eve'
p800
sS'mRNA_M_Lim'
p801
S'mRNA_M_Lim'
p802
sS'PRE_P_Gcad'
p803
S'PRE_P_Gcad'
p804
sS'GENE_P_Brn'
p805
S'GENE_P_Brn'
p806
sS'PROTEIN_E_OrCt'
p807
S'PROTEIN_E_OrCt'
p808
sS'PROTEIN_P_Tgif'
p809
S'PROTEIN_P_Tgif'
p810
sS'GENE_P_Bra'
p811
S'GENE_P_Bra'
p812
sS'PROTEIN_M_FoxN23'
p813
S'PROTEIN_M_FoxN23'
p814
sS'GENE_P_Snail'
p815
S'GENE_P_Snail'
p816
sS'PROTEIN_E_Dpt'
p817
S'PROTEIN_E_Dpt'
p818
sS'GENE_E_Dpt'
p819
S'GENE_E_Dpt'
p820
sS'mRNA_M_Hex'
p821
S'mRNA_M_Hex'
p822
sS'PRE_M_Gcad'
p823
S'PRE_M_Gcad'
p824
sS'GENE_P_Msp130'
p825
S'GENE_P_Msp130'
p826
sS'PROTEIN_M_Msp130'
p827
S'PROTEIN_M_Msp130'
p828
sS'PROTEIN_M_GroTFC'
p829
S'PROTEIN_M_GroTFC'
p830
sS'PROTEIN_P_CyP'
p831
S'PROTEIN_P_CyP'
p832
sS'GENE_E_Lim'
p833
S'GENE_E_Lim'
p834
sS'GENE_P_Eve'
p835
S'GENE_P_Eve'
p836
sS'PROTEIN_P_Notch'
p837
S'PROTEIN_P_Notch'
p838
sS'GENE_M_VEGFR'
p839
S'GENE_M_VEGFR'
p840
sS'mRNA_M_FoxO'
p841
S'mRNA_M_FoxO'
p842
sS'mRNA_M_Otx'
p843
S'mRNA_M_Otx'
p844
sS'PROTEIN_E_Tgif'
p845
S'PROTEIN_E_Tgif'
p846
sS'PROTEIN_M_Hnf6'
p847
S'PROTEIN_M_Hnf6'
p848
sS'mRNA_M_Erg'
p849
S'mRNA_M_Erg'
p850
sS'PRE_P_UbiqHesC'
p851
S'PRE_P_UbiqHesC'
p852
sS'PRE_P_L1'
p853
S'PRE_P_L1'
p854
sS'mRNA_E_Ets1'
p855
S'mRNA_E_Ets1'
p856
sS'mRNA_M_Ficolin'
p857
S'mRNA_M_Ficolin'
p858
sS'mRNA_M_Tel'
p859
S'mRNA_M_Tel'
p860
sS'PROTEIN_E_Pks'
p861
S'PROTEIN_E_Pks'
p862
sS'PROTEIN_P_SuHN'
p863
S'PROTEIN_P_SuHN'
p864
sS'GENE_P_Alx1'
p865
S'GENE_P_Alx1'
p866
sS'PROTEIN_P_UMADelta'
p867
S'PROTEIN_P_UMADelta'
p868
sS'PROTEIN_M_UbiqTel'
p869
S'PROTEIN_M_UbiqTel'
p870
sS'mRNA_M_VEGFR'
p871
S'mRNA_M_VEGFR'
p872
sS'mRNA_P_GataE'
p873
S'mRNA_P_GataE'
p874
sS'PROTEIN_E_Endo16'
p875
S'PROTEIN_E_Endo16'
p876
sS'mRNA_P_GataC'
p877
S'mRNA_P_GataC'
p878
sS'GENE_M_SuTx'
p879
S'GENE_M_SuTx'
p880
sS'ribosome'
p881
S'ribosome'
p882
sS'PROTEIN_E_TBr'
p883
S'PROTEIN_E_TBr'
p884
sS'PROTEIN_P_Msp130'
p885
S'PROTEIN_P_Msp130'
p886
sS'mRNA_E_cB'
p887
S'mRNA_E_cB'
p888
sS'mRNA_P_Pmar1'
p889
S'mRNA_P_Pmar1'
p890
sS'GENE_P_CyP'
p891
S'GENE_P_CyP'
p892
sS'GENE_E_Erg'
p893
S'GENE_E_Erg'
p894
sS'PROTEIN_P_Delta'
p895
S'PROTEIN_P_Delta'
p896
sS'PROTEIN_P_Otx'
p897
S'PROTEIN_P_Otx'
p898
sS'PRE_E_SoxB1'
p899
S'PRE_E_SoxB1'
p900
sS'PROTEIN_M_Otx'
p901
S'PROTEIN_M_Otx'
p902
sS'mRNA_M_GataE'
p903
S'mRNA_M_GataE'
p904
sS'PROTEIN_M_Alx1'
p905
S'PROTEIN_M_Alx1'
p906
sS'GENE_P_FvMo'
p907
S'GENE_P_FvMo'
p908
sS'PROTEIN_E_GroTFC'
p909
S'PROTEIN_E_GroTFC'
p910
sS'GENE_M_Apobec'
p911
S'GENE_M_Apobec'
p912
sS'PROTEIN_P_Ets1'
p913
S'PROTEIN_P_Ets1'
p914
sS'PROTEIN_P_UbiqES'
p915
S'PROTEIN_P_UbiqES'
p916
sS'mRNA_P_SoxB1'
p917
S'mRNA_P_SoxB1'
p918
sS'PROTEIN_P_SoxB1'
p919
S'PROTEIN_P_SoxB1'
p920
sS'GENE_E_FoxO'
p921
S'GENE_E_FoxO'
p922
sS'PROTEIN_E_SuH'
p923
S'PROTEIN_E_SuH'
p924
sS'GENE_E_FoxB'
p925
S'GENE_E_FoxB'
p926
sS'PROTEIN_M_Dri'
p927
S'PROTEIN_M_Dri'
p928
sS'GENE_P_Pks'
p929
S'GENE_P_Pks'
p930
sS'PROTEIN_M_SuTx'
p931
S'PROTEIN_M_SuTx'
p932
sS'PROTEIN_M_UbiqHesC'
p933
S'PROTEIN_M_UbiqHesC'
p934
sS'PROTEIN_P_Pks'
p935
S'PROTEIN_P_Pks'
p936
sS'mRNA_E_Gcm'
p937
S'mRNA_E_Gcm'
p938
sS'PROTEIN_M_Hex'
p939
S'PROTEIN_M_Hex'
p940
sS'PROTEIN_P_Gro'
p941
S'PROTEIN_P_Gro'
p942
sS'mRNA_M_CAPK'
p943
S'mRNA_M_CAPK'
p944
sS'GENE_M_Snail'
p945
S'GENE_M_Snail'
p946
sS'GENE_P_SoxC'
p947
S'GENE_P_SoxC'
p948
sS'GENE_P_Wnt8'
p949
S'GENE_P_Wnt8'
p950
sS'GENE_E_HesC'
p951
S'GENE_E_HesC'
p952
sS'GENE_P_Lim'
p953
S'GENE_P_Lim'
p954
sS'PROTEIN_P_Wnt8'
p955
S'PROTEIN_P_Wnt8'
p956
sS'mRNA_E_Eve'
p957
S'mRNA_E_Eve'
p958
sS'GENE_E_VEGFR'
p959
S'GENE_E_VEGFR'
p960
sS'mRNA_P_L1'
p961
S'mRNA_P_L1'
p962
sS'PROTEIN_E_SuHN'
p963
S'PROTEIN_E_SuHN'
p964
sS'GENE_P_Erg'
p965
S'GENE_P_Erg'
p966
sS'PROTEIN_E_CyP'
p967
S'PROTEIN_E_CyP'
p968
sS'mRNA_P_Tgif'
p969
S'mRNA_P_Tgif'
p970
sS'mRNA_P_Msp130'
p971
S'mRNA_P_Msp130'
p972
sS'PROTEIN_M_UbiqSoxB1'
p973
S'PROTEIN_M_UbiqSoxB1'
p974
sS'GENE_P_OrCt'
p975
S'GENE_P_OrCt'
p976
sS'GENE_E_Alx1'
p977
S'GENE_E_Alx1'
p978
sS'GENE_M_Ets1'
p979
S'GENE_M_Ets1'
p980
sS'PROTEIN_M_z13'
p981
S'PROTEIN_M_z13'
p982
sS'GENE_M_FvMo'
p983
S'GENE_M_FvMo'
p984
sS'PROTEIN_M_Tel'
p985
S'PROTEIN_M_Tel'
p986
sS'PROTEIN_M_UVAOtx'
p987
S'PROTEIN_M_UVAOtx'
p988
sS'GENE_M_Blimp1'
p989
S'GENE_M_Blimp1'
p990
sS'PROTEIN_E_VEGF'
p991
S'PROTEIN_E_VEGF'
p992
sS'PROTEIN_E_Brn'
p993
S'PROTEIN_E_Brn'
p994
sS'PROTEIN_E_Bra'
p995
S'PROTEIN_E_Bra'
p996
sS'mRNA_P_Hox'
p997
S'mRNA_P_Hox'
p998
sS'mRNA_P_Gcm'
p999
S'mRNA_P_Gcm'
p1000
sS'PROTEIN_E_Lim'
p1001
S'PROTEIN_E_Lim'
p1002
sS'PROTEIN_M_Tgif'
p1003
S'PROTEIN_M_Tgif'
p1004
sS'mRNA_P_Dpt'
p1005
S'mRNA_P_Dpt'
p1006
sS'GENE_P_Gcad'
p1007
S'GENE_P_Gcad'
p1008
sS'PROTEIN_M_UMR'
p1009
S'PROTEIN_M_UMR'
p1010
sS'mRNA_M_Kakapo'
p1011
S'mRNA_M_Kakapo'
p1012
sS'PROTEIN_E_UbiqDelta'
p1013
S'PROTEIN_E_UbiqDelta'
p1014
sS'PROTEIN_P_UMANrl'
p1015
S'PROTEIN_P_UMANrl'
p1016
sS'PROTEIN_P_Dpt'
p1017
S'PROTEIN_P_Dpt'
p1018
sS'PROTEIN_M_UbiqEts1'
p1019
S'PROTEIN_M_UbiqEts1'
p1020
sS'GENE_P_Hox'
p1021
S'GENE_P_Hox'
p1022
sS'PRE_E_VEGF'
p1023
S'PRE_E_VEGF'
p1024
sS'PROTEIN_E_UMANrl'
p1025
S'PROTEIN_E_UMANrl'
p1026
sS'GENE_P_Hnf6'
p1027
S'GENE_P_Hnf6'
p1028
sS'mRNA_P_Ficolin'
p1029
S'mRNA_P_Ficolin'
p1030
sS'PROTEIN_M_cB'
p1031
S'PROTEIN_M_cB'
p1032
sS'PROTEIN_P_GroTCF'
p1033
S'PROTEIN_P_GroTCF'
p1034
sS'mRNA_E_Notch'
p1035
S'mRNA_E_Notch'
p1036
sS'PROTEIN_E_Apobec'
p1037
S'PROTEIN_E_Apobec'
p1038
sS'GENE_M_Hnf6'
p1039
S'GENE_M_Hnf6'
p1040
sS'PROTEIN_M_Endo16'
p1041
S'PROTEIN_M_Endo16'
p1042
sS'GENE_M_z13'
p1043
S'GENE_M_z13'
p1044
sS'PRE_E_UMR'
p1045
S'PRE_E_UMR'
p1046
sS'GENE_P_Dpt'
p1047
S'GENE_P_Dpt'
p1048
sS'PROTEIN_E_Pmar1'
p1049
S'PROTEIN_E_Pmar1'
p1050
sS'GENE_M_Nrl'
p1051
S'GENE_M_Nrl'
p1052
sS'mRNA_P_FoxA'
p1053
S'mRNA_P_FoxA'
p1054
sS'mRNA_P_FoxB'
p1055
S'mRNA_P_FoxB'
p1056
sS'mRNA_M_Brn'
p1057
S'mRNA_M_Brn'
p1058
sS'PROTEIN_M_GSK3_a'
p1059
S'PROTEIN_M_GSK3_a'
p1060
sS'PROTEIN_E_Delta'
p1061
S'PROTEIN_E_Delta'
p1062
sS'mRNA_P_HesC'
p1063
S'mRNA_P_HesC'
p1064
sS'PROTEIN_M_Ets1'
p1065
S'PROTEIN_M_Ets1'
p1066
sS'mRNA_M_FoxN23'
p1067
S'mRNA_M_FoxN23'
p1068
sS'PROTEIN_E_z13'
p1069
S'PROTEIN_E_z13'
p1070
sS'PROTEIN_M_GSK3_i'
p1071
S'PROTEIN_M_GSK3_i'
p1072
sS'mRNA_P_FoxO'
p1073
S'mRNA_P_FoxO'
p1074
sS'GENE_E_Gcad'
p1075
S'GENE_E_Gcad'
p1076
sS'mRNA_E_ES'
p1077
S'mRNA_E_ES'
p1078
sS'PROTEIN_P_Kakapo'
p1079
S'PROTEIN_P_Kakapo'
p1080
sS'mRNA_E_Tgif'
p1081
S'mRNA_E_Tgif'
p1082
sS'PROTEIN_P_CAPK'
p1083
S'PROTEIN_P_CAPK'
p1084
sS'mRNA_E_UMR'
p1085
S'mRNA_E_UMR'
p1086
sS'mRNA_P_OrCt'
p1087
S'mRNA_P_OrCt'
p1088
sS'mRNA_E_Pmar1'
p1089
S'mRNA_E_Pmar1'
p1090
sS'mRNA_E_SuH'
p1091
S'mRNA_E_SuH'
p1092
sS'GENE_M_Bra'
p1093
S'GENE_M_Bra'
p1094
sS'PROTEIN_E_Otx'
p1095
S'PROTEIN_E_Otx'
p1096
sS'GENE_M_Sm30'
p1097
S'GENE_M_Sm30'
p1098
sS'mRNA_E_Erg'
p1099
S'mRNA_E_Erg'
p1100
sS'GENE_M_Brn'
p1101
S'GENE_M_Brn'
p1102
sS'PROTEIN_E_Blimp1'
p1103
S'PROTEIN_E_Blimp1'
p1104
sS'mRNA_E_Sm30'
p1105
S'mRNA_E_Sm30'
p1106
sS'PROTEIN_P_L1'
p1107
S'PROTEIN_P_L1'
p1108
sS'GENE_M_FoxN23'
p1109
S'GENE_M_FoxN23'
p1110
sS'PROTEIN_P_FvMo'
p1111
S'PROTEIN_P_FvMo'
p1112
sS'mRNA_M_Dri'
p1113
S'mRNA_M_Dri'
p1114
sS'mRNA_P_Pks'
p1115
S'mRNA_P_Pks'
p1116
sS'PRE_M_Otx'
p1117
S'PRE_M_Otx'
p1118
sS'mRNA_P_Eve'
p1119
S'mRNA_P_Eve'
p1120
sS'mRNA_P_MspL'
p1121
S'mRNA_P_MspL'
p1122
sS'PROTEIN_M_Delta2'
p1123
S'PROTEIN_M_Delta2'
p1124
sS'PRE_P_UbiqTel'
p1125
S'PRE_P_UbiqTel'
p1126
sS'PROTEIN_M_GataE'
p1127
S'PROTEIN_M_GataE'
p1128
sS'PROTEIN_M_GataC'
p1129
S'PROTEIN_M_GataC'
p1130
sS'PROTEIN_E_UbiqEts1'
p1131
S'PROTEIN_E_UbiqEts1'
p1132
sS'PRE_P_Ets1'
p1133
S'PRE_P_Ets1'
p1134
sS'PROTEIN_M_Sm27'
p1135
S'PROTEIN_M_Sm27'
p1136
sS'GENE_M_Kakapo'
p1137
S'GENE_M_Kakapo'
p1138
sS'GENE_M_Gelsolin'
p1139
S'GENE_M_Gelsolin'
p1140
sS'mRNA_P_Alx1'
p1141
S'mRNA_P_Alx1'
p1142
sS'PRE_M_SuH'
p1143
S'PRE_M_SuH'
p1144
sS'PROTEIN_P_Not'
p1145
S'PROTEIN_P_Not'
p1146
sS'mRNA_M_Pmar1'
p1147
S'mRNA_M_Pmar1'
p1148
sS'PROTEIN_E_Notch'
p1149
S'PROTEIN_E_Notch'
p1150
sS'PROTEIN_P_z13'
p1151
S'PROTEIN_P_z13'
p1152
sS'GENE_P_Sm30'
p1153
S'GENE_P_Sm30'
p1154
sS'mRNA_M_Nrl'
p1155
S'mRNA_M_Nrl'
p1156
sS'PROTEIN_P_Tel'
p1157
S'PROTEIN_P_Tel'
p1158
sS'mRNA_E_Dri'
p1159
S'mRNA_E_Dri'
p1160
sS'GENE_E_Pmar1'
p1161
S'GENE_E_Pmar1'
p1162
sS'PROTEIN_M_nBTCF'
p1163
S'PROTEIN_M_nBTCF'
p1164
sS'PROTEIN_P_Hox'
p1165
S'PROTEIN_P_Hox'
p1166
sS'mRNA_E_Gcad'
p1167
S'mRNA_E_Gcad'
p1168
sS'mRNA_M_SoxC'
p1169
S'mRNA_M_SoxC'
p1170
sS'PROTEIN_P_FoxA'
p1171
S'PROTEIN_P_FoxA'
p1172
sS'PROTEIN_P_FoxB'
p1173
S'PROTEIN_P_FoxB'
p1174
sS'PROTEIN_M_Pmar1'
p1175
S'PROTEIN_M_Pmar1'
p1176
sS'PROTEIN_P_FoxO'
p1177
S'PROTEIN_P_FoxO'
p1178
sS'PROTEIN_E_Nrl'
p1179
S'PROTEIN_E_Nrl'
p1180
sS'PROTEIN_P_Delta2'
p1181
S'PROTEIN_P_Delta2'
p1182
sS'PROTEIN_P_GSK3_a'
p1183
S'PROTEIN_P_GSK3_a'
p1184
sS'mRNA_E_Hnf6'
p1185
S'mRNA_E_Hnf6'
p1186
sS'PROTEIN_M_UbiqES'
p1187
S'PROTEIN_M_UbiqES'
p1188
sS'PROTEIN_P_GSK3_i'
p1189
S'PROTEIN_P_GSK3_i'
p1190
sS'GENE_P_FoxO'
p1191
S'GENE_P_FoxO'
p1192
sS'PRE_P_cB'
p1193
S'PRE_P_cB'
p1194
sS'mRNA_P_SoxC'
p1195
S'mRNA_P_SoxC'
p1196
sS'GENE_P_FoxB'
p1197
S'GENE_P_FoxB'
p1198
sS'GENE_P_FoxA'
p1199
S'GENE_P_FoxA'
p1200
sS'mRNA_P_UbiqSoxC'
p1201
S'mRNA_P_UbiqSoxC'
p1202
sS'mRNA_M_UMADelta'
p1203
S'mRNA_M_UMADelta'
p1204
sS'mRNA_P_Blimp1'
p1205
S'mRNA_P_Blimp1'
p1206
sS'mRNA_E_FoxB'
p1207
S'mRNA_E_FoxB'
p1208
sS'mRNA_M_Hnf6'
p1209
S'mRNA_M_Hnf6'
p1210
sS'mRNA_M_Hox'
p1211
S'mRNA_M_Hox'
p1212
sS'PROTEIN_E_FoxN23'
p1213
S'PROTEIN_E_FoxN23'
p1214
sS'mRNA_E_VEGFR'
p1215
S'mRNA_E_VEGFR'
p1216
sS'PROTEIN_M_Notch'
p1217
S'PROTEIN_M_Notch'
p1218
sS'GENE_M_OrCt'
p1219
S'GENE_M_OrCt'
p1220
sS'GENE_E_Endo16'
p1221
S'GENE_E_Endo16'
p1222
sS'mRNA_P_FoxN23'
p1223
S'mRNA_P_FoxN23'
p1224
sS'mRNA_M_Eve'
p1225
S'mRNA_M_Eve'
p1226
sS'PROTEIN_P_UbiqHnf6'
p1227
S'PROTEIN_P_UbiqHnf6'
p1228
sS'PROTEIN_M_Pks'
p1229
S'PROTEIN_M_Pks'
p1230
sS'PROTEIN_P_VEGFR'
p1231
S'PROTEIN_P_VEGFR'
p1232
sS'PROTEIN_M_Gelsolin'
p1233
S'PROTEIN_M_Gelsolin'
p1234
sS'mRNA_M_Not'
p1235
S'mRNA_M_Not'
p1236
sS'PROTEIN_E_frizzled_a'
p1237
S'PROTEIN_E_frizzled_a'
p1238
sS'PROTEIN_E_Alx1'
p1239
S'PROTEIN_E_Alx1'
p1240
sS'PROTEIN_E_frizzled_i'
p1241
S'PROTEIN_E_frizzled_i'
p1242
sS'mRNA_M_Gelsolin'
p1243
S'mRNA_M_Gelsolin'
p1244
s.