(dp0
S'D34:137_CDK5'
p1
S'D34_137_CDK5'
p2
sS'cAMP2_R2C2'
p3
S'cAMP2_R2C2'
p4
sS'D34_CK1'
p5
S'D34_CK1'
p6
sS'cAMP4_R2'
p7
S'cAMP4_R2'
p8
sS'D75'
p9
S'D75'
p10
sS'D34'
p11
S'D34'
p12
sS'cAMP'
p13
S'cAMP'
p14
sS'cAMP_PDEP'
p15
S'cAMP_PDEP'
p16
sS'cAMP_PDE'
p17
S'cAMP_PDE'
p18
sS'D34:75:137_PP2B'
p19
S'D34_75_137_PP2B'
p20
sS'D34:75:137_PP2C'
p21
S'D34_75_137_PP2C'
p22
sS'D34:75:137_PP2A'
p23
S'D34_75_134_PP2A'
p24
sS'D_PKA'
p25
S'D_PKA'
p26
sS'D75:137_PP2C'
p27
S'D75_137_PP2C'
p28
sS'D75:137_PP2A'
p29
S'D75_137_PP2A'
p30
sS'D75_CK1'
p31
S'D75CK1'
p32
sS'PP2A_PKA'
p33
S'PP2A_PKA'
p34
sS'Empty'
p35
S'Empty'
p36
sS'PDEP'
p37
S'PDEP'
p38
sS'PP2AP'
p39
S'PP2AP'
p40
sS'cAMP4_R2C'
p41
S'cAMP4_R2C'
p42
sS'R2C2'
p43
S'R2C2'
p44
sS'PDE_PKA'
p45
S'PDE_PKA'
p46
sS'D_CDK5'
p47
S'D_CDK5'
p48
sS'D34_CDK5'
p49
S'D34_CDK5'
p50
sS'D34_PP2B'
p51
S'D34_PP2B'
p52
sS'PP2C'
p53
S'PP2C'
p54
sS'D137_PP2C'
p55
S'D137_PP2C'
p56
sS'PP2A'
p57
S'PP2A'
p58
sS'CK1'
p59
S'CK1'
p60
sS'cAMP3_R2C2'
p61
S'cAMP3_R2C2'
p62
sS'D34:137'
p63
S'D34_137'
p64
sS'PP2Binactive'
p65
S'PP2Binactive'
p66
sS'D'
p67
g67
sS'D137_PKA'
p68
S'D137_PKA'
p69
sS'D34:75_CK1'
p70
S'D34_75_CK1'
p71
sS'D75:137_PP2AP'
p72
S'D75_137_PP2AP'
p73
sS'D34:75'
p74
S'D34_75'
p75
sS'D75_PP2A'
p76
S'D75_PP2A'
p77
sS'D75_PP2AP'
p78
S'D75_PP2AP'
p79
sS'D34:137_PP2C'
p80
S'D34_137_PP2C'
p81
sS'D34:137_PP2B'
p82
S'D34_137_PP2B'
p83
sS'PKA'
p84
S'PKA'
p85
sS'D75_PKA'
p86
S'D75_PKA'
p87
sS'cAMP4_R2C2'
p88
S'cAMP4_R2C2'
p89
sS'PDE'
p90
S'PDE'
p91
sS'D_CK1'
p92
S'D_CK1'
p93
sS'cAMP_R2C2'
p94
S'cAMP_R2C2'
p95
sS'AMP'
p96
S'AMP'
p97
sS'Ca'
p98
S'Ca'
p99
sS'D34:75_PP2AP'
p100
S'D34_75_PP2AP'
p101
sS'D75:137'
p102
S'D75_137'
p103
sS'D34:75_PP2A'
p104
S'D34_75_PP2A'
p105
sS'CK1P'
p106
S'CK1P'
p107
sS'D34:75:137'
p108
S'D34_75_137'
p109
sS'D34:75_PP2B'
p110
S'D34_75_PP2B'
p111
sS'PP2B'
p112
S'PP2B'
p113
sS'CDK5'
p114
S'CDK5'
p115
sS'D75:137_PKA'
p116
S'D75_137_PKA'
p117
sS'D34:75:137_PP2AP'
p118
S'D34_75_137_PP2AP'
p119
sS'D137'
p120
S'D137'
p121
sS'PP2BinactiveCa2'
p122
S'PP2BinactiveCa2'
p123
sS'CK1P_PP2B'
p124
S'CK1P_PP2B'
p125
sS'D137_CDK5'
p126
S'D137_CDK5'
p127
s.