(dp0
S'E23H'
p1
S'E23H'
p2
sS'ERKP'
p3
S'ERKP'
p4
sS'Akt_PIP3_PP2A'
p5
S'Akt_PIP3_PP2A'
p6
sS'E3H_C'
p7
S'E3H_C'
p8
sS'PI3Ka_PI'
p9
S'PI3Ka_PI'
p10
sS'PTEN_PIP3'
p11
S'PTEN_PIP3'
p12
sS'Rafa'
p13
S'Rafa'
p14
sS'Per'
p15
S'Per'
p16
sS'MEKPP'
p17
S'MEKPP'
p18
sS'E23HP_ShcP'
p19
S'E23HP_ShcP'
p20
sS'MEK'
p21
S'MEK'
p22
sS'ERKPP'
p23
S'ERKPP'
p24
sS'PTEN_bpV'
p25
S'PTEN_bpV'
p26
sS'MEKPP_PP2A'
p27
S'MEKPP_PP2A'
p28
sS'PI3Ka_PIP3'
p29
S'PI3Ka_PIP3'
p30
sS'ShcP'
p31
S'ShcP'
p32
sS'PTEN'
p33
S'PTEN'
p34
sS'Akt_PI_P_PP2A'
p35
S'Akt_PI_P_PP2A'
p36
sS'E2Per'
p37
S'E2Per'
p38
sS'PP2A'
p39
S'PP2A'
p40
sS'PI3K_LY'
p41
S'PI3K_LY'
p42
sS'Akt_PI_PP_PP2A'
p43
S'Akt_PI_PP_PP2A'
p44
sS'E23HP_PI3K'
p45
S'E23HP_PI3K'
p46
sS'ERK'
p47
S'ERK'
p48
sS'PTEN_PTEN'
p49
S'PTEN_PTEN'
p50
sS'E3'
p51
S'E3'
p52
sS'E2'
p53
S'E2'
p54
sS'PTENP_PTEN'
p55
S'PTENP_PTEN'
p56
sS'ShGS'
p57
S'ShGS'
p58
sS'GS'
p59
S'GS'
p60
sS'PIP3'
p61
S'PIP3'
p62
sS'PI3K'
p63
S'PI3K'
p64
sS'PTENP'
p65
S'PTENP'
p66
sS'MEKP_PP2A'
p67
S'MEKP_PP2A'
p68
sS'Akt'
p69
S'Akt'
p70
sS'E23HP_Shc'
p71
S'E23HP_Shc'
p72
sS'MEKP'
p73
S'MEKP'
p74
sS'RasGDP'
p75
S'RasGDP'
p76
sS'E23HP'
p77
S'E23HP'
p78
sS'PI2'
p79
S'PI2'
p80
sS'E23HP_PI3Ka'
p81
S'E23HP_PI3Ka'
p82
sS'Raf'
p83
S'Raf'
p84
sS'E2_Per'
p85
S'E2_Per'
p86
sS'HRG'
p87
S'HRG'
p88
sS'MEK_PP2A'
p89
S'MEK_PP2A'
p90
sS'Akt_PI_P'
p91
S'Akt_PI_P'
p92
sS'RasGTP'
p93
S'RasGTP'
p94
sS'PI3Ka'
p95
S'PI3Ka'
p96
sS'E23HP_ShGS'
p97
S'E23HP_ShGS'
p98
sS'Akt_PIP3'
p99
S'Akt_PIP3'
p100
sS'Shc'
p101
S'Shc'
p102
sS'Akt_PI_PP'
p103
S'Akt_PI_PP'
p104
sS'E23H_C'
p105
S'E23H_C'
p106
sS'PTEN_PI'
p107
S'PTEN_PI'
p108
sS'E3H'
p109
S'E3H'
p110
s.