(dp0
S'fructose-1,6-bisphosphate'
p1
S'FBP'
p2
sS'NADH'
p3
S'NADH'
p4
sS'NAD'
p5
S'NAD'
p6
sS'coenzyme A'
p7
S'CoA'
p8
sS'carbon dioxide'
p9
S'CO2'
p10
sS'electron transfer flavoprotein (reduced form)'
p11
S'ETFred'
p12
sS'ferrocytochrome c'
p13
S'Cytc3p'
p14
sS'fumarate'
p15
S'Fum'
p16
sS'aspartate'
p17
S'Asp'
p18
sS'NADP'
p19
S'NADP_cyt'
p20
sS'glutamate'
p21
S'Glu'
p22
sS'1,2-bisphospho-D-glycerate'
p23
S'DPG'
p24
sS'ubiquinol'
p25
S'QH2'
p26
sS'ferricytochrome c'
p27
S'Cytc2p'
p28
sS'oxoglutarate'
p29
S'OG'
p30
sS'NADP+'
p31
S'NADP_p'
p32
sS'acetyl CoA'
p33
S'Acetyl_CoA'
p34
sS'adenine triphosphate'
p35
S'ATP'
p36
sS'adenine monophosphate'
p37
S'AMP'
p38
sS'glyceraldehyde 3-phosphate'
p39
S'GAP'
p40
sS'glucose'
p41
S'GLC'
p42
sS'FAD'
p43
S'FAD'
p44
sS'phosphoenolpyruvate'
p45
S'PEP'
p46
sS'ubiquinone'
p47
S'Q'
p48
sS'FADH2'
p49
S'FADH2'
p50
sS'fructose-6-phosphate'
p51
S'F6P'
p52
sS'pyruvate'
p53
S'Pyr'
p54
sS'isocitrate'
p55
S'IsoCit'
p56
sS'NADPH'
p57
S'NADPH'
p58
sS'slanine'
p59
S'Ala'
p60
sS'adenine diphosphate'
p61
S'ADP'
p62
sS'succinyl-CoA'
p63
S'SCoA'
p64
sS'electron transfer flavoprotein (oxidised form)'
p65
S'ETFox'
p66
sS'oxaloacetate'
p67
S'OXA'
p68
sS'NAD+'
p69
S'NAD_p'
p70
sS'water'
p71
S'H2O'
p72
sS'guanosine diphosphate'
p73
S'GDP'
p74
sS'guanosine triphosphate'
p75
S'GTP'
p76
sS'malate'
p77
S'Mal'
p78
sS'phosphate'
p79
S'Pi'
p80
sS'glycerol-3-phosphate'
p81
S'G3P'
p82
sS'dihydrohxyacetone-phosphate'
p83
S'DHAP'
p84
sS'lactate'
p85
S'LAC'
p86
sS'succinate'
p87
S'Suc'
p88
sS'citrate'
p89
S'Cit'
p90
s.