(dp0
S'L_r'
p1
S'L_r'
p2
sS'NOPE_b'
p3
S'NOPE_b'
p4
sS'NPPE_b'
p5
S'NPPE_b'
p6
sS'PFM_p'
p7
S'PFM_p'
p8
sS'FAAHinh_b'
p9
S'FAAHinh_b'
p10
sS'NLPE_b'
p11
S'NLPE_b'
p12
sS'PFM_r'
p13
S'PFM_r'
p14
sS'FAAHinh_m'
p15
S'FAAHinh_m'
p16
sS'L_p'
p17
S'L_p'
p18
sS'L_b'
p19
S'L_b'
p20
sS'NOPE_r'
p21
S'NOPE_r'
p22
sS'NPPE_r'
p23
S'NPPE_r'
p24
sS'NAPE_r'
p25
S'NAPE_r'
p26
sS'FAAHinh_r'
p27
S'FAAHinh_r'
p28
sS'NLPE_r'
p29
S'NLPE_r'
p30
sS'L_m'
p31
S'L_m'
p32
sS'P_m'
p33
S'P_m'
p34
sS'O_p'
p35
S'O_p'
p36
sS'O_r'
p37
S'O_r'
p38
sS'P_b'
p39
S'P_b'
p40
sS'O_b'
p41
S'O_b'
p42
sS'O_m'
p43
S'O_m'
p44
sS'P_r'
p45
S'P_r'
p46
sS'P_p'
p47
S'P_p'
p48
sS'S_p'
p49
S'S_p'
p50
sS'S_r'
p51
S'S_r'
p52
sS'FAAH_r'
p53
S'FAAH_r'
p54
sS'NAPE_b'
p55
S'NAPE_b'
p56
sS'FAAH_m'
p57
S'FAAH_m'
p58
sS'FAAH_b'
p59
S'FAAH_b'
p60
sS'S_m'
p61
S'S_m'
p62
sS'PFM_gut'
p63
S'PFM_gut'
p64
sS'A_r'
p65
S'A_r'
p66
sS'A_p'
p67
S'A_p'
p68
sS'NSPE_b'
p69
S'NSPE_b'
p70
sS'S_b'
p71
S'S_b'
p72
sS'A_b'
p73
S'A_b'
p74
sS'A_m'
p75
S'A_m'
p76
sS'NSPE_r'
p77
S'NSPE_r'
p78
s.