(dp0
S'G-alpha-GDP'
p1
S'Gd'
p2
sS'Ligand'
p3
S'L'
p4
sS'G-alpha-GTP'
p5
S'Ga'
p6
sS'Receptor'
p7
S'R'
p8
sS'Receptor-Ligand'
p9
S'RL'
p10
sS'Free levels of G-beta-gamma'
p11
S'Gbg'
p12
sS'Inactive heterotrimeric G-protein'
p13
S'G'
p14
s.