(dp0
S'S6Kp'
p1
S'S6Kp'
p2
sS'mTORC2a'
p3
S'mTORC2a'
p4
sS'IRS1307'
p5
S'IRS1307'
p6
sS'mTORC2'
p7
S'mTORC2'
p8
sS'mTORC1'
p9
S'mTORC1'
p10
sS'IRS1p307'
p11
S'IRS1p307'
p12
sS'GLUT4'
p13
S'GLUT4'
p14
sS'S6p'
p15
S'S6p'
p16
sS'IRip'
p17
S'IRip'
p18
sS'S6K'
p19
S'S6K'
p20
sS'PKB'
p21
S'PKB'
p22
sS'GLUT4m'
p23
S'GLUT4m'
p24
sS'IRins'
p25
S'IRins'
p26
sS'PKB308p'
p27
S'PKB308p'
p28
sS'IR'
p29
S'IR'
p30
sS'S6'
p31
S'S6'
p32
sS'IRS1p'
p33
S'IRS1p'
p34
sS'X'
p35
g35
sS'PKB308p473p'
p36
S'PKB308p473p'
p37
sS'PKB473p'
p38
S'PKB473p'
p39
sS'IRp'
p40
S'IRp'
p41
sS'AS160'
p42
S'AS160'
p43
sS'IRS1'
p44
S'IRS1'
p45
sS'IRi'
p46
S'IRi'
p47
sS'Xp'
p48
S'Xp'
p49
sS'AS160p'
p50
S'AS160p'
p51
sS'mTORC1a'
p52
S'mTORC1a'
p53
s.