(dp0
S'ATP'
p1
S'ATP'
p2
sS'Pi'
p3
S'Pi'
p4
sS'Ru5P'
p5
S'Ru5P'
p6
sS'E4P'
p7
S'E4P'
p8
sS'NADP'
p9
S'NADP'
p10
sS'X5P'
p11
S'X5P'
p12
sS'Pext'
p13
S'Pext'
p14
sS'PGA'
p15
S'PGA'
p16
sS'GAP'
p17
S'GAP'
p18
sS'RuBP'
p19
S'RuBP'
p20
sS'DPGA'
p21
S'DPGA'
p22
sS'G1P'
p23
S'G1P'
p24
sS'ADP'
p25
S'ADP'
p26
sS'H'
p27
g27
sS'NADPH'
p28
S'NADPH'
p29
sS'R5P'
p30
S'R5P'
p31
sS'SBP'
p32
S'SBP'
p33
sS'FBP'
p34
S'FBP'
p35
sS'DHAP'
p36
S'DHAP'
p37
sS'S7P'
p38
S'S7P'
p39
sS'G6P'
p40
S'G6P'
p41
sS'F6P'
p42
S'F6P'
p43
s.