(dp0
S'II'
p1
S'II'
p2
sS'IX'
p3
S'IX'
p4
sS'VIIIa_IXa'
p5
S'VIIIa_IXa'
p6
sS'Xa'
p7
S'Xa'
p8
sS'IX_TF_VIIa'
p9
S'IX_TF_VIIa'
p10
sS'Va'
p11
S'Va'
p12
sS'mIIa'
p13
S'mIIa'
p14
sS'Va_Xa'
p15
S'Va_Xa'
p16
sS'IXa'
p17
S'IXa'
p18
sS'II_Va_Xa'
p19
S'II_Va_Xa'
p20
sS'VIIIa'
p21
S'VIIIa'
p22
sS'X_TF_VIIa'
p23
S'X_TF_VIIa'
p24
sS'IIa'
p25
S'IIa'
p26
sS'VIII'
p27
S'VIII'
p28
sS'TF_VIIa'
p29
S'TF_VIIa'
p30
sS'X'
p31
g31
sS'V'
p32
g32
sS'X_VIIIa_IXa'
p33
S'X_VIIIa_IXa'
p34
s.