(dp0
S'NF-kB:IkB:P'
p1
S'NF_kB_IkB_P'
p2
sS'C3*'
p3
S'C3_star'
p4
sS'FS'
p5
S'FS'
p6
sS'L:RF'
p7
S'L_RF'
p8
sS'FL'
p9
S'FL'
p10
sS'p43/p41'
p11
S'p43_p41'
p12
sS'NF-kB:IkB'
p13
S'NF_kB_IkB'
p14
sS'RF'
p15
S'RF'
p16
sS'C8'
p17
S'C8'
p18
sS'C3'
p19
S'C3'
p20
sS'NF-kB*'
p21
S'NF_kB_star'
p22
sS'L:RF:FS:FS'
p23
S'L_RF_FS_FS'
p24
sS'p43-FLIP:IKK*'
p25
S'p43_FLIP_IKK_star'
p26
sS'L:RF:FL:FS'
p27
S'L_RF_FL_FS'
p28
sS'L'
p29
g29
sS'L:RF:C8:FS'
p30
S'L_RF_C8_FS'
p31
sS'IKK'
p32
S'IKK'
p33
sS'L:RF:FL:FL'
p34
S'L_RF_FL_FL'
p35
sS'L:RF:C8'
p36
S'L_RF_C8'
p37
sS'L:RF:FS'
p38
S'L_RF_FS'
p39
sS'p43-FLIP'
p40
S'p43_FLIP'
p41
sS'L:RF:FL'
p42
S'L_RF_FL'
p43
sS'C8*'
p44
S'C8_star'
p45
s.