(dp0
S'A_dopa'
p1
S'A_dopa'
p2
sS'C2_M'
p3
S'C2_M'
p4
sS'C2_B'
p5
S'C2_B'
p6
sS'C1_M'
p7
S'C1_M'
p8
sS'C_dopa'
p9
S'C_dopa'
p10
sS'C1_B'
p11
S'C1_B'
p12
sS'A_B'
p13
S'A_B'
p14
sS'A_M'
p15
S'A_M'
p16
sS'C_3-OMD'
p17
S'C_OMD'
p18
s.