(dp0
S'MAPKK-Pase_P-Mek1'
p1
S'KKPase_P_KK'
p2
sS'relative maximal K_PP'
p3
S'rel_K_PP_max'
p4
sS'Erk2-P'
p5
S'P_K'
p6
sS'P-Mos_P-Mek1'
p7
S'P_KKK_P_KK'
p8
sS'MAPK-Pase_P-Erk2'
p9
S'KPase_P_K'
p10
sS'E2_Mos-P'
p11
S'E2_P_KKK'
p12
sS'Mos-P'
p13
S'P_KKK'
p14
sS'Erk2'
p15
S'K'
p16
sS'Mos'
p17
S'KKK'
p18
sS'KK_PP_norm'
p19
S'KK_PP_norm'
p20
sS'E1_Mos'
p21
S'E1_KKK'
p22
sS'MAPKKK inactivator'
p23
S'E2'
p24
sS'Erk2-PP'
p25
S'PP_K'
p26
sS'MAPKK-Pase'
p27
S'KKPase'
p28
sS'P-Mos_Mek1'
p29
S'P_KKK_KK'
p30
sS'MAPK-Pase'
p31
S'KPase'
p32
sS'PP-Mek1_P-Erk2'
p33
S'PP_KK_P_K'
p34
sS'KKK_P_norm'
p35
S'KKK_P_norm'
p36
sS'K_PP_norm'
p37
S'K_PP_norm'
p38
sS'MAPK-Pase_PP-Erk2'
p39
S'KPase_PP_K'
p40
sS'Mek1-PP'
p41
S'PP_KK'
p42
sS'MAPKKK activator (Ras)'
p43
S'E1'
p44
sS'PP-Mek1_Erk2'
p45
S'PP_KK_K'
p46
sS'MAPKK-Pase_PP-Mek1'
p47
S'KKPase_PP_KK'
p48
sS'Mek1'
p49
S'KK'
p50
sS'Mek1-P'
p51
S'P_KK'
p52
s.