(dp0
S'pyruvate'
p1
S'species_1'
p2
sS'2phosphoglycerate'
p3
S'species_5'
p4
sS'pyruvate external'
p5
S'species_26'
p6
sS'nad'
p7
S'species_19'
p8
sS'3phosphoglycerate'
p9
S'species_23'
p10
sS'glyceraldehyde3phosphate'
p11
S'species_18'
p12
sS'glucose'
p13
S'species_10'
p14
sS'nadh'
p15
S'species_20'
p16
sS'phosphoenolpyruvate'
p17
S'species_4'
p18
sS'glycerol3phosphate cytosol'
p19
S'species_9'
p20
sS'adpc'
p21
S'species_2'
p22
sS'adpg'
p23
S'species_12'
p24
sS'glycerol3phosphate'
p25
S'species_22'
p26
sS'bisphosphoglycerate'
p27
S'species_21'
p28
sS'glycerol'
p29
S'species_24'
p30
sS'3phosphoglycerate cytosol'
p31
S'species_7'
p32
sS'glucose external'
p33
S'species_25'
p34
sS'glucose6phosphate'
p35
S'species_14'
p36
sS'ampc'
p37
S'species_6'
p38
sS'dihydroxyacetonephosphate'
p39
S'species_17'
p40
sS'ampg'
p41
S'species_13'
p42
sS'glycerol external'
p43
S'species_27'
p44
sS'fructose16bisphosphate'
p45
S'species_16'
p46
sS'dihydroxyacetonephosphate cytosol'
p47
S'species_8'
p48
sS'atpc'
p49
S'species_3'
p50
sS'fructose6phosphate'
p51
S'species_15'
p52
sS'atpg'
p53
S'species_11'
p54
s.