(dp0
S'Aspartyl phosphate'
p1
S'aspp'
p2
sS'Homoserine'
p3
S'hs'
p4
sS'Phos'
p5
S'phos'
p6
sS'NADP'
p7
S'nadp'
p8
sS'O-Phospho-homoserine'
p9
S'hsp'
p10
sS'ADP'
p11
S'adp'
p12
sS'Aspartate beta-semialdehyde'
p13
S'asa'
p14
sS'NADPH'
p15
S'nadph'
p16
sS'Aspartate'
p17
S'asp'
p18
sS'ATP'
p19
S'atp'
p20
sS'Threonine'
p21
S'thr'
p22
s.