(dp0
S'RRGSmGaGTP'
p1
S'RRGSmGaGTP'
p2
sS'LRRGSmGaGTPEffectorOFF'
p3
S'LRRGSmGaGTPEffectorOFF'
p4
sS'LRRGSmGabg'
p5
S'LRRGSmGabg'
p6
sS'RGSmGaGTP'
p7
S'RGSmGaGTP'
p8
sS'LR'
p9
S'LR'
p10
sS'LRRGSmGaGTP'
p11
S'LRRGSmGaGTP'
p12
sS'LRGabg'
p13
S'LRGabg'
p14
sS'RGabg'
p15
S'RGabg'
p16
sS'Gbg'
p17
S'Gbg'
p18
sS'L'
p19
g19
sS'RRGSmGabg'
p20
S'RRGSmGabg'
p21
sS'z2'
p22
S'z2'
p23
sS'P'
p24
g24
sS'GaGTPEffectorOFF'
p25
S'GaGTPEffectorOFF'
p26
sS'R'
p27
g27
sS'Gabg'
p28
S'Gabg'
p29
sS'GaGTP'
p30
S'GaGTP'
p31
sS'GaGDPP'
p32
S'GaGDPP'
p33
sS'z1'
p34
S'z1'
p35
sS'RRGSm'
p36
S'RRGSm'
p37
sS'z3'
p38
S'z3'
p39
sS'GaGTPEffector'
p40
S'GaGTPEffector'
p41
sS'RGSc'
p42
S'RGSc'
p43
sS'RGSm'
p44
S'RGSm'
p45
sS'GaGDP'
p46
S'GaGDP'
p47
sS'Effector'
p48
S'Effector'
p49
sS'RGSmGaGTPEffectorOFF'
p50
S'RGSmGaGTPEffectorOFF'
p51
sS'LRRGSm'
p52
S'LRRGSm'
p53
s.