(dp0
S'PS_f'
p1
S'PS_f'
p2
sS'TFPI_Xa_l'
p3
S'TFPI_Xa_l'
p4
sS'Xa_l'
p5
S'Xa_l'
p6
sS'TFPI_Xa_TF_VIIa_l'
p7
S'TFPI_Xa_TF_VIIa_l'
p8
sS'TF_VIIa_l'
p9
S'TF_VIIa_l'
p10
sS'TF_VII_Xa_l'
p11
S'TF_VII_Xa_l'
p12
sS'PS_l'
p13
S'PS_l'
p14
sS'Xa_f'
p15
S'Xa_f'
p16
sS'TF_VIIa_Xa_l'
p17
S'TF_VIIa_Xa_l'
p18
sS'mIIa_AT_l'
p19
S'mIIa_AT_l'
p20
sS'Xa_AT_f'
p21
S'Xa_AT_f'
p22
sS'VII_f'
p23
S'VII_f'
p24
sS'APC_PS_l'
p25
S'APC_PS_l'
p26
sS'VII_l'
p27
S'VII_l'
p28
sS'X_f'
p29
S'X_f'
p30
sS'VII_Xa_l'
p31
S'VII_Xa_l'
p32
sS'LIPID'
p33
S'LIPID'
p34
sS'X_l'
p35
S'X_l'
p36
sS'Xa_Va_mIIa_l'
p37
S'Xa_Va_mIIa_l'
p38
sS'AT_f'
p39
S'AT_f'
p40
sS'IIa_AT_f'
p41
S'IIa_AT_f'
p42
sS'APC_f'
p43
S'APC_f'
p44
sS'V_f'
p45
S'V_f'
p46
sS'Vai_l'
p47
S'Vai_l'
p48
sS'mIIa_f'
p49
S'mIIa_f'
p50
sS'V_l'
p51
S'V_l'
p52
sS'APC_l'
p53
S'APC_l'
p54
sS'Xa_Va_l'
p55
S'Xa_Va_l'
p56
sS'Vai_f'
p57
S'Vai_f'
p58
sS'mIIa_l'
p59
S'mIIa_l'
p60
sS'Va_f'
p61
S'Va_f'
p62
sS'V_mIIa_l'
p63
S'V_mIIa_l'
p64
sS'alpha2M_Xa_l'
p65
S'alpha2M_Xa_l'
p66
sS'Va_l'
p67
S'Va_l'
p68
sS'TM_l'
p69
S'TM_l'
p70
sS'Xa_Va_II_l'
p71
S'Xa_Va_II_l'
p72
sS'APC_PS_Va_l'
p73
S'APC_PS_Va_l'
p74
sS'II_l'
p75
S'II_l'
p76
sS'TF_VII_l'
p77
S'TF_VII_l'
p78
sS'VIIa_l'
p79
S'VIIa_l'
p80
sS'II_f'
p81
S'II_f'
p82
sS'V_Xa_l'
p83
S'V_Xa_l'
p84
sS'VIIa_f'
p85
S'VIIa_f'
p86
sS'IIa_TM_l'
p87
S'IIa_TM_l'
p88
sS'TF_VIIa_X_l'
p89
S'TF_VIIa_X_l'
p90
sS'alpha2M_IIa_l'
p91
S'alpha2M_IIa_l'
p92
sS'IIa_TM_PC_l'
p93
S'IIa_TM_PC_l'
p94
sS'IIa_f'
p95
S'IIa_f'
p96
sS'V_IIa_l'
p97
S'V_IIa_l'
p98
sS'PC_f'
p99
S'PC_f'
p100
sS'TFPI_f'
p101
S'TFPI_f'
p102
sS'PC_l'
p103
S'PC_l'
p104
sS'TF_l'
p105
S'TF_l'
p106
sS'alpha2M_l'
p107
S'alpha2M_l'
p108
s.