(dp0
S'Tau_P2'
p1
S'Tau_P2'
p2
sS'Tau_P1'
p3
S'Tau_P1'
p4
sS'AbetaPlaque'
p5
S'AbetaPlaque'
p6
sS'AggTau'
p7
S'AggTau'
p8
sS'p53_mRNA'
p9
S'p53_mRNA'
p10
sS'GliaM1'
p11
S'GliaM1'
p12
sS'Sink'
p13
S'Sink'
p14
sS'disaggPlaque1'
p15
S'disaggPlaque1'
p16
sS'Mdm2_p53_Ub3'
p17
S'Mdm2_p53_Ub3'
p18
sS'Mdm2_p53_Ub2'
p19
S'Mdm2_p53_Ub2'
p20
sS'Mdm2_p53_Ub4'
p21
S'Mdm2_p53_Ub4'
p22
sS'ATP'
p23
S'ATP'
p24
sS'Mdm2_P'
p25
S'Mdm2_P'
p26
sS'Mdm2'
p27
S'Mdm2'
p28
sS'E2_Ub'
p29
S'E2_Ub'
p30
sS'p53_Ub4_Proteasome'
p31
S'p53_Ub4_Proteasome'
p32
sS'Proteasome_Tau'
p33
S'Proteasome_Tau'
p34
sS'AggTau_Proteasome'
p35
S'AggTau_Proteasome'
p36
sS'Proteasome'
p37
S'Proteasome'
p38
sS'Mdm2DUB'
p39
S'Mdm2DUB'
p40
sS'Mdm2_P_Ub2'
p41
S'Mdm2_P_Ub2'
p42
sS'disaggPlaque2'
p43
S'disaggPlaque2'
p44
sS'Mdm2_Ub'
p45
S'Mdm2_Ub'
p46
sS'Mdm2_P_Ub4'
p47
S'Mdm2_P_Ub4'
p48
sS'GSK3b_p53_P'
p49
S'GSK3b_p53_P'
p50
sS'Mdm2_Ub4'
p51
S'Mdm2_Ub4'
p52
sS'AMP'
p53
S'AMP'
p54
sS'ROS'
p55
S'ROS'
p56
sS'E1'
p57
S'E1'
p58
sS'GliaA'
p59
S'GliaA'
p60
sS'Mdm2_mRNA'
p61
S'Mdm2_mRNA'
p62
sS'E2'
p63
S'E2'
p64
sS'p53'
p65
S'p53'
p66
sS'Mdm2_p53_Ub'
p67
S'Mdm2_p53_Ub'
p68
sS'ADP'
p69
S'ADP'
p70
sS'damDNA'
p71
S'damDNA'
p72
sS'Mdm2_P_Ub4_Proteasome'
p73
S'Mdm2_P_Ub4_Proteasome'
p74
sS'E1_Ub'
p75
S'E1_Ub'
p76
sS'DUB'
p77
S'DUB'
p78
sS'IR'
p79
S'IR'
p80
sS'GSK3b'
p81
S'GSK3b'
p82
sS'AbetaDimer'
p83
S'AbetaDimer'
p84
sS'PP1'
p85
S'PP1'
p86
sS'NFT'
p87
S'NFT'
p88
sS'ATMI'
p89
S'ATMI'
p90
sS'Abeta'
p91
S'Abeta'
p92
sS'GliaM2'
p93
S'GliaM2'
p94
sS'ATMA'
p95
S'ATMA'
p96
sS'Ub'
p97
S'Ub'
p98
sS'Tau'
p99
S'Tau'
p100
sS'Abeta_antiAb'
p101
S'Abeta_antiAb'
p102
sS'Mdm2_p53'
p103
S'Mdm2_p53'
p104
sS'AggAbeta_Proteasome'
p105
S'AggAbeta_Proteasome'
p106
sS'Source'
p107
S'Source'
p108
sS'Mdm2_P1_p53_Ub4'
p109
S'Mdm2_P1_p53_Ub4'
p110
sS'MT_Tau'
p111
S'MT_Tau'
p112
sS'p53DUB'
p113
S'p53DUB'
p114
sS'Mdm2_P_Ub'
p115
S'Mdm2_P_Ub'
p116
sS'Mdm2_P_Ub3'
p117
S'Mdm2_P_Ub3'
p118
sS'AbetaPlaque_GliaA'
p119
S'AbetaPlaque_GliaA'
p120
sS'p53_P'
p121
S'p53_P'
p122
sS'Mdm2_Ub2'
p123
S'Mdm2_Ub2'
p124
sS'Mdm2_Ub4_Proteasome'
p125
S'Mdm2_Ub4_Proteasome'
p126
sS'degAbetaGlia'
p127
S'degAbetaGlia'
p128
sS'GliaI'
p129
S'GliaI'
p130
sS'Mdm2_Ub3'
p131
S'Mdm2_Ub3'
p132
sS'AbetaDimer_antiAb'
p133
S'AbetaDimer_antiAb'
p134
sS'GSK3b_p53'
p135
S'GSK3b_p53'
p136
sS'antiAb'
p137
S'antiAb'
p138
s.