(dp0
S'DecoyR'
p1
S'DecoyR'
p2
sS'STAT5'
p3
S'STAT5'
p4
sS'SOCS3mRNA'
p5
S'SOCS3mRNA'
p6
sS'pJAK2'
p7
S'pJAK2'
p8
sS'SOCS3'
p9
S'SOCS3'
p10
sS'pSTAT5'
p11
S'pSTAT5'
p12
sS'CD274mRNA'
p13
S'CD274mRNA'
p14
sS'p_IL13_Rec_i'
p15
S'p_IL13_Rec_i'
p16
sS'IL13_Rec'
p17
S'IL13_Rec'
p18
sS'p_IL13_Rec'
p19
S'p_IL13_Rec'
p20
sS'JAK2'
p21
S'JAK2'
p22
sS'IL13_DecoyR'
p23
S'IL13_DecoyR'
p24
sS'Rec'
p25
S'Rec'
p26
sS'IL13'
p27
S'IL13'
p28
sS'SHP1'
p29
S'SHP1'
p30
sS'Rec_i'
p31
S'Rec_i'
p32
s.