(dp0
S'Scaffold_MEK'
p1
S'S_m1_0_m1'
p2
sS'Scaffold_MAPK-PP_MEK_RAF-P'
p3
S'S_2_0_1'
p4
sS'RAF kinase'
p5
S'RAFK'
p6
sS'MEK-PP'
p7
S'K_2_2'
p8
sS'Scaffold_MAPK-PP_MEK-P'
p9
S'S_2_1_m1'
p10
sS'Scaffold'
p11
S'S_m1_m1_m1'
p12
sS'Scaffold_MEK-P'
p13
S'S_m1_1_m1'
p14
sS'Scaffold_MEK-PP'
p15
S'S_m1_2_m1'
p16
sS'Scaffold_MAPK-P'
p17
S'S_1_m1_m1'
p18
sS'Scaffold_RAF'
p19
S'S_RAFK_m1_m1_0'
p20
sS'Scaffold_MAPK-P_MEK-P'
p21
S'S_1_1_m1'
p22
sS'MEK-P_MEKPase'
p23
S'K_MEKP_2_1'
p24
sS'Scaffold_MEK-P_RAF-P'
p25
S'S_m1_1_1'
p26
sS'MEK phosphatase'
p27
S'MEKP'
p28
sS'Scaffold_MAPK_MEK_RAF-P'
p29
S'S_0_0_1'
p30
sS'MAPK phosphatase'
p31
S'MAPKP'
p32
sS'Scaffold_MAPK-P_RAF'
p33
S'S_RAFK_1_m1_0'
p34
sS'MAPK-P_MAPKPase'
p35
S'K_MAPKP_1_1'
p36
sS'RAF'
p37
S'K_3_0'
p38
sS'Scaffold_MEK-P_RAF'
p39
S'S_RAFK_m1_1_0'
p40
sS'Scaffold_MAPK_RAF'
p41
S'S_RAFK_0_m1_0'
p42
sS'Scaffold_MAPK-P_MEK_RAF'
p43
S'S_RAFK_1_0_0'
p44
sS'Scaffold_MAPK-P_RAF-P'
p45
S'S_1_m1_1'
p46
sS'MAPK-P'
p47
S'K_1_1'
p48
sS'MEK-PP_MEKPase'
p49
S'K_MEKP_2_2'
p50
sS'MEK-P'
p51
S'K_2_1'
p52
sS'Scaffold_MAPK-PP_RAF'
p53
S'S_RAFK_2_m1_0'
p54
sS'Scaffold_MAPK_MEK-P_RAF'
p55
S'S_RAFK_0_1_0'
p56
sS'MEK_RAF-P'
p57
S'K_K_2_0_3_1'
p58
sS'Scaffold_RAF-P'
p59
S'S_m1_m1_1'
p60
sS'Scaffold_MAPK_RAF-P'
p61
S'S_0_m1_1'
p62
sS'Scaffold_MAPK_MEK_RAF'
p63
S'S_RAFK_0_0_0'
p64
sS'Scaffold_MAPK_MEK'
p65
S'S_0_0_m1'
p66
sS'Scaffold_MAPK-PP_RAF-P'
p67
S'S_2_m1_1'
p68
sS'RAF phosphatase'
p69
S'RAFP'
p70
sS'Scaffold_MAPK'
p71
S'S_0_m1_m1'
p72
sS'Scaffold_MAPK_MEK-P'
p73
S'S_0_1_m1'
p74
sS'MAPK-PP'
p75
S'K_1_2'
p76
sS'Scaffold_MAPK-PP_MEK-PP_RAF'
p77
S'S_RAFK_2_2_0'
p78
sS'Scaffold_MAPK-P_MEK-PP'
p79
S'S_1_2_m1'
p80
sS'Scaffold_MAPK-P_MEK_RAF-P'
p81
S'S_1_0_1'
p82
sS'Scaffold_MAPK-P_MEK-PP_RAF'
p83
S'S_RAFK_1_2_0'
p84
sS'Scaffold_MAPK-P_MEK-P_RAF-P'
p85
S'S_1_1_1'
p86
sS'Scaffold_MAPK-P_MEK'
p87
S'S_1_0_m1'
p88
sS'Scaffold_MAPK-PP_MEK-P_RAF-P'
p89
S'S_2_1_1'
p90
sS'Scaffold_MAPK_MEK-P_RAF-P'
p91
S'S_0_1_1'
p92
sS'Scaffold_MEK_RAF-P'
p93
S'S_m1_0_1'
p94
sS'Scaffold_MAPK_MEK-PP_RAF-P'
p95
S'S_0_2_1'
p96
sS'Scaffold_MAPK-PP_MEK-PP'
p97
S'S_2_2_m1'
p98
sS'RAF-P'
p99
S'K_3_1'
p100
sS'Scaffold_MAPK-PP_MEK-PP_RAF-P'
p101
S'S_2_2_1'
p102
sS'Scaffold_MAPK-P_MEK-P_RAF'
p103
S'S_RAFK_1_1_0'
p104
sS'RAF_RAFK'
p105
S'K_RAFK_3_0'
p106
sS'MAPK-PP_MAPKPase'
p107
S'K_MAPKP_1_2'
p108
sS'Scaffold_MAPK-PP_MEK-P_RAF'
p109
S'S_RAFK_2_1_0'
p110
sS'Scaffold_MAPK-P_MEK-PP_RAF-P'
p111
S'S_1_2_1'
p112
sS'Scaffold_MEK-PP_RAF'
p113
S'S_RAFK_m1_2_0'
p114
sS'Scaffold_MAPK-PP_MEK_RAF'
p115
S'S_RAFK_2_0_0'
p116
sS'Scaffold_MEK_RAF'
p117
S'S_RAFK_m1_0_0'
p118
sS'MAPK'
p119
S'K_1_0'
p120
sS'Scaffold_MAPK-PP_MEK'
p121
S'S_2_0_m1'
p122
sS'MEK'
p123
S'K_2_0'
p124
sS'Scaffold_MAPK_MEK-PP_RAF'
p125
S'S_RAFK_0_2_0'
p126
sS'MEK-P_RAF-P'
p127
S'K_K_2_1_3_1'
p128
sS'RAF-P_RAFPase'
p129
S'K_RAFP_3_1'
p130
sS'Scaffold_MAPK-PP'
p131
S'S_2_m1_m1'
p132
sS'MAPK_MEK-PP'
p133
S'K_K_1_0_2_2'
p134
sS'Scaffold_MAPK_MEK-PP'
p135
S'S_0_2_m1'
p136
sS'MAPK-P_MEK-PP'
p137
S'K_K_1_1_2_2'
p138
sS'Scaffold_MEK-PP_RAF-P'
p139
S'S_m1_2_1'
p140
s.