(dp0
S'Acetyl-CoA'
p1
S'AcCoA'
p2
sS'S-adenosyl-L-methionine'
p3
S'SAM'
p4
sS'Spermine'
p5
S'S'
p6
sS'S-adenosylmethioninamine'
p7
S'A'
p8
sS'Spermidine'
p9
S'D'
p10
sS'CoA'
p11
S'CoA'
p12
sS'N1-Acetylspermine'
p13
S'aS'
p14
sS'Putrescine'
p15
S'P'
p16
sS'N1-Acetylspermidine'
p17
S'aD'
p18
sS'Methionine'
p19
S'Met'
p20
sS'L-Ornithine'
p21
S'ORN'
p22
s.