(dp0
S'EGF-EGFR'
p1
S'x3'
p2
sS'EGF-EGFR*^2'
p3
S'x5'
p4
sS'EGF-EGFRi*^2-GAP-Shc*-Grb2-Sos-Ras-GTP'
p5
S'x68'
p6
sS"ERKi-P-P'ase3i"
p7
S'x85'
p8
sS'EGF-EGFR*^2-GAP-Shc*-Grb2-Sos-Ras-GTP'
p9
S'x37'
p10
sS'EGF-EGFRi*^2-GAP-Shc*-Grb2'
p11
S'x65'
p12
sS'EGFRideg'
p13
S'x86'
p14
sS'EGF'
p15
S'x1'
p16
sS"ERK-PP-P'ase3"
p17
S'x61'
p18
sS'EGF-EGFR*^2-GAP-Grb2-Sos-Ras-GDP'
p19
S'x27'
p20
sS"Rafi*-P'ase"
p21
S'x73'
p22
sS'EGF-EGFR*^2-GAP-Shc*'
p23
S'x33'
p24
sS'MEK-P-Raf*'
p25
S'x50'
p26
sS'ERK-P-MEK-PP'
p27
S'x58'
p28
sS'EGF-EGFRi*^2-GAP-Shc*-Grb2-Sos-Ras-GDP'
p29
S'x67'
p30
sS'Ras-GDP'
p31
S'x26'
p32
sS'EGF-EGFR*^2-GAP-Grb2-Prot'
p33
S'x7'
p34
sS"MEK-PP-P'ase2"
p35
S'x52'
p36
sS'Shc'
p37
S'x31'
p38
sS'EGF-EGFR*^2-GAP-Grb2-Sos-Ras-GDP-Prot'
p39
S'x89'
p40
sS'EGF-EGFR*^2-GAP-Grb2-Sos-Ras-GTP'
p41
S'x29'
p42
sS'Shc*-Grb2'
p43
S'x39'
p44
sS'Raf'
p45
S'x41'
p46
sS'Phosphatase2'
p47
S'x53'
p48
sS'ERK-PP'
p49
S'x59'
p50
sS'Ras-GTP'
p51
S'x28'
p52
sS'EGF-EGFRi*^2-GAP'
p53
S'x17'
p54
sS't_EGF_EGFR*'
p55
S'EGF_EGFR_act'
p56
sS'MEKi-PP'
p57
S'x77'
p58
sS'EGF-EGFRi*^2-GAP-Grb2-Sos'
p59
S'x19'
p60
sS'Shc*-Grb2-Sos'
p61
S'x38'
p62
sS'ERK-P'
p63
S'x57'
p64
sS'EGF-EGFR*^2-GAP-Grb2-Sos'
p65
S'x25'
p66
sS'Proti'
p67
S'x9'
p68
sS'Raf-Ras-GTP'
p69
S'x42'
p70
sS"MEKi-P-P'ase2i"
p71
S'x79'
p72
sS'MEKi-Rafi*'
p73
S'x74'
p74
sS'EGF-EGFRi*^2-GAP-Grb2-Sos-Ras-GTP'
p75
S'x21'
p76
sS'EGF-EGFR*^2-GAP-Shc*-Grb2-Sos'
p77
S'x35'
p78
sS't_ERK_PP'
p79
S'ERK_PP'
p80
sS'Rafi*'
p81
S'x72'
p82
sS'EGF-EGFR*^2-GAP-Grb2'
p83
S'x23'
p84
sS'MEKi-P-Rafi*'
p85
S'x76'
p86
sS'EGF-EGFRi*^2-GAP-Grb2'
p87
S'x18'
p88
sS'EGFideg'
p89
S'x13'
p90
sS'EGF-EGFR*^2-GAP-Shc*-Grb2-Sos-Ras-GDP'
p91
S'x36'
p92
sS'Shc*'
p93
S'x40'
p94
sS'EGF-EGFR*^2-GAP'
p95
S'x15'
p96
sS'Ras-GTP*'
p97
S'x43'
p98
sS'EGF-EGFR*^2-GAP-Shc*-Grb2'
p99
S'x34'
p100
sS'EGF-EGFRi^2'
p101
S'x11'
p102
sS'EGF-EGFR*^2-GAP-Grb2-Sos-Prot'
p103
S'x88'
p104
sS'EGFRi'
p105
S'x6'
p106
sS"MEKi-PP-P'ase2i"
p107
S'x78'
p108
sS"MEK-P-P'ase2"
p109
S'x54'
p110
sS'EGF-EGFR*^2-GAP-Shc*-Grb2-Sos-Prot'
p111
S'x92'
p112
sS'EGF-EGFRi'
p113
S'x10'
p114
sS'Prot'
p115
S'x12'
p116
sS't_SHC_P_t'
p117
S'SHC_P_t'
p118
sS"Raf*-P'ase"
p119
S'x46'
p120
sS'EGF-EGFR*^2-GAP-Shc*-Grb2-Sos-Ras-GTP-Prot'
p121
S'x94'
p122
sS'MEK-P'
p123
S'x49'
p124
sS"ERKi-PP-P'ase3i"
p125
S'x84'
p126
sS'Phosphotase1'
p127
S'x44'
p128
sS'Phosphotase3'
p129
S'x60'
p130
sS'EGF-EGFRi*^2-GAP-Shc'
p131
S'x63'
p132
sS'ERKi-PP'
p133
S'x83'
p134
sS'Grb2-Sos'
p135
S'x30'
p136
sS'MEK-PP'
p137
S'x51'
p138
sS'ERKi-MEKi-PP'
p139
S'x80'
p140
sS'EGF-EGFRi*^2'
p141
S'x8'
p142
sS'EGF-EGFRi*^2deg'
p143
S'x87'
p144
sS'MEK'
p145
S'x47'
p146
sS'Rasi-GTP'
p147
S'x69'
p148
sS't_Ras_GTP'
p149
S'Ras_GTP'
p150
sS'EGF-EGFRi*^2-GAP-Grb2-Sos-Ras-GDP'
p151
S'x20'
p152
sS'ERK-MEK-PP'
p153
S'x56'
p154
sS'EGFR'
p155
S'x2'
p156
sS't_Raf*'
p157
S'Raf_act'
p158
sS'Rafi-Rasi-GTP'
p159
S'x70'
p160
sS'MEKi-P'
p161
S'x75'
p162
sS'EGF-EGFR*^2-GAP-Shc*-Grb2-Prot'
p163
S'x91'
p164
sS'GAP'
p165
S'x14'
p166
sS'Grb2'
p167
S'x22'
p168
sS'EGFi'
p169
S'x16'
p170
sS'EGF-EGFR*^2-GAP-Shc*-Grb2-Sos-Ras-GDP-Prot'
p171
S'x93'
p172
sS'ERK'
p173
S'x55'
p174
sS'EGF-EGFR*^2-GAP-Shc'
p175
S'x32'
p176
sS'EGF-EGFRi*^2-GAP-Shc*'
p177
S'x64'
p178
sS'EGF-EGFR^2'
p179
S'x4'
p180
sS'Raf*'
p181
S'x45'
p182
sS'EGF-EGFR*^2-GAP-Grb2-Sos-Ras-GTP-Prot'
p183
S'x90'
p184
sS't_MEK_PP'
p185
S'MEK_PP'
p186
sS'Rasi-GTP*'
p187
S'x71'
p188
sS'MEK-Raf*'
p189
S'x48'
p190
sS'ERKi-P'
p191
S'x81'
p192
sS'ERKi-P-MEKi-PP'
p193
S'x82'
p194
sS"ERK-P-P'ase3"
p195
S'x62'
p196
sS'Sos'
p197
S'x24'
p198
sS'EGF-EGFRi*^2-GAP-Shc*-Grb2-Sos'
p199
S'x66'
p200
s.