(dp0
S'Rn'
p1
S'species_18'
p2
sS'Bnp'
p3
S'species_13'
p4
sS'Mc'
p5
S'species_5'
p6
sS'Bc'
p7
S'species_1'
p8
sS'Cc'
p9
S'species_4'
p10
sS'Bn'
p11
S'species_3'
p12
sS'Mb'
p13
S'species_0'
p14
sS'Ccp'
p15
S'species_6'
p16
sS'PCnp'
p17
S'species_14'
p18
sS'Pc'
p19
S'species_8'
p20
sS'Rc'
p21
S'species_17'
p22
sS'PCn'
p23
S'species_12'
p24
sS'Mp'
p25
S'species_7'
p26
sS'In'
p27
S'species_15'
p28
sS'PCc'
p29
S'species_10'
p30
sS'PCcp'
p31
S'species_11'
p32
sS'Bcp'
p33
S'species_2'
p34
sS'Pcp'
p35
S'species_9'
p36
sS'Mr'
p37
S'species_16'
p38
s.