(dp0
S'e'
p1
g1
sS'd'
p2
g2
sS'rs'
p3
S'rs'
p4
sS'rscon'
p5
S'rscon'
p6
sS'gstar'
p7
S'gstar'
p8
sS'y'
p9
g9
sS'ip3'
p10
S'ip3'
p11
sS'r'
p12
g12
sS'atp'
p13
S'atp'
p14
sS'delta'
p15
S'delta'
p16
sS'ip3con'
p17
S'ip3con'
p18
sS'x'
p19
g19
sS'ca'
p20
S'ca'
p21
sS'ro'
p22
S'ro'
p23
sS'kg'
p24
S'kg'
p25
sS'ad'
p26
S'ad'
p27
s.