(dp0
S'NADH'
p1
S'NADH'
p2
sS'Mixed flow glucose'
p3
S'GlcX0'
p4
sS'NAD'
p5
S'NAD'
p6
sS'Glucose-6-Phosphate'
p7
S'G6P'
p8
sS'Dihydroxyacetone phosphate'
p9
S'DHAP'
p10
sS'ATP'
p11
S'ATP'
p12
sS'Glyceraldehyde 3-phosphate'
p13
S'GAP'
p14
sS'Phosphoenolpyruvate'
p15
S'PEP'
p16
sS'Fructose 1,6-bisphosphate'
p17
S'FBP'
p18
sS'Pyruvate'
p19
S'Pyr'
p20
sS'Cytosolic glucose'
p21
S'Glc'
p22
sS'EtOH'
p23
S'EtOH'
p24
sS'AMP'
p25
S'AMP'
p26
sS'Glycerol'
p27
S'Glyc'
p28
sS'Fructose-6-Phosphate'
p29
S'F6P'
p30
sS'ADP'
p31
S'ADP'
p32
sS'1,3-Bisphosphoglycerate'
p33
S'BPG'
p34
sS'P'
p35
g35
sS'Acetaldehyde'
p36
S'ACA'
p37
sS'Extracellular cyanide'
p38
S'CNX'
p39
sS'Mixed flow cyanide'
p40
S'CNX0'
p41
sS'Extracellular ethanol'
p42
S'EtOHX'
p43
sS'Extracellular glycerol'
p44
S'GlycX'
p45
sS'Extracellular glucose'
p46
S'GlcX'
p47
sS'Extracellular acetaldehyde'
p48
S'ACAX'
p49
s.