(dp0
S'STAT5'
p1
S'STAT5'
p2
sS'pJAK2'
p3
S'pJAK2'
p4
sS'pSTAT5'
p5
S'pSTAT5'
p6
sS'IL13'
p7
S'IL13'
p8
sS'p_IL13_Rec_i'
p9
S'p_IL13_Rec_i'
p10
sS'IL13_Rec'
p11
S'IL13_Rec'
p12
sS'p_IL13_Rec'
p13
S'p_IL13_Rec'
p14
sS'JAK2'
p15
S'JAK2'
p16
sS'CD274mRNA'
p17
S'CD274mRNA'
p18
sS'Rec'
p19
S'Rec'
p20
sS'SHP1'
p21
S'SHP1'
p22
sS'Rec_i'
p23
S'Rec_i'
p24
s.