(dp0
S'Y protein in the cytoplasm'
p1
S'cYc'
p2
sS'Y mRNA'
p3
S'cYm'
p4
sS'Y protein in nucleus'
p5
S'cYn'
p6
sS'X protein in nucleus'
p7
S'cXn'
p8
sS'TOC1 mRNA'
p9
S'cTm'
p10
sS'PPR7/9 protein in nucleus'
p11
S'cAn'
p12
sS'LHY protein in nucleus'
p13
S'cLn'
p14
sS'X protein in cytoplasm'
p15
S'cXc'
p16
sS'light sensitive protein P'
p17
S'cPn'
p18
sS'TOC1 protein  in cytoplasm'
p19
S'cTc'
p20
sS'LHY protein in cytoplasm'
p21
S'cLc'
p22
sS'LHY mRNA'
p23
S'cLm'
p24
sS'PPR7/9 mRNA'
p25
S'cAm'
p26
sS'X mRNA'
p27
S'cXm'
p28
sS'PPR7/9 protein in cytoplasm'
p29
S'cAc'
p30
sS'TOC1 protein in nucleus'
p31
S'cTn'
p32
s.