(dp0
S'Homoserine'
p1
S'Hser'
p2
sS'Threonine synthase'
p3
S'TS'
p4
sS'Cystathionine'
p5
S'Cystathionine'
p6
sS'Phosphohomoserine'
p7
S'Phser'
p8
sS'S-adenosylmethionine'
p9
S'AdoMet'
p10
sS'Cysteine'
p11
S'Cys'
p12
sS'Inorganic phosphate'
p13
S'Phi'
p14
sS'Threonine'
p15
S'Thr'
p16
sS'Cystathionine gamma-synthase'
p17
S'CGS'
p18
s.