(dp0
S'Activated IFNRJ complex'
p1
S'IFNRJ2_star'
p2
sS'IFNRJ2_star_SHP2_SOCS1_STAT1c'
p3
S'IFNRJ2_star_SHP2_SOCS1_STAT1c'
p4
sS'STAT1n_star_STAT1n_star'
p5
S'STAT1n_star_STAT1n_star'
p6
sS'IFNRJ2_star_STAT1c'
p7
S'IFNRJ2_star_STAT1c'
p8
sS'mRNAc'
p9
S'mRNAc'
p10
sS'STAT1c_STAT1c_star'
p11
S'STAT1c_STAT1c_star'
p12
sS'IFN'
p13
S'IFN'
p14
sS'mRNAn'
p15
S'mRNAn'
p16
sS'IFNRJ dimer'
p17
S'IFNRJ2'
p18
sS'STAT1n_star_PPN'
p19
S'STAT1n_star_PPN'
p20
sS'PPN'
p21
S'PPN'
p22
sS'Interferon-Receptor-JAK complex'
p23
S'IFNRJ'
p24
sS'Receptor JAK complex'
p25
S'RJ'
p26
sS'PPX'
p27
S'PPX'
p28
sS'SHP2'
p29
S'SHP2'
p30
sS'STAT1n'
p31
S'STAT1n'
p32
sS'IFNRJ2_star_SOCS1_STAT1c'
p33
S'IFNRJ2_star_SOCS1_STAT1c'
p34
sS'STAT1n_STAT1n_star'
p35
S'STAT1n_STAT1n_star'
p36
sS'STAT1c'
p37
S'STAT1c'
p38
sS'IFNRJ2_star_SHP2_SOCS1'
p39
S'IFNRJ2_star_SHP2_SOCS1'
p40
sS'STAT1n_star'
p41
S'STAT1n_star'
p42
sS'IFNRJ2_star_SHP2'
p43
S'IFNRJ2_star_SHP2'
p44
sS'JAK'
p45
S'JAK'
p46
sS'STAT1c_star_PPX'
p47
S'STAT1c_star_PPX'
p48
sS'IFNR'
p49
S'IFNR'
p50
sS'STAT1c_star'
p51
S'STAT1c_star'
p52
sS'IFNRJ2_star_STAT1c_star'
p53
S'IFNRJ2_star_STAT1c_star'
p54
sS'STAT1c_star_STAT1c_star'
p55
S'STAT1c_star_STAT1c_star'
p56
sS'STAT1c_star_STAT1c_star_PPX'
p57
S'STAT1c_star_STAT1c_star_PPX'
p58
sS'SOCS1'
p59
S'SOCS1'
p60
sS'IFNRJ2_star_SOCS1'
p61
S'IFNRJ2_star_SOCS1'
p62
sS'IFNRJ2_star_SHP2_STAT1c'
p63
S'IFNRJ2_star_SHP2_STAT1c'
p64
sS'Receptor'
p65
S'R'
p66
sS'STAT1n_star_STAT1n_star_PPN'
p67
S'STAT1n_star_STAT1n_star_PPN'
p68
s.