(dp0
S'Cell surface GLUT4'
p1
S'x21'
p2
sS'Intracellular GLUT4'
p3
S'x20'
p4
sS'Unactivated Akt'
p5
S'x16'
p6
sS'Unphosphorylated IRS1'
p7
S'x9'
p8
sS'Unbound unphosphorylated intracellular receptor'
p9
S'x6'
p10
sS'Unactivated PKC'
p11
S'x18'
p12
sS'PI3 Kinase'
p13
S'x11'
p14
sS'PI3,4,5P3'
p15
S'x13'
p16
sS'Phosphorylated IRS1'
p17
S'x10'
p18
sS'Phosphorylated once bound intracellular receptor'
p19
S'x8'
p20
sS'PI3,4P2'
p21
S'x15'
p22
sS'Phosphorylated twice bound receptor'
p23
S'x4'
p24
sS'PI4,5P2'
p25
S'x14'
p26
sS'Activated Akt'
p27
S'x17'
p28
sS'Insulin'
p29
S'x1'
p30
sS'Unphosphorylated once bound receptor'
p31
S'x3'
p32
sS'Unbound Insulin Receptor'
p33
S'x2'
p34
sS'Phosphorylated once bound receptor'
p35
S'x5'
p36
sS'Activated PKC'
p37
S'x19'
p38
sS'Phosphorylated twice bound intracellular receptor'
p39
S'x7'
p40
sS'IRS1- PI3 Kinase Complex'
p41
S'x12'
p42
s.