(dp0
S'monophosphorylated PER'
p1
S'P1'
p2
sS'total PER'
p3
S'Pt'
p4
sS'PER mRNA'
p5
S'M'
p6
sS'nuclear PER'
p7
S'Pn'
p8
sS'EmptySet'
p9
S'EmptySet'
p10
sS'unphosphorylated PER'
p11
S'P0'
p12
sS'biphosphorylated PER'
p13
S'P2'
p14
s.