(dp0
S'A'
p1
g1
sS'NANOG_Gene'
p2
S'NANOG_Gene'
p3
sS'NANOG'
p4
S'NANOG'
p5
sS'targetGene'
p6
S'targetGene'
p7
sS'OCT4'
p8
S'OCT4'
p9
sS'SOX2_Gene'
p10
S'SOX2_Gene'
p11
sS'degradation'
p12
S'degradation'
p13
sS'OCT4_SOX2'
p14
S'OCT4_SOX2'
p15
sS'OCT4_Gene'
p16
S'OCT4_Gene'
p17
sS'SOX2'
p18
S'SOX2'
p19
sS'Protein'
p20
S'Protein'
p21
sS'p53'
p22
S'p53'
p23
s.