(dp0
S'p53deg'
p1
S'p53deg'
p2
sS'Mdm2_p53'
p3
S'Mdm2_p53'
p4
sS'ARF'
p5
S'ARF'
p6
sS'damDNA'
p7
S'damDNA'
p8
sS'p53syn'
p9
S'p53syn'
p10
sS'mdm2syn'
p11
S'mdm2syn'
p12
sS'Source'
p13
S'Source'
p14
sS'Mdm2mRNAsyn'
p15
S'Mdm2mRNAsyn'
p16
sS'totdamDNA'
p17
S'totdamDNA'
p18
sS'Sink'
p19
S'Sink'
p20
sS'ARF_Mdm2'
p21
S'ARF_Mdm2'
p22
sS'Mdm2mRNAdeg'
p23
S'Mdm2mRNAdeg'
p24
sS'totp53'
p25
S'totp53'
p26
sS'Mdm2'
p27
S'Mdm2'
p28
sS'totMdm2'
p29
S'totMdm2'
p30
sS'mdm2deg'
p31
S'mdm2deg'
p32
sS'Mdm2_mRNA'
p33
S'Mdm2_mRNA'
p34
sS'p53'
p35
S'p53'
p36
s.