(dp0
S'13HOD-R(E,E)'
p1
S'species_10'
p2
sS'9HOD-R(E,E)'
p3
S'species_14'
p4
sS'9HOD-R(Z,E)'
p5
S'species_12'
p6
sS'LA'
p7
S'species_1'
p8
sS'9HOD-S(E,E)'
p9
S'species_13'
p10
sS'13HOD-S(Z,E)'
p11
S'species_7'
p12
sS'13HOD-R(Z,E)'
p13
S'species_8'
p14
sS'13HOD-S(E,E)'
p15
S'species_9'
p16
sS'9HOD-S(Z,E)'
p17
S'species_11'
p18
sS'nHexanal'
p19
S'species_15'
p20
s.