(dp0
S'IntermediateACh'
p1
S'IL'
p2
sS'DesensitisedACh'
p3
S'DL'
p4
sS'IntermediateACh2'
p5
S'ILL'
p6
sS'Desensitised'
p7
S'D'
p8
sS'BasalACh'
p9
S'BL'
p10
sS'ActiveACh2'
p11
S'ALL'
p12
sS'DesensitisedACh2'
p13
S'DLL'
p14
sS'Basal'
p15
S'B'
p16
sS'BasalACh2'
p17
S'BLL'
p18
sS'Intermediate'
p19
S'I'
p20
sS'ActiveACh'
p21
S'AL'
p22
sS'Active'
p23
S'A'
p24
s.