(dp0
S'bCatenin/APC_Ast/Axin_ast/GSK3beta'
p1
S'X8'
p2
sS'Rasa'
p3
S'X17'
p4
sS'unknown molecule X'
p5
S'X27'
p6
sS'Rasi'
p7
S'X16'
p8
sS'bCatenin/APC'
p9
S'X15'
p10
sS'Dshi'
p11
S'X1'
p12
sS'RKIP'
p13
S'X25'
p14
sS'bCatenin'
p15
S'X11'
p16
sS'Dsha'
p17
S'X2'
p18
sS'ERK'
p19
S'X22'
p20
sS'APC_ast/Axin_ast/GSK3beta'
p21
S'X3'
p22
sS'GSK3beta'
p23
S'X28'
p24
sS'TCF'
p25
S'X13'
p26
sS'Raf1/RKIP'
p27
S'X24'
p28
sS'bCatenin_ast'
p29
S'X10'
p30
sS'Raf-1_ast'
p31
S'X19'
p32
sS'APC/Axin'
p33
S'X6'
p34
sS'Axin'
p35
S'X12'
p36
sS'RKIP_ast'
p37
S'X26'
p38
sS'ERK_ast'
p39
S'X23'
p40
sS'MEK_ast'
p41
S'X21'
p42
sS'bCatenin/TCF'
p43
S'X14'
p44
sS'MEK'
p45
S'X20'
p46
sS'APC/Axin/GSK3beta'
p47
S'X4'
p48
sS'Raf-1'
p49
S'X18'
p50
sS'APC'
p51
S'X7'
p52
sS'bCatenin_ast/APC_ast/Axin_ast/GSK3beta'
p53
S'X9'
p54
s.