(dp0
S'E'
p1
g1
sS'Callose'
p2
S'Callose'
p3
sS'PAMP'
p4
S'PAMP'
p5
sS'PRR*'
p6
S'PRR'
p7
sS'R'
p8
g8
sS'E_int'
p9
S'E_int'
p10
sS'PRR'
p11
S'PRR_0'
p12
sS'Path'
p13
S'Path'
p14
sS'R*'
p15
S'R_0'
p16
sS'Path_bulk'
p17
S'Path_bulk'
p18
s.