(dp0
S'Gbg'
p1
S'Gbg'
p2
sS'GaGDPP'
p3
S'GaGDPP'
p4
sS'RGS'
p5
S'RGS'
p6
sS'GaGTPEffector'
p7
S'GaGTPEffector'
p8
sS'GaGDP'
p9
S'GaGDP'
p10
sS'L'
p11
g11
sS'z3'
p12
S'z3'
p13
sS'Effector'
p14
S'Effector'
p15
sS'P'
p16
g16
sS'RGSinertGaGTP'
p17
S'RGSinertGaGTP'
p18
sS'R'
p19
g19
sS'inertGaGTP'
p20
S'inertGaGTP'
p21
sS'RGSGaGTP'
p22
S'RGSGaGTP'
p23
sS'RL'
p24
S'RL'
p25
sS'Gabg'
p26
S'Gabg'
p27
sS'GaGTP'
p28
S'GaGTP'
p29
sS'RGabgL'
p30
S'RGabgL'
p31
sS'z1'
p32
S'z1'
p33
sS'RGabg'
p34
S'RGabg'
p35
sS'z2'
p36
S'z2'
p37
s.