(dp0
S'Mek1-PP'
p1
S'MKK_PP'
p2
sS'Erk2'
p3
S'MAPK'
p4
sS'Mos'
p5
S'MKKK'
p6
sS'Erk2-P'
p7
S'MAPK_P'
p8
sS'Erk2-PP'
p9
S'MAPK_PP'
p10
sS'Mos-P'
p11
S'MKKK_P'
p12
sS'Mek1'
p13
S'MKK'
p14
sS'Mek1-P'
p15
S'MKK_P'
p16
s.