(dp0
S'Mad1:C-Mad2'
p1
S'Mad1_CMad2'
p2
sS'MCC:APC'
p3
S'MCC_APC'
p4
sS'Mad1:C-Mad2:O-Mad2*'
p5
S'Mad1_CMad2_OMad2'
p6
sS'APC:Cdc20'
p7
S'APC_Cdc20'
p8
sS'MCC'
p9
S'MCC'
p10
sS'Bub3:BubR1'
p11
S'Bub3_BubR1'
p12
sS'Cdc20'
p13
S'Cdc20'
p14
sS'Bub3:BubR1:Cdc20'
p15
S'Bub3_BubR1_Cdc20'
p16
sS'O-Mad2'
p17
S'OMad2'
p18
sS'APC'
p19
S'APC'
p20
sS'Cdc20:C-Mad2'
p21
S'Cdc20_CMad2'
p22
s.