(dp0
S'HSF1'
p1
S'HSF1'
p2
sS'MCom'
p3
S'MCom'
p4
sS'NatP'
p5
S'NatP'
p6
sS'DiH'
p7
S'DiH'
p8
sS'TriH'
p9
S'TriH'
p10
sS'ADP'
p11
S'ADP'
p12
sS'HSE'
p13
S'HSE'
p14
sS'Hsp90'
p15
S'Hsp90'
p16
sS'source'
p17
S'source'
p18
sS'HCom'
p19
S'HCom'
p20
sS'AggP'
p21
S'AggP'
p22
sS'ATP'
p23
S'ATP'
p24
sS'X'
p25
g25
sS'HSETriH'
p26
S'HSETriH'
p27
sS'ROS'
p28
S'ROS'
p29
sS'MisP'
p30
S'MisP'
p31
s.