(dp0
S'Hsp90-eNOS'
p1
S's66'
p2
sS'Hsp90-eNOS-CaM-Ca2'
p3
S's61'
p4
sS'sa49_degraded'
p5
S's116'
p6
sS'Calmodulin'
p7
S's52'
p8
sS'Hsp90-p-eNOS'
p9
S's65'
p10
sS'eNOS-Cav-1'
p11
S's51'
p12
sS'Hsp90-eNOS-CaM-Ca4'
p13
S's58'
p14
sS'Hsp90-p-eNOS-CaM-Ca4'
p15
S's60'
p16
sS'CaM-Ca4'
p17
S's47'
p18
sS'eNOS-CaM-Ca4'
p19
S's45'
p20
sS'Hsp90'
p21
S's57'
p22
sS'eNOS-CaM-Ca2'
p23
S's50'
p24
sS'Hsp90-p-eNOS-CaM-Ca2'
p25
S's62'
p26
sS'CaM-Ca2'
p27
S's48'
p28
sS'NO'
p29
S's64'
p30
sS'Ca_c'
p31
S's3'
p32
sS'L-Arg'
p33
S's63'
p34
sS'pp-AKT:PI3P'
p35
S's27'
p36
sS's117'
p37
S's117'
p38
sS's118'
p39
S's118'
p40
s.