(dp0
S'DNA_100'
p1
S'DNA_100'
p2
sS'DNA_101'
p3
S'DNA_101'
p4
sS'DNA_111'
p5
S'DNA_111'
p6
sS'DNA_110'
p7
S'DNA_110'
p8
sS'DNA_010'
p9
S'DNA_010'
p10
sS'DNA_011'
p11
S'DNA_011'
p12
sS'S1'
p13
S'S1'
p14
sS'DNA_1B10'
p15
S'DNA_1B10'
p16
sS'DNA_1B11'
p17
S'DNA_1B11'
p18
sS'DNA_01B1'
p19
S'DNA_01B1'
p20
sS'DNA_001'
p21
S'DNA_001'
p22
sS'DNA_000'
p23
S'DNA_000'
p24
sS'DNA_1B1B1'
p25
S'DNA_1B1B1'
p26
sS'DNA_11B1'
p27
S'DNA_11B1'
p28
s.