(dp0
S'Xa_TFPI'
p1
S'Xa_TFPI'
p2
sS'Xa'
p3
S'Xa'
p4
sS'VK'
p5
S'VK'
p6
sS'Va_Xa'
p7
S'Va_Xa'
p8
sS'VKO'
p9
S'VKO'
p10
sS'Xa_ATIII_Heparin'
p11
S'Xa_ATIII_Heparin'
p12
sS'VKH2'
p13
S'VKH2'
p14
sS'FDP'
p15
S'FDP'
p16
sS'Va'
p17
S'Va'
p18
sS'IIa'
p19
S'IIa'
p20
sS'Pg'
p21
S'Pg'
p22
sS'Pk'
p23
S'Pk'
p24
sS'IIa_ATIII_Heparin'
p25
S'IIa_ATIII_Heparin'
p26
sS'APC_PS'
p27
S'APC_PS'
p28
sS'ATIII_Heparin'
p29
S'ATIII_Heparin'
p30
sS'DP'
p31
S'DP'
p32
sS'TAT'
p33
S'TAT'
p34
sS'IIa_Tmod'
p35
S'IIa_Tmod'
p36
sS'IXa_ATIII_Heparin'
p37
S'IXa_ATIII_Heparin'
p38
sS'PC'
p39
S'PC'
p40
sS'Tmod'
p41
S'Tmod'
p42
sS'Fg'
p43
S'Fg'
p44
sS'TF'
p45
S'TF'
p46
sS'XIIa'
p47
S'XIIa'
p48
sS'K'
p49
g49
sS'VIIa_TF_Xa_TFPI'
p50
S'VIIa_TF_Xa_TFPI'
p51
sS'IX'
p52
S'IX'
p53
sS'XI'
p54
S'XI'
p55
sS'D'
p56
g56
sS'F'
p57
g57
sS'PS'
p58
S'PS'
p59
sS'CA'
p60
S'CA'
p61
sS'TFPI'
p62
S'TFPI'
p63
sS'XF'
p64
S'XF'
p65
sS'II'
p66
S'II'
p67
sS'P'
p68
g68
sS'VK_p'
p69
S'VK_p'
p70
sS'VII_TF'
p71
S'VII_TF'
p72
sS'V'
p73
g73
sS'X'
p74
g74
sS'VIIa'
p75
S'VIIa'
p76
sS'A_warf'
p77
S'A_warf'
p78
sS'XIa'
p79
S'XIa'
p80
sS'VII'
p81
S'VII'
p82
sS'VIIa_TF'
p83
S'VIIa_TF'
p84
sS'IXa'
p85
S'IXa'
p86
sS'XIII'
p87
S'XIII'
p88
sS'VIII'
p89
S'VIII'
p90
sS'XII'
p91
S'XII'
p92
sS'VIIIa'
p93
S'VIIIa'
p94
sS'C_warf'
p95
S'C_warf'
p96
sS'APC'
p97
S'APC'
p98
sS'XIIIa'
p99
S'XIIIa'
p100
sS'IXa_VIIIa'
p101
S'IXa_VIIIa'
p102
s.