(dp0
S'fructose-6-phosphate'
p1
S'F6P'
p2
sS'DHAP-G3P pool'
p3
S'DHAP_G3P'
p4
sS'dihydroxyacetone-phosphate'
p5
S'DHAP'
p6
sS'intracellular glucose'
p7
S'GLC'
p8
sS'fructose-1,6-biphosphate'
p9
S'FBP'
p10
sS'G6P_F6P'
p11
S'G6P_F6P'
p12
sS'glyceraldehyde--phosphate'
p13
S'G3P'
p14
s.