(dp0
S'CycBt'
p1
S'CycBt'
p2
sS'Cdc20t'
p3
S'Cdc20t'
p4
sS'm'
p5
g5
sS'Trimer'
p6
S'Trimer'
p7
sS'SK'
p8
S'SK'
p9
sS'Mad'
p10
S'Mad'
p11
sS'IEP'
p12
S'IEP'
p13
sS'Cdh1'
p14
S'Cdh1'
p15
sS'Cdc20a'
p16
S'Cdc20a'
p17
sS'CKIt'
p18
S'CKIt'
p19
sS'CycB'
p20
S'CycB'
p21
s.