(dp0
S'P2'
p1
S'species_9'
p2
sS'P3'
p3
S'species_10'
p4
sS'MKKK'
p5
S'species_0'
p6
sS'MKK_P'
p7
S'species_3'
p8
sS'MKK_PP'
p9
S'species_4'
p10
sS'P3_c'
p11
S'species_14'
p12
sS'P3_n'
p13
S'species_18'
p14
sS'M'
p15
S'species_5'
p16
sS'MKK'
p17
S'species_2'
p18
sS'M_PP_n'
p19
S'species_11'
p20
sS'M_P_n'
p21
S'species_17'
p22
sS'MKKK_P'
p23
S'species_1'
p24
sS'P3mRNA'
p25
S'species_13'
p26
sS'P1'
p27
S'species_8'
p28
sS'pP3_c'
p29
S'species_15'
p30
sS'M_P'
p31
S'species_6'
p32
sS'M_PP'
p33
S'species_7'
p34
sS'PreP3_mRNA'
p35
S'species_12'
p36
sS'M_n'
p37
S'species_16'
p38
s.