(dp0
S'mT3cr'
p1
S'mT3cr'
p2
sS'taRNA'
p3
S'taRNA'
p4
sS'mT7cr'
p5
S'mT7cr'
p6
sS'ara'
p7
S'ara'
p8
sS'pT7'
p9
S'pT7'
p10
sS'mGFPcr'
p11
S'mGFPcr'
p12
sS'pT3'
p13
S'pT3'
p14
sS'pGFP'
p15
S'pGFP'
p16
s.