(dp0
S'@nuc::C4D1(b)'
p1
S'S26'
p2
sS'@nuc::C2E(T160~U,b!1).p21(b!1)'
p3
S'S3'
p4
sS'@nuc::rb(S788~U,S800~U,b)'
p5
S'S1'
p6
sS'inhAKT'
p7
S'inhakt'
p8
sS'@nuc::dnapre1()'
p9
S'S17'
p10
sS'@nuc::e2f(b!1).rb(S788~P,S800~U,b!1)'
p11
S'S16'
p12
sS'@nuc::C2E(T160~P,b!1).p21(b!1)'
p13
S'S23'
p14
sS'@nuc::C2E(T160~U,b)'
p15
S'S13'
p16
sS'@nuc::dnapre()'
p17
S'S5'
p18
sS'DNAContent'
p19
S'ObsDNAContent_obs'
p20
sS'@nuc::dnapre2()'
p21
S'S22'
p22
sS'@cyto::C2E(T160~U,b!1).p21(b!1)'
p23
S'S20'
p24
sS'@nuc::C2E(T160~P,b)'
p25
S'S18'
p26
sS'@nuc::dnapre3()'
p27
S'S25'
p28
sS'TotP21'
p29
S'ObsTotP21_obs'
p30
sS'@cyto::p21(b)'
p31
S'S12'
p32
sS'@nuc::dnapre4()'
p33
S'S27'
p34
sS'TotRb'
p35
S'ObsTotRb_obs'
p36
sS'@cyto::C2E(T160~U,b)'
p37
S'S4'
p38
sS'TotE2F'
p39
S'ObsTotE2F_obs'
p40
sS'@nuc::dnapre5()'
p41
S'S28'
p42
sS'inhp53'
p43
S'inhp53'
p44
sS'@cyto::C4D1(b)'
p45
S'S10'
p46
sS'inhc4d1'
p47
S'inhc4d1'
p48
sS'HGF'
p49
S'hgf'
p50
sS'CDK2P21'
p51
S'ObsCDK2P21_obs'
p52
sS'@nuc::C4D1(b!1).p21(b!1)'
p53
S'S24'
p54
sS'TotCycECDK2'
p55
S'ObsTotCycECDK2_obs'
p56
sS'@nuc::rb(S788~P,S800~U,b)'
p57
S'S15'
p58
sS'@nuc::rb(S788~P,S800~P,b)'
p59
S'S21'
p60
sS'@nuc::e2f(b!1).rb(S788~U,S800~U,b!1)'
p61
S'S2'
p62
sS'TotCycDCDK4'
p63
S'ObsTotCycDCDK4_obs'
p64
sS'TotCDK2T160'
p65
S'ObsTotCDK2T160_obs'
p66
sS'PhosRbS788'
p67
S'ObsPhosRbS788_obs'
p68
sS'@nuc::p21(b)'
p69
S'S11'
p70
sS'PhosRbS800'
p71
S'ObsPhosRbS800_obs'
p72
sS'@cyto::C4D1(b!1).p21(b!1)'
p73
S'S19'
p74
sS'@nuc::e2f(b)'
p75
S'S14'
p76
sS'inhERK'
p77
S'inherk'
p78
s.