(dp0
S'A2R'
p1
S'A2R_cell'
p2
sS'A2RC'
p3
S'A2RC_cell'
p4
sS'DMNB_cAMP'
p5
S'DMNB_cAMP_cell'
p6
sS'PP_AKARp'
p7
S'PP_AKARp_cell'
p8
sS'cAMP'
p9
S'cAMP_cell'
p10
sS'Gsbg'
p11
S'Gsbg_cell'
p12
sS'ATP'
p13
S'ATP_cell'
p14
sS'b1AR'
p15
S'b1AR_cell'
p16
sS'PDE_IBMX'
p17
S'PDE_IBMX_cell'
p18
sS'PP'
p19
S'PP_cell'
p20
sS'PDEcAMP'
p21
S'PDEcAMP_cell'
p22
sS'Gsa_gdp'
p23
S'Gsa_gdp_cell'
p24
sS'RC'
p25
S'RC_cell'
p26
sS'b1AR_p'
p27
S'b1AR_p_cell'
p28
sS'PKI'
p29
S'PKI_cell'
p30
sS'PKAC_AKAR'
p31
S'PKAC_AKAR_cell'
p32
sS'b1ARinhib'
p33
S'b1ARinhib_cell'
p34
sS'AC'
p35
S'AC_cell'
p36
sS'L_b1AR_Gs'
p37
S'L_b1AR_Gs_cell'
p38
sS'PKAC_PKI'
p39
S'PKAC_PKI_cell'
p40
sS'Fsk'
p41
S'Fsk_cell'
p42
sS'L'
p43
S'L_cell'
p44
sS'IBMX'
p45
S'IBMX_cell'
p46
sS'FskAC'
p47
S'FskAC_cell'
p48
sS'Gsa_gtp'
p49
S'Gsa_gtp_cell'
p50
sS'PKAC'
p51
S'PKAC_cell'
p52
sS'PDE'
p53
S'PDE_cell'
p54
sS'AKAR'
p55
S'AKAR_cell'
p56
sS'GsAC'
p57
S'GsAC_cell'
p58
sS'L_b1AR'
p59
S'L_b1AR_cell'
p60
sS'Gs'
p61
S'Gs_cell'
p62
sS'b1AR_Gs'
p63
S'b1AR_Gs_cell'
p64
sS'ARC'
p65
S'ARC_cell'
p66
sS'AKARp'
p67
S'AKARp_cell'
p68
sS'light_spot'
p69
S'light_spot_cell'
p70
sS'Propranolol'
p71
S'Propranolol_cell'
p72
sS'b1AR_S464'
p73
S'b1AR_S464_cell'
p74
s.