(dp0
S'MPF'
p1
S'x3'
p2
sS'cdc25_P'
p3
S'x4'
p4
sS'cell_mass'
p5
S'm'
p6
sS'APC_P'
p7
S'x6'
p8
sS'cyclin'
p9
S'x1'
p10
sS'free CDK'
p11
S'x2'
p12
sS'Pre_MPF'
p13
S'Pre_MPF'
p14
sS'APC'
p15
S'y6'
p16
sS'Wee1_P'
p17
S'y5'
p18
sS'Wee1'
p19
S'x5'
p20
sS'cdc25'
p21
S'y4'
p22
s.