(dp0
S'PS'
p1
S'mwfcfaf604_14d4_47a6_b021_226d1fb5497c'
p2
sS'Ser'
p3
S'mw15abaa48_d7d0_4845_ae04_c573d289d495'
p4
sS'EtnE'
p5
S'mw08818dfe_fb12_45cc_8c1d_d965f142d0ce'
p6
sS'PEtn'
p7
S'mw849ed3fd_87d9_44d2_9f3e_4d631b900d41'
p8
sS'Cho'
p9
S'mw812f63db_4cb0_40ad_b92b_9874be969dfe'
p10
sS'PC'
p11
S'mwee54b5b4_b8c0_41df_8dda_5b160c5e10a5'
p12
sS'SerE'
p13
S'mw73259e20_240e_4f3a_b2e0_9ca248658898'
p14
sS'PE'
p15
S'mwf166ad55_4ff0_49fb_95d2_b657ad7653d5'
p16
sS'PCho'
p17
S'mwcb834e43_dc57_45ae_9452_f4c10955caf1'
p18
sS'Etn'
p19
S'mw8796c919_9251_4970_8f87_0bca9ecfeb5c'
p20
sS'ChoE'
p21
S'mw919f8a86_e702_4b24_9cd7_adad694fcf9b'
p22
s.