(dp0
S'iron_in_Bone Marrow'
p1
S's2'
p2
sS'iron_in_Brain'
p3
S's17'
p4
sS'iron_in_Fat'
p5
S's16'
p6
sS'iron_in_Testes'
p7
S's14'
p8
sS'iron_in_Heart'
p9
S's11'
p10
sS'iron_in_Stomach'
p11
S's15'
p12
sS'iron_in_Spleen'
p13
S's4'
p14
sS'iron_in_Integument'
p15
S's8'
p16
sS'iron_in_Intestine'
p17
S's9'
p18
sS'iron_in_Liver'
p19
S's5'
p20
sS'iron_ions_Outside'
p21
S's10'
p22
sS'iron_in_Kidneys'
p23
S's13'
p24
sS'iron_in_Muscle'
p25
S's6'
p26
sS'iron_in_Plasma'
p27
S's1'
p28
sS'iron_in_Duodenum'
p29
S's7'
p30
sS'iron_in_RBC'
p31
S's3'
p32
sS'iron_in_Lungs'
p33
S's12'
p34
s.