(dp0
S'cam_RR_BD_rbp'
p1
S'cam_RR_BD_rbp'
p2
sS'cam_RT_B_tbp'
p3
S'cam_RT_B_tbp'
p4
sS'cam_TR_CD_tbp'
p5
S'cam_TR_CD_tbp'
p6
sS'cam_TT_C_0'
p7
S'cam_TT_C_0'
p8
sS'cam_RT_ABD_0'
p9
S'cam_RT_ABD_0'
p10
sS'cam_RR_AC_rbp'
p11
S'cam_RR_AC_rbp'
p12
sS'cam_RR_B_tbp'
p13
S'cam_RR_B_tbp'
p14
sS'cam_TT_ABCD_rbp'
p15
S'cam_TT_ABCD_rbp'
p16
sS'cam_RT_ABCD_tbp'
p17
S'cam_RT_ABCD_tbp'
p18
sS'ca'
p19
S'ca'
p20
sS'cam_RT_BC_0'
p21
S'cam_RT_BC_0'
p22
sS'cam_TR_AD_rbp'
p23
S'cam_TR_AD_rbp'
p24
sS'cam_TR_AD_tbp'
p25
S'cam_TR_AD_tbp'
p26
sS'cam_RR_AB_tbp'
p27
S'cam_RR_AB_tbp'
p28
sS'cam_TT_ABCD_0'
p29
S'cam_TT_ABCD_0'
p30
sS'cam_RT_BCD_0'
p31
S'cam_RT_BCD_0'
p32
sS'cam_TR_B_tbp'
p33
S'cam_TR_B_tbp'
p34
sS'cam_TT_ABD_0'
p35
S'cam_TT_ABD_0'
p36
sS'cam_TT_D_tbp'
p37
S'cam_TT_D_tbp'
p38
sS'cam_TT_AB_0'
p39
S'cam_TT_AB_0'
p40
sS'cam_TT_AC_0'
p41
S'cam_TT_AC_0'
p42
sS'cam_RR_B_rbp'
p43
S'cam_RR_B_rbp'
p44
sS'cam_TT_AC_rbp'
p45
S'cam_TT_AC_rbp'
p46
sS'tbp'
p47
S'tbp'
p48
sS'cam_TR_ACD_0'
p49
S'cam_TR_ACD_0'
p50
sS'cam_RT_BC_tbp'
p51
S'cam_RT_BC_tbp'
p52
sS'cam_TT_BD_0'
p53
S'cam_TT_BD_0'
p54
sS'cam_TR_0_rbp'
p55
S'cam_TR_0_rbp'
p56
sS'cam_TR_ABD_tbp'
p57
S'cam_TR_ABD_tbp'
p58
sS'cam_RT_A_rbp'
p59
S'cam_RT_A_rbp'
p60
sS'cam_RT_BD_0'
p61
S'cam_RT_BD_0'
p62
sS'cam_TR_ABD_rbp'
p63
S'cam_TR_ABD_rbp'
p64
sS'cam_TT_AC_tbp'
p65
S'cam_TT_AC_tbp'
p66
sS'cam_TR_ABC_0'
p67
S'cam_TR_ABC_0'
p68
sS'cam_TR_AC_0'
p69
S'cam_TR_AC_0'
p70
sS'cam_RR_D_rbp'
p71
S'cam_RR_D_rbp'
p72
sS'cam_TR_0_tbp'
p73
S'cam_TR_0_tbp'
p74
sS'cam_TR_BCD_0'
p75
S'cam_TR_BCD_0'
p76
sS'cam_TT_BCD_tbp'
p77
S'cam_TT_BCD_tbp'
p78
sS'cam_TT_ABC_0'
p79
S'cam_TT_ABC_0'
p80
sS'cam_TR_CD_rbp'
p81
S'cam_TR_CD_rbp'
p82
sS'cam_RT_AC_0'
p83
S'cam_RT_AC_0'
p84
sS'cam_RR_0_0'
p85
S'cam_RR_0_0'
p86
sS'cam_TR_B_rbp'
p87
S'cam_TR_B_rbp'
p88
sS'cam_RT_CD_tbp'
p89
S'cam_RT_CD_tbp'
p90
sS'cam_RT_CD_rbp'
p91
S'cam_RT_CD_rbp'
p92
sS'cam_TR_ABCD_0'
p93
S'cam_TR_ABCD_0'
p94
sS'cam_TR_AB_tbp'
p95
S'cam_TR_AB_tbp'
p96
sS'cam_RR_BC_tbp'
p97
S'cam_RR_BC_tbp'
p98
sS'cam_TR_ABCD_rbp'
p99
S'cam_TR_ABCD_rbp'
p100
sS'cam_RR_ACD_tbp'
p101
S'cam_RR_ACD_tbp'
p102
sS'cam_RT_BCD_tbp'
p103
S'cam_RT_BCD_tbp'
p104
sS'cam_TR_BCD_tbp'
p105
S'cam_TR_BCD_tbp'
p106
sS'cam_TT_ACD_rbp'
p107
S'cam_TT_ACD_rbp'
p108
sS'cam_RR_CD_tbp'
p109
S'cam_RR_CD_tbp'
p110
sS'cam_RR_A_rbp'
p111
S'cam_RR_A_rbp'
p112
sS'cam_RR_ACD_0'
p113
S'cam_RR_ACD_0'
p114
sS'cam_RR_AB_rbp'
p115
S'cam_RR_AB_rbp'
p116
sS'cam_TR_ABC_rbp'
p117
S'cam_TR_ABC_rbp'
p118
sS'cam_RR_ACD_rbp'
p119
S'cam_RR_ACD_rbp'
p120
sS'cam_TR_AC_tbp'
p121
S'cam_TR_AC_tbp'
p122
sS'cam_TT_D_0'
p123
S'cam_TT_D_0'
p124
sS'cam_RT_BCD_rbp'
p125
S'cam_RT_BCD_rbp'
p126
sS'cam_TT_CD_0'
p127
S'cam_TT_CD_0'
p128
sS'cam_RR_BC_0'
p129
S'cam_RR_BC_0'
p130
sS'cam_RR_AC_0'
p131
S'cam_RR_AC_0'
p132
sS'cam_TR_BC_tbp'
p133
S'cam_TR_BC_tbp'
p134
sS'cam_TR_BC_rbp'
p135
S'cam_TR_BC_rbp'
p136
sS'cam_RR_ABC_tbp'
p137
S'cam_RR_ABC_tbp'
p138
sS'cam_TT_CD_rbp'
p139
S'cam_TT_CD_rbp'
p140
sS'cam_TT_CD_tbp'
p141
S'cam_TT_CD_tbp'
p142
sS'cam_RT_0_0'
p143
S'cam_RT_0_0'
p144
sS'cam_RT_ACD_rbp'
p145
S'cam_RT_ACD_rbp'
p146
sS'cam_RT_B_rbp'
p147
S'cam_RT_B_rbp'
p148
sS'cam_TR_A_0'
p149
S'cam_TR_A_0'
p150
sS'cam_TT_BCD_rbp'
p151
S'cam_TT_BCD_rbp'
p152
sS'cam_TT_D_rbp'
p153
S'cam_TT_D_rbp'
p154
sS'cam_TR_AB_0'
p155
S'cam_TR_AB_0'
p156
sS'cam_RR_ABC_0'
p157
S'cam_RR_ABC_0'
p158
sS'cam_TT_ABC_rbp'
p159
S'cam_TT_ABC_rbp'
p160
sS'cam_RR_BD_tbp'
p161
S'cam_RR_BD_tbp'
p162
sS'cam_RT_ACD_0'
p163
S'cam_RT_ACD_0'
p164
sS'cam_RT_AC_tbp'
p165
S'cam_RT_AC_tbp'
p166
sS'cam_RR_AB_0'
p167
S'cam_RR_AB_0'
p168
sS'cam_RT_CD_0'
p169
S'cam_RT_CD_0'
p170
sS'cam_TT_C_rbp'
p171
S'cam_TT_C_rbp'
p172
sS'cam_TT_BC_0'
p173
S'cam_TT_BC_0'
p174
sS'cam_TT_C_tbp'
p175
S'cam_TT_C_tbp'
p176
sS'cam_RT_BD_tbp'
p177
S'cam_RT_BD_tbp'
p178
sS'cam_RT_0_rbp'
p179
S'cam_RT_0_rbp'
p180
sS'cam_TR_CD_0'
p181
S'cam_TR_CD_0'
p182
sS'cam_TR_AB_rbp'
p183
S'cam_TR_AB_rbp'
p184
sS'cam_RR_C_0'
p185
S'cam_RR_C_0'
p186
sS'cam_RT_AB_tbp'
p187
S'cam_RT_AB_tbp'
p188
sS'cam_RT_AB_rbp'
p189
S'cam_RT_AB_rbp'
p190
sS'cam_RR_D_tbp'
p191
S'cam_RR_D_tbp'
p192
sS'cam_RR_ABCD_0'
p193
S'cam_RR_ABCD_0'
p194
sS'cam_TT_ACD_tbp'
p195
S'cam_TT_ACD_tbp'
p196
sS'cam_RT_ABC_0'
p197
S'cam_RT_ABC_0'
p198
sS'cam_RR_BC_rbp'
p199
S'cam_RR_BC_rbp'
p200
sS'cam_RR_ABCD_rbp'
p201
S'cam_RR_ABCD_rbp'
p202
sS'cam_RT_ABCD_rbp'
p203
S'cam_RT_ABCD_rbp'
p204
sS'cam_TT_B_rbp'
p205
S'cam_TT_B_rbp'
p206
sS'cam_RR_C_rbp'
p207
S'cam_RR_C_rbp'
p208
sS'cam_TT_BD_tbp'
p209
S'cam_TT_BD_tbp'
p210
sS'cam_TT_AD_rbp'
p211
S'cam_TT_AD_rbp'
p212
sS'cam_RR_ABC_rbp'
p213
S'cam_RR_ABC_rbp'
p214
sS'cam_RR_CD_rbp'
p215
S'cam_RR_CD_rbp'
p216
sS'cam_RR_A_tbp'
p217
S'cam_RR_A_tbp'
p218
sS'cam_TR_BC_0'
p219
S'cam_TR_BC_0'
p220
sS'cam_RR_BCD_tbp'
p221
S'cam_RR_BCD_tbp'
p222
sS'cam_TR_D_tbp'
p223
S'cam_TR_D_tbp'
p224
sS'cam_RT_D_rbp'
p225
S'cam_RT_D_rbp'
p226
sS'cam_TT_B_tbp'
p227
S'cam_TT_B_tbp'
p228
sS'cam_TR_C_0'
p229
S'cam_TR_C_0'
p230
sS'cam_TT_BC_rbp'
p231
S'cam_TT_BC_rbp'
p232
sS'cam_TR_B_0'
p233
S'cam_TR_B_0'
p234
sS'cam_TT_A_tbp'
p235
S'cam_TT_A_tbp'
p236
sS'cam_TT_AB_tbp'
p237
S'cam_TT_AB_tbp'
p238
sS'cam_TR_AC_rbp'
p239
S'cam_TR_AC_rbp'
p240
sS'cam_TR_ABC_tbp'
p241
S'cam_TR_ABC_tbp'
p242
sS'cam_RT_AC_rbp'
p243
S'cam_RT_AC_rbp'
p244
sS'cam_RR_AD_0'
p245
S'cam_RR_AD_0'
p246
sS'cam_TR_C_tbp'
p247
S'cam_TR_C_tbp'
p248
sS'cam_TT_AB_rbp'
p249
S'cam_TT_AB_rbp'
p250
sS'cam_TR_C_rbp'
p251
S'cam_TR_C_rbp'
p252
sS'cam_RT_ACD_tbp'
p253
S'cam_RT_ACD_tbp'
p254
sS'cam_RR_ABD_0'
p255
S'cam_RR_ABD_0'
p256
sS'cam_RT_D_tbp'
p257
S'cam_RT_D_tbp'
p258
sS'cam_RT_A_0'
p259
S'cam_RT_A_0'
p260
sS'cam_RR_BD_0'
p261
S'cam_RR_BD_0'
p262
sS'cam_TR_D_rbp'
p263
S'cam_TR_D_rbp'
p264
sS'cam_RR_BCD_0'
p265
S'cam_RR_BCD_0'
p266
sS'cam_RT_AD_0'
p267
S'cam_RT_AD_0'
p268
sS'rbp'
p269
S'rbp'
p270
sS'cam_TT_BC_tbp'
p271
S'cam_TT_BC_tbp'
p272
sS'cam_TR_ABCD_tbp'
p273
S'cam_TR_ABCD_tbp'
p274
sS'cam_RR_CD_0'
p275
S'cam_RR_CD_0'
p276
sS'cam_TR_AD_0'
p277
S'cam_TR_AD_0'
p278
sS'cam_RT_AB_0'
p279
S'cam_RT_AB_0'
p280
sS'cam_RR_A_0'
p281
S'cam_RR_A_0'
p282
sS'cam_RT_ABD_rbp'
p283
S'cam_RT_ABD_rbp'
p284
sS'cam_TT_B_0'
p285
S'cam_TT_B_0'
p286
sS'cam_RT_A_tbp'
p287
S'cam_RT_A_tbp'
p288
sS'cam_TT_BCD_0'
p289
S'cam_TT_BCD_0'
p290
sS'cam_TR_BD_tbp'
p291
S'cam_TR_BD_tbp'
p292
sS'cam_RR_AD_tbp'
p293
S'cam_RR_AD_tbp'
p294
sS'cam_RR_B_0'
p295
S'cam_RR_B_0'
p296
sS'cam_RR_0_rbp'
p297
S'cam_RR_0_rbp'
p298
sS'cam_RT_C_rbp'
p299
S'cam_RT_C_rbp'
p300
sS'cam_RR_ABD_tbp'
p301
S'cam_RR_ABD_tbp'
p302
sS'cam_RT_ABC_rbp'
p303
S'cam_RT_ABC_rbp'
p304
sS'cam_TT_A_rbp'
p305
S'cam_TT_A_rbp'
p306
sS'cam_RR_D_0'
p307
S'cam_RR_D_0'
p308
sS'cam_RR_AC_tbp'
p309
S'cam_RR_AC_tbp'
p310
sS'cam_TR_BD_0'
p311
S'cam_TR_BD_0'
p312
sS'cam_TR_BCD_rbp'
p313
S'cam_TR_BCD_rbp'
p314
sS'cam_TT_BD_rbp'
p315
S'cam_TT_BD_rbp'
p316
sS'cam_TT_AD_tbp'
p317
S'cam_TT_AD_tbp'
p318
sS'cam_TR_D_0'
p319
S'cam_TR_D_0'
p320
sS'cam_TT_A_0'
p321
S'cam_TT_A_0'
p322
sS'cam_TR_ACD_rbp'
p323
S'cam_TR_ACD_rbp'
p324
sS'cam_RR_BCD_rbp'
p325
S'cam_RR_BCD_rbp'
p326
sS'cam_TT_0_tbp'
p327
S'cam_TT_0_tbp'
p328
sS'cam_RT_AD_tbp'
p329
S'cam_RT_AD_tbp'
p330
sS'cam_RT_ABC_tbp'
p331
S'cam_RT_ABC_tbp'
p332
sS'cam_TR_BD_rbp'
p333
S'cam_TR_BD_rbp'
p334
sS'cam_RR_AD_rbp'
p335
S'cam_RR_AD_rbp'
p336
sS'cam_TT_0_0'
p337
S'cam_TT_0_0'
p338
sS'cam_TT_ACD_0'
p339
S'cam_TT_ACD_0'
p340
sS'cam_TT_ABD_rbp'
p341
S'cam_TT_ABD_rbp'
p342
sS'cam_RR_0_tbp'
p343
S'cam_RR_0_tbp'
p344
sS'cam_RT_ABD_tbp'
p345
S'cam_RT_ABD_tbp'
p346
sS'cam_TT_ABD_tbp'
p347
S'cam_TT_ABD_tbp'
p348
sS'cam_RT_BC_rbp'
p349
S'cam_RT_BC_rbp'
p350
sS'cam_RT_ABCD_0'
p351
S'cam_RT_ABCD_0'
p352
sS'cam_RT_D_0'
p353
S'cam_RT_D_0'
p354
sS'cam_TT_0_rbp'
p355
S'cam_TT_0_rbp'
p356
sS'cam_TR_ACD_tbp'
p357
S'cam_TR_ACD_tbp'
p358
sS'cam_RT_0_tbp'
p359
S'cam_RT_0_tbp'
p360
sS'cam_RT_B_0'
p361
S'cam_RT_B_0'
p362
sS'cam_RR_C_tbp'
p363
S'cam_RR_C_tbp'
p364
sS'cam_RT_C_0'
p365
S'cam_RT_C_0'
p366
sS'cam_RR_ABD_rbp'
p367
S'cam_RR_ABD_rbp'
p368
sS'cam_RT_C_tbp'
p369
S'cam_RT_C_tbp'
p370
sS'cam_TT_ABC_tbp'
p371
S'cam_TT_ABC_tbp'
p372
sS'cam_TR_A_rbp'
p373
S'cam_TR_A_rbp'
p374
sS'cam_TR_A_tbp'
p375
S'cam_TR_A_tbp'
p376
sS'cam_RT_BD_rbp'
p377
S'cam_RT_BD_rbp'
p378
sS'cam_TR_0_0'
p379
S'cam_TR_0_0'
p380
sS'cam_TR_ABD_0'
p381
S'cam_TR_ABD_0'
p382
sS'cam_RR_ABCD_tbp'
p383
S'cam_RR_ABCD_tbp'
p384
sS'cam_TT_ABCD_tbp'
p385
S'cam_TT_ABCD_tbp'
p386
sS'cam_TT_AD_0'
p387
S'cam_TT_AD_0'
p388
sS'cam_RT_AD_rbp'
p389
S'cam_RT_AD_rbp'
p390
s.