(dp0
S'A'
p1
S'species_3'
p2
sS'NAD'
p3
S'species_14'
p4
sS'Ftot'
p5
S'species_7'
p6
sS'H'
p7
S'species_2'
p8
sS'HP'
p9
S'species_10'
p10
sS'FIHfree'
p11
S'species_12'
p12
sS'Atot'
p13
S'species_5'
p14
sS'AOH'
p15
S'species_6'
p16
sS'Htot'
p17
S'species_1'
p18
sS'HOH'
p19
S'species_4'
p20
sS'Ptot'
p21
S'species_8'
p22
sS'CADOH'
p23
S'species_15'
p24
sS'A for plotting'
p25
S'species_16'
p26
sS'HF'
p27
S'species_9'
p28
sS'O2'
p29
S'species_11'
p30
sS'CAD'
p31
S'species_13'
p32
s.