(dp0
S'OSMRa'
p1
S'OSMRa'
p2
sS'cJun_dimer'
p3
S'cJun_dimer'
p4
sS'IL1_IL1R_IRAK2'
p5
S'IL1_IL1R_IRAK2'
p6
sS'TIMP3'
p7
S'TIMP3'
p8
sS'cJun_P'
p9
S'cJun_P'
p10
sS'TIMP1'
p11
S'TIMP1'
p12
sS'MMP13_mRNA'
p13
S'MMP13_mRNA'
p14
sS'MKP1'
p15
S'MKP1'
p16
sS'IL1R'
p17
S'IL1R'
p18
sS'OSM_OSMR'
p19
S'OSM_OSMR'
p20
sS'OSMR_SOCS3'
p21
S'OSMR_SOCS3'
p22
sS'IRAK2_TRAF6'
p23
S'IRAK2_TRAF6'
p24
sS'p38_P'
p25
S'p38_P'
p26
sS'ADAMTS4_mRNA'
p27
S'ADAMTS4_mRNA'
p28
sS'SP1_TIMP1_DNA'
p29
S'SP1_TIMP1_DNA'
p30
sS'IL1_IL1Ra'
p31
S'IL1_IL1Ra'
p32
sS'JNK_P'
p33
S'JNK_P'
p34
sS'ADAMTS4'
p35
S'ADAMTS4'
p36
sS'STAT3_nuc'
p37
S'STAT3_nuc'
p38
sS'Aggrecan_Collagen2'
p39
S'Aggrecan_Collagen2'
p40
sS'OSM_OSMRa'
p41
S'OSM_OSMRa'
p42
sS'cJun_mRNA'
p43
S'cJun_mRNA'
p44
sS'MMP13'
p45
S'MMP13'
p46
sS'STAT3_cyt'
p47
S'STAT3_cyt'
p48
sS'MMP3_mRNA'
p49
S'MMP3_mRNA'
p50
sS'OSMR'
p51
S'OSMR'
p52
sS'OSM'
p53
S'OSM'
p54
sS'Sink'
p55
S'Sink'
p56
sS'cFos_P'
p57
S'cFos_P'
p58
sS'JAK1'
p59
S'JAK1'
p60
sS'IRAK2'
p61
S'IRAK2'
p62
sS'MMP1_mRNA'
p63
S'MMP1_mRNA'
p64
sS'STAT3_P_cyt'
p65
S'STAT3_P_cyt'
p66
sS'cFos_mRNA'
p67
S'cFos_mRNA'
p68
sS'IRAK2_TRAF6_PP4'
p69
S'IRAK2_TRAF6_PP4'
p70
sS'proMMP3'
p71
S'proMMP3'
p72
sS'JAK1_P'
p73
S'JAK1_P'
p74
sS'MMP3_TIMP1'
p75
S'MMP3_TIMP1'
p76
sS'TRAF6'
p77
S'TRAF6'
p78
sS'MMP3_TIMP3'
p79
S'MMP3_TIMP3'
p80
sS'SP1'
p81
S'SP1'
p82
sS'IL1'
p83
S'IL1'
p84
sS'IL1Ra'
p85
S'IL1Ra'
p86
sS'TRAF6_PP4'
p87
S'TRAF6_PP4'
p88
sS'p38'
p89
S'p38'
p90
sS'cFos_cJun'
p91
S'cFos_cJun'
p92
sS'Matriptase'
p93
S'Matriptase'
p94
sS'PP4'
p95
S'PP4'
p96
sS'STAT3_P_nuc'
p97
S'STAT3_P_nuc'
p98
sS'ColFrag'
p99
S'ColFrag'
p100
sS'DUSP16'
p101
S'DUSP16'
p102
sS'TIMP1_DNA'
p103
S'TIMP1_DNA'
p104
sS'MMP1_TIMP3'
p105
S'MMP1_TIMP3'
p106
sS'MMP1_TIMP1'
p107
S'MMP1_TIMP1'
p108
sS'PTPRT'
p109
S'PTPRT'
p110
sS'TIMP3_mRNA'
p111
S'TIMP3_mRNA'
p112
sS'IL1_IL1R'
p113
S'IL1_IL1R'
p114
sS'SOCS3'
p115
S'SOCS3'
p116
sS'cFos'
p117
S'cFos'
p118
sS'Source'
p119
S'Source'
p120
sS'proMMP13'
p121
S'proMMP13'
p122
sS'ADAMTS4_TIMP3'
p123
S'ADAMTS4_TIMP3'
p124
sS'SOCS3_mRNA'
p125
S'SOCS3_mRNA'
p126
sS'MMP3'
p127
S'MMP3'
p128
sS'Collagen2'
p129
S'Collagen2'
p130
sS'MMP13_TIMP3'
p131
S'MMP13_TIMP3'
p132
sS'TIMP1_mRNA'
p133
S'TIMP1_mRNA'
p134
sS'MMP13_TIMP1'
p135
S'MMP13_TIMP1'
p136
sS'cJun'
p137
S'cJun'
p138
sS'ADAMTS4_TIMP1'
p139
S'ADAMTS4_TIMP1'
p140
sS'JNK'
p141
S'JNK'
p142
sS'AggFrag'
p143
S'AggFrag'
p144
sS'Aggrecan'
p145
S'Aggrecan'
p146
sS'proMMP1'
p147
S'proMMP1'
p148
sS'MMP1'
p149
S'MMP1'
p150
s.