(dp0
S'PS_f'
p1
S'PS_f'
p2
sS'VIIIai_l'
p3
S'VIIIai_l'
p4
sS'TFPI_Xa_l'
p5
S'TFPI_Xa_l'
p6
sS'VIII_f'
p7
S'VIII_f'
p8
sS'VII_f'
p9
S'VII_f'
p10
sS'VIIIai_f'
p11
S'VIIIai_f'
p12
sS'TF_VII_Xa_l'
p13
S'TF_VII_Xa_l'
p14
sS'PS_l'
p15
S'PS_l'
p16
sS'APC_PS_l'
p17
S'APC_PS_l'
p18
sS'VIII_l'
p19
S'VIII_l'
p20
sS'TF_VIIa_Xa_l'
p21
S'TF_VIIa_Xa_l'
p22
sS'IXa_VIIIa_X_l'
p23
S'IXa_VIIIa_X_l'
p24
sS'Xa_AT_f'
p25
S'Xa_AT_f'
p26
sS'XI_IIa_l'
p27
S'XI_IIa_l'
p28
sS'IXa_f'
p29
S'IXa_f'
p30
sS'TF_VIIa_IXa_l'
p31
S'TF_VIIa_IXa_l'
p32
sS'Xa_l'
p33
S'Xa_l'
p34
sS'IXa_l'
p35
S'IXa_l'
p36
sS'X_f'
p37
S'X_f'
p38
sS'APC_f'
p39
S'APC_f'
p40
sS'VII_Xa_l'
p41
S'VII_Xa_l'
p42
sS'LIPID'
p43
S'LIPID'
p44
sS'VII_l'
p45
S'VII_l'
p46
sS'X_l'
p47
S'X_l'
p48
sS'Xa_Va_mIIa_l'
p49
S'Xa_Va_mIIa_l'
p50
sS'AT_f'
p51
S'AT_f'
p52
sS'IIa_AT_f'
p53
S'IIa_AT_f'
p54
sS'VIIIa_l'
p55
S'VIIIa_l'
p56
sS'TF_VIIa_l'
p57
S'TF_VIIa_l'
p58
sS'V_f'
p59
S'V_f'
p60
sS'Vai_l'
p61
S'Vai_l'
p62
sS'mIIa_f'
p63
S'mIIa_f'
p64
sS'IXa_VIIIa_l'
p65
S'IXa_VIIIa_l'
p66
sS'V_l'
p67
S'V_l'
p68
sS'VIIIa_f'
p69
S'VIIIa_f'
p70
sS'IXa_AT_f'
p71
S'IXa_AT_f'
p72
sS'Xa_Va_l'
p73
S'Xa_Va_l'
p74
sS'Vai_f'
p75
S'Vai_f'
p76
sS'mIIa_l'
p77
S'mIIa_l'
p78
sS'Va_f'
p79
S'Va_f'
p80
sS'XIa_l'
p81
S'XIa_l'
p82
sS'V_mIIa_l'
p83
S'V_mIIa_l'
p84
sS'VIII_Xa_l'
p85
S'VIII_Xa_l'
p86
sS'VIII_mIIa_l'
p87
S'VIII_mIIa_l'
p88
sS'Va_l'
p89
S'Va_l'
p90
sS'XIa_IX_l'
p91
S'XIa_IX_l'
p92
sS'TM_l'
p93
S'TM_l'
p94
sS'APC_PS_Va_l'
p95
S'APC_PS_Va_l'
p96
sS'Xa_Va_II_l'
p97
S'Xa_Va_II_l'
p98
sS'VIII_IIa_l'
p99
S'VIII_IIa_l'
p100
sS'TF_VII_l'
p101
S'TF_VII_l'
p102
sS'II_l'
p103
S'II_l'
p104
sS'Xa_f'
p105
S'Xa_f'
p106
sS'VIIa_l'
p107
S'VIIa_l'
p108
sS'II_f'
p109
S'II_f'
p110
sS'V_Xa_l'
p111
S'V_Xa_l'
p112
sS'VIIa_f'
p113
S'VIIa_f'
p114
sS'APC_l'
p115
S'APC_l'
p116
sS'TFPI_Xa_TF_VIIa_l'
p117
S'TFPI_Xa_TF_VIIa_l'
p118
sS'IX_f'
p119
S'IX_f'
p120
sS'mIIa_AT_l'
p121
S'mIIa_AT_l'
p122
sS'IIa_TM_l'
p123
S'IIa_TM_l'
p124
sS'TF_VIIa_X_l'
p125
S'TF_VIIa_X_l'
p126
sS'TF_VIIa_IX_l'
p127
S'TF_VIIa_IX_l'
p128
sS'IX_l'
p129
S'IX_l'
p130
sS'IIa_TM_PC_l'
p131
S'IIa_TM_PC_l'
p132
sS'IIa_f'
p133
S'IIa_f'
p134
sS'V_IIa_l'
p135
S'V_IIa_l'
p136
sS'PC_f'
p137
S'PC_f'
p138
sS'TFPI_f'
p139
S'TFPI_f'
p140
sS'XI_f'
p141
S'XI_f'
p142
sS'PC_l'
p143
S'PC_l'
p144
sS'TF_l'
p145
S'TF_l'
p146
sS'APC_PS_VIIIa_l'
p147
S'APC_PS_VIIIa_l'
p148
s.