(dp0
S'EGF-pEGFR-2-pShc-Grb2-MEKK1aRafbcdRhoGTPepRhoGAPf'
p1
S'species_192'
p2
sS'EGF-EGFR'
p3
S'species_2'
p4
sS'Takt'
p5
S'species_64'
p6
sS'EGF-pEGFR-2-pShc-Grb2-SHP2-pRhoGEF'
p7
S'species_93'
p8
sS'EGF-pEGFR-2-pShc-Grb2-SOS'
p9
S'species_15'
p10
sS'EGF-pEGFR-2-Grb2-MEKK1abppMEKcdefRasGTP'
p11
S'species_155'
p12
sS'RhoGAP'
p13
S'species_97'
p14
sS'Ras-GTP-RhoGEF'
p15
S'species_128'
p16
sS'EGF-pEGFR-2-Grb2-MEKK1abcdefRasGTP'
p17
S'species_152'
p18
sS'EGF-pEGFR-2-Grb2-SOS'
p19
S'species_21'
p20
sS'EGF-pEGFR-2-Grb2-MEKK1abppMEKcERKdefRasGTP'
p21
S'species_159'
p22
sS'EGF'
p23
S'species_0'
p24
sS'EPn'
p25
S'species_117'
p26
sS'pPTEN'
p27
S'species_71'
p28
sS'pSrc-RhoGAP'
p29
S'species_103'
p30
sS'EGF-pEGFR-2-RasGAP-RasGTP'
p31
S'species_88'
p32
sS'EGF-pEGFR-2-pShc-Grb2-SHP2'
p33
S'species_91'
p34
sS'EGF-pEGFR-2-Grb2-MEKK1aRafbppMEKcppERKdef'
p35
S'species_189'
p36
sS'TP7'
p37
S'species_111'
p38
sS'EGF-pEGFR-2-Grb2-MEKK1apRafbMEKcdef'
p39
S'species_167'
p40
sS'Grb2'
p41
S'species_12'
p42
sS'EGF-pEGFR-2-Grb2-MEKK1aRafbcdef'
p43
S'species_144'
p44
sS'pPI3K'
p45
S'species_52'
p46
sS'EGF-pEGFR-2-pShc-Grb2-MEKK1abMEKcdef'
p47
S'species_134'
p48
sS'EGF-pEGFR-2-pShc-Grb2-MEKK1aRafbcdef'
p49
S'species_140'
p50
sS'EGF-pEGFR-2-pShc-Grb2-MEKK1apRafbpMEKcdef'
p51
S'species_164'
p52
sS'EGF-pEGFR-2-pShc-Grb2-MEKK1abpMEKcdef'
p53
S'species_135'
p54
sS'EGF-pEGFR-2-SHP'
p55
S'species_6'
p56
sS'pSOS'
p57
S'species_47'
p58
sS'ppMEK'
p59
S'species_30'
p60
sS'EGF-pEGFR-2-pShc-Grb2-MEKK1abppMEKcpERKdef'
p61
S'species_179'
p62
sS'EGF-pEGFR-2-pShc-Grb2-MEKK1aRafbpMEKcdef'
p63
S'species_142'
p64
sS'Shc'
p65
S'species_7'
p66
sS'pROK-PTEN'
p67
S'species_70'
p68
sS'pRhoGAP-RhoGTP'
p69
S'species_104'
p70
sS'EGF-pEGFR-2-degrade'
p71
S'species_120'
p72
sS'Raf'
p73
S'species_23'
p74
sS'EGF-pEGFR-2-Grb2-MEKK1aRafbppMEKcERKdef'
p75
S'species_187'
p76
sS'EGF-pEGFR-2-pSrc'
p77
S'species_109'
p78
sS'EGF-pEGFR-2-Grb2-MEKK1abppMEKcppERKdef'
p79
S'species_183'
p80
sS'PTEN'
p81
S'species_69'
p82
sS'EGF-pEGFR-2-pShc-Grb2-MEKK1abppMEKcERKdef'
p83
S'species_178'
p84
sS'pRhoGEF'
p85
S'species_84'
p86
sS'EGF-pEGFR-2-Grb2-MEKK1abpMEKcdefRasGTP'
p87
S'species_154'
p88
sS'pRaf-pMEK'
p89
S'species_29'
p90
sS'ppERK'
p91
S'species_35'
p92
sS'EGF-pEGFR-2-Src'
p93
S'species_108'
p94
sS'EGF-pEGFR-2-Grb2-MEKK1aRafbcdRhoGTPepRhoGAPf'
p95
S'species_193'
p96
sS'pPI3K-PIP2'
p97
S'species_56'
p98
sS'EGF-pEGFR-2'
p99
S'species_4'
p100
sS'EGF-pEGFR-2-pShc-Grb2-MEKK1apRafbMEKcdef'
p101
S'species_163'
p102
sS'EGF-pEGFR-2-RasGAP-SHP2'
p103
S'species_100'
p104
sS'Akt-PIP3'
p105
S'species_59'
p106
sS'EGF-pEGFR-2-pShc-Grb2-MEKK1abppMEKcdRhoGTPef'
p107
S'species_171'
p108
sS'EGF-pEGFR-2-pShc-Grb2-SOS-RasGDP'
p109
S'species_18'
p110
sS'EGF-pEGFR-2-pShc-Grb2-SOS-Cbl-CIN85'
p111
S'species_115'
p112
sS'Raf-RasGTP'
p113
S'species_24'
p114
sS'ROK'
p115
S'species_105'
p116
sS'EGF-pEGFR-2-Grb2-SHP2'
p117
S'species_92'
p118
sS'ppERK-MKP3'
p119
S'species_42'
p120
sS'pShc-Grb2-SOS'
p121
S'species_121'
p122
sS'EGF-pEGFR-2-pShc-Grb2-MEKK1aRafbppMEKcpERKdef'
p123
S'species_185'
p124
sS'Grb2-MEKK1abcdef'
p125
S'species_131'
p126
sS'Akt-PIP3-PDK1'
p127
S'species_61'
p128
sS'pRaf-Pase'
p129
S'species_37'
p130
sS'pMEK'
p131
S'species_28'
p132
sS'ppMEK-pERK'
p133
S'species_34'
p134
sS'Src-TP7'
p135
S'species_113'
p136
sS'SHP'
p137
S'species_5'
p138
sS'Src'
p139
S'species_107'
p140
sS'PIP3-RacGEF'
p141
S'species_74'
p142
sS'Pro-EGFR'
p143
S'species_122'
p144
sS'RacGAP'
p145
S'species_80'
p146
sS'EGF-pEGFR-2-Grb2-MEKK1aRafbpMEKcdef'
p147
S'species_146'
p148
sS'EGF-pEGFR-2-pShc-Grb2-MEKK1aRafbMEKcdRhoGTPef'
p149
S'species_174'
p150
sS'EGF-pEGFR-2-pShc-Grb2-MEKK1abcdef'
p151
S'species_132'
p152
sS'EGF-pEGFR-2-Grb2-MEKK1aRafbppMEKcpERKdef'
p153
S'species_188'
p154
sS'Pase'
p155
S'species_36'
p156
sS'pAkt-PIP3-Takt'
p157
S'species_65'
p158
sS'EGF-pEGFR-2-Grb2-SHP2-pRhoGEF'
p159
S'species_98'
p160
sS'EGF-pEGFR-2-Grb2-SOS-Cbl-CIN85'
p161
S'species_116'
p162
sS'pEPn'
p163
S'species_124'
p164
sS'EGF-pEGFR-2-pShc-Grb2-SOS-Cbl-CIN85-EPn'
p165
S'species_118'
p166
sS'EGF-pEGFR-2-Grb2-MEKK1aRafbppMEKcdef'
p167
S'species_147'
p168
sS'EGF-pEGFR-2-Grb2-SOS-Cbl-CIN85-EPn'
p169
S'species_119'
p170
sS'pRaf-pAkt-PIP3'
p171
S'species_66'
p172
sS'EGF-pEGFR-2-Grb2-MEKK1abppMEKcppERKdefRasGTP'
p173
S'species_161'
p174
sS'pRaf-MEK'
p175
S'species_27'
p176
sS'RhoGTP'
p177
S'species_86'
p178
sS'RhoGDP-pRhoGEF'
p179
S'species_85'
p180
sS'EGF-pEGFR-2-Grb2-MEKK1aRafbMEKcdef'
p181
S'species_145'
p182
sS'pMEK-PP2A'
p183
S'species_40'
p184
sS'EGF-pEGFR-2-Shc'
p185
S'species_8'
p186
sS'pRaf'
p187
S'species_25'
p188
sS'MPase'
p189
S'species_125'
p190
sS'EGF-pEGFR-2-pShc-Grb2-SHP2-pRhoGAP'
p191
S'species_96'
p192
sS'EGF-pEGFR-2-pShc-Grb2-MEKK1abppMEKcppERKdef'
p193
S'species_180'
p194
sS'EGF-pEGFR-2-pShc'
p195
S'species_9'
p196
sS'EGF-pEGFR-2-Grb2-MEKK1abppMEKcpERKdef'
p197
S'species_182'
p198
sS'EGF-pEGFR-2-Grb2-MEKK1aRafbppMEKcdRhoGTPepRhoGAPf'
p199
S'species_191'
p200
sS'RhoGEF'
p201
S'species_94'
p202
sS'EGF-pEGFR-2-Grb2-MEKK1aRafbMEKcdRhoGTPef'
p203
S'species_176'
p204
sS'TP4'
p205
S'species_53'
p206
sS'pAkt'
p207
S'species_63'
p208
sS'EGF-pEGFR-2-pShc-Grb2-MEKK1abMEKcdRhoGTPef'
p209
S'species_170'
p210
sS'SHP2'
p211
S'species_90'
p212
sS'EGF-pEGFR-2-Grb2-MEKK1apRafbcdef'
p213
S'species_166'
p214
sS'MKP3'
p215
S'species_41'
p216
sS'pShc-SHP'
p217
S'species_11'
p218
sS'ppRaf'
p219
S'species_67'
p220
sS'PIP2'
p221
S'species_55'
p222
sS'EGF-pEGFR-2-Grb2-MEKK1abMEKcdef'
p223
S'species_137'
p224
sS'pSrc-TP7'
p225
S'species_112'
p226
sS'EGF-pEGFR-2-pShc-Grb2-MEKK1aRafbppMEKcppERKdef'
p227
S'species_186'
p228
sS'pROK-EPn'
p229
S'species_123'
p230
sS'RhoGTP-ROK'
p231
S'species_106'
p232
sS'RasGDP'
p233
S'species_17'
p234
sS'EGF-pEGFR-2-Grb2-SOS-RasGDP'
p235
S'species_22'
p236
sS'EGF-EGFR-2'
p237
S'species_3'
p238
sS'EGF-pEGFR-2-pShc-Grb2-MEKK1abppMEKcdef'
p239
S'species_136'
p240
sS'EGF-pEGFR-2-pShc-Grb2'
p241
S'species_13'
p242
sS'EGF-pEGFR-2-pShc-Grb2-MEKK1abppMEKcdefRasGTP'
p243
S'species_151'
p244
sS'RasGTP'
p245
S'species_19'
p246
sS'EGF-pEGFR-2-Grb2-MEKK1apRafbppMEKcdef'
p247
S'species_169'
p248
sS'EGF-pEGFR-2-pShc-Grb2-MEKK1aRafbppMEKcdef'
p249
S'species_143'
p250
sS'RhoGDI'
p251
S'species_78'
p252
sS'RhoGDP-RhoGDI'
p253
S'species_83'
p254
sS'MEK'
p255
S'species_26'
p256
sS'RhoGDP'
p257
S'species_82'
p258
sS'ppERK-EGF-pEGFR-2-pShc-Grb2-SOS'
p259
S'species_46'
p260
sS'EGF-pEGFR-2-Grb2-MEKK1abppMEKcERKdef'
p261
S'species_181'
p262
sS'EGF-pEGFR-2-Grb2-MEKK1abppMEKcdRhoGTPef'
p263
S'species_173'
p264
sS'EGF-pEGFR-2-Grb2'
p265
S'species_20'
p266
sS'pRhoGAP'
p267
S'species_95'
p268
sS'pEPn-Mpase'
p269
S'species_127'
p270
sS'EGF-pEGFF-2'
p271
S'species_51'
p272
sS'EGF-pEGFR-2-pShc-Grb2-MEKK1abpMEKcdefRasGTP'
p273
S'species_150'
p274
sS'RacGDP'
p275
S'species_75'
p276
sS'pERK'
p277
S'species_33'
p278
sS'ppMEK-ERK'
p279
S'species_32'
p280
sS'EGFR'
p281
S'species_1'
p282
sS'EGF-pEGFR-2-pShc-Grb2-MEKK1abppMEKcERKdefRasGTP'
p283
S'species_156'
p284
sS'Cbl-CIN85'
p285
S'species_114'
p286
sS'MEKK1abcdef'
p287
S'species_130'
p288
sS'pSrc'
p289
S'species_101'
p290
sS'pShc'
p291
S'species_10'
p292
sS'RhoGDI-RacGDP'
p293
S'species_79'
p294
sS'RasGAP'
p295
S'species_44'
p296
sS'EGF-pEGFR-2-pShc-Grb2-MEKK1apRafbppMEKcdef'
p297
S'species_165'
p298
sS'EGF-pEGFR-2-pShc-Grb2-MEKK1abppMEKcpERKdefRasGTP'
p299
S'species_157'
p300
sS'ppMEK-PP2A'
p301
S'species_39'
p302
sS'EGF-pEGFR-2-pShc-Grb2-MEKK1aRafbppMEKcERKdef'
p303
S'species_184'
p304
sS'PIP3'
p305
S'species_57'
p306
sS'RasGTP-RasGAP'
p307
S'species_45'
p308
sS'pPTEN-PIP3'
p309
S'species_72'
p310
sS'PI3K'
p311
S'species_49'
p312
sS'EGF-pEGFR-2-Grb2-MEKK1abMEKcdRhoGTPef'
p313
S'species_172'
p314
sS'EGF-pEGFR-2-pShc-Grb2-MEKK1aRafbppMEKcdRhoGTPepRhoGAPf'
p315
S'species_190'
p316
sS'EGF-pEGFR-2-pShc-Grb2-MEKK1abMEKcdefRasGTP'
p317
S'species_149'
p318
sS'EGF-pEGFR-2-Grb2-MEKK1abcdef'
p319
S'species_133'
p320
sS'SOS'
p321
S'species_14'
p322
sS'PP2A'
p323
S'species_38'
p324
sS'EGF-pEGRF-2'
p325
S'species_110'
p326
sS'ERK'
p327
S'species_31'
p328
sS'EGF-pEGFR-2-pShc-Grb2-MEKK1aRafbcdRhoGTPef'
p329
S'species_175'
p330
sS'EGF-pEGFR-2-pShc-Grb2-MEKK1abcdefRasGTP'
p331
S'species_148'
p332
sS'EGF-pEGFR-2-PI3K'
p333
S'species_50'
p334
sS'EGF-pEGFR-2-Grb2-MEKK1apRafbpMEKcdef'
p335
S'species_168'
p336
sS'EGF-pEGFR-2-Grb2-MEKK1abppMEKcpERKdefRasGTP'
p337
S'species_160'
p338
sS'pSrc-RhoGEF'
p339
S'species_102'
p340
sS'EGF-pEGFR-2-pShc-Grb2-MEKK1apRafbcdef'
p341
S'species_162'
p342
sS'ppERK-EGF-pEGFR-2-Grb2-SOS'
p343
S'species_48'
p344
sS'RacGEF'
p345
S'species_73'
p346
sS'Akt'
p347
S'species_58'
p348
sS'EGF-pEGFR-2-Grb2-MEKK1abpMEKcdef'
p349
S'species_138'
p350
sS'Grb2-SOS'
p351
S'species_16'
p352
sS'EGF-pEGFR-2-pShc-Grb2-MEKK1abppMEKcppERKdefRasGTP'
p353
S'species_158'
p354
sS'pROK'
p355
S'species_68'
p356
sS'EGF-pEGFR2-RasGAP'
p357
S'species_89'
p358
sS'pERK-MKP3'
p359
S'species_43'
p360
sS'pEPn-MPase'
p361
S'species_126'
p362
sS'EGF-pEGFR-2-pShc-Grb2-MEKK1aRafbMEKcdef'
p363
S'species_141'
p364
sS'EGF-pEGFR-2-Grb2-MEKK1aRafbcdRhoGTPef'
p365
S'species_177'
p366
sS'pPI3K-TP4'
p367
S'species_54'
p368
sS'PIP3-RacGEF-RacGDP'
p369
S'species_76'
p370
sS'RacGTP-RacGAP'
p371
S'species_81'
p372
sS'EGF-pEGFR-2-Grb2-MEKK1abppMEKcdef'
p373
S'species_139'
p374
sS'PDK1'
p375
S'species_60'
p376
sS'pAkt-PIP3'
p377
S'species_62'
p378
sS'ppERK-pROK'
p379
S'species_129'
p380
sS'EGF-pEGFR-2-Grb2-MEKK1abMEKcdefRasGTP'
p381
S'species_153'
p382
sS'RacGTP'
p383
S'species_77'
p384
sS'EGF-pEGFR-2-RasGAP'
p385
S'species_87'
p386
sS'EGF-pEGFR-2-Grb2-SHP2-pRhoGAP'
p387
S'species_99'
p388
s.