(dp0
S'Glyceraldehyde-3-Phosphate'
p1
S'cgap'
p2
sS'Glucose-1-Phosphate'
p3
S'cg1p'
p4
sS'1,3-diphosphosphoglycerate'
p5
S'cpgp'
p6
sS'Glucose-6-Phosphate'
p7
S'cg6p'
p8
sS'2-Phosphoglycerate'
p9
S'cpg2'
p10
sS'Extracellular Glucose'
p11
S'cglcex'
p12
sS'Ribulose-5-phosphate'
p13
S'cribu5p'
p14
sS'6-Phosphogluconate'
p15
S'cpg'
p16
sS'cur'
p17
S'cur'
p18
sS'cur_ext'
p19
S'cur_ext'
p20
sS'malcoa'
p21
S'malcoa'
p22
sS'Pyruvate'
p23
S'cpyr'
p24
sS'fer'
p25
S'fer'
p26
sS'fer_ext'
p27
S'fer_ext'
p28
sS'ferdicoa'
p29
S'ferdicoa'
p30
sS'Phosphoenol pyruvate'
p31
S'cpep'
p32
sS'Fructose-6-Phosphate'
p33
S'cf6p'
p34
sS'Dihydroxyacetonephosphate'
p35
S'cdhap'
p36
sS'3-Phosphoglycerate'
p37
S'cpg3'
p38
sS'sedoheptulose-7-phosphate'
p39
S'csed7p'
p40
sS'Ribose-5-phosphate'
p41
S'crib5p'
p42
sS'Fructose-1,6-bisphosphate'
p43
S'cfdp'
p44
sS'Erythrose-4-phosphate'
p45
S'ce4p'
p46
sS'Xylulose-5-phosphate'
p47
S'cxyl5p'
p48
sS'accoa'
p49
S'accoa'
p50
sS'fercoa'
p51
S'fercoa'
p52
s.