(dp0
S'bound_BoNT/A'
p1
S'bound'
p2
sS'lytic_BoNT/A'
p3
S'lytic'
p4
sS'transloc_BoNT/A'
p5
S'translocate'
p6
sS'tot_free_BoNT/A'
p7
S'BoNT'
p8
sS'free_BoNT/A'
p9
S'free'
p10
sS'bulk_BoNT/A'
p11
S'bulk'
p12
s.