(dp0
S'EGF_EGFR_i'
p1
S'EGF_EGFR_i'
p2
sS'pAkt_S6'
p3
S'pAkt_S6'
p4
sS'pEGFR_Akt'
p5
S'pEGFR_Akt'
p6
sS'pS6'
p7
S'pS6'
p8
sS'pro_EGFR'
p9
S'pro_EGFR'
p10
sS'EGFR'
p11
S'EGFR'
p12
sS'S6'
p13
S'S6'
p14
sS'Akt'
p15
S'Akt'
p16
sS'EGF_EGFR'
p17
S'EGF_EGFR'
p18
sS'pAkt'
p19
S'pAkt'
p20
sS'EGFR_i'
p21
S'EGFR_i'
p22
sS'Inhibitor'
p23
S'Inhibitor'
p24
sS'pEGFR'
p25
S'pEGFR'
p26
sS'EGF'
p27
S'EGF'
p28
s.