(dp0
S'src_P4'
p1
S'src_P4'
p2
sS'LH_Pit'
p3
S'LH_Pit'
p4
sS'src_FSH'
p5
S'src_FSH'
p6
sS'src_Enz'
p7
S'src_Enz'
p8
sS'snk_GnRH_Hyp'
p9
S'snk_GnRH_Hyp'
p10
sS'src_Foll'
p11
S'src_Foll'
p12
sS'Enz'
p13
S'Enz'
p14
sS'LH_Bld'
p15
S'LH_Bld'
p16
sS'snk_CL'
p17
S'snk_CL'
p18
sS'PGF'
p19
S'PGF'
p20
sS'src_PGF'
p21
S'src_PGF'
p22
sS'snk_Foll'
p23
S'snk_Foll'
p24
sS'src_GnRH_Pit'
p25
S'src_GnRH_Pit'
p26
sS'snk_PGF'
p27
S'snk_PGF'
p28
sS'snk_FSH'
p29
S'snk_FSH'
p30
sS'snk_Enz'
p31
S'snk_Enz'
p32
sS'GnRH_Pit'
p33
S'GnRH_Pit'
p34
sS'FSH_Pit'
p35
S'FSH_Pit'
p36
sS'src_Inh'
p37
S'src_Inh'
p38
sS'IOF'
p39
S'IOF'
p40
sS'src_IOF'
p41
S'src_IOF'
p42
sS'src_LH'
p43
S'src_LH'
p44
sS'E2'
p45
S'E2'
p46
sS'src_GnRH'
p47
S'src_GnRH'
p48
sS'P4'
p49
S'P4'
p50
sS'CL'
p51
S'CL'
p52
sS'snk_LH'
p53
S'snk_LH'
p54
sS'GnRH_Hyp'
p55
S'GnRH_Hyp'
p56
sS'snk_OT'
p57
S'snk_OT'
p58
sS'snk_IOF'
p59
S'snk_IOF'
p60
sS'snk_GnRH_Pit'
p61
S'snk_GnRH_Pit'
p62
sS'snk_Inh'
p63
S'snk_Inh'
p64
sS'snk_P4'
p65
S'snk_P4'
p66
sS'FSH_Bld'
p67
S'FSH_Bld'
p68
sS'src_CL'
p69
S'src_CL'
p70
sS'Inh'
p71
S'Inh'
p72
sS'src_E2'
p73
S'src_E2'
p74
sS'PGF_syn'
p75
S'species_1'
p76
sS'Foll'
p77
S'Foll'
p78
sS'snk_E2'
p79
S'snk_E2'
p80
sS'OT'
p81
S'OT'
p82
sS'src_OT'
p83
S'src_OT'
p84
s.