(dp0
S'80S_tRNA_eEF3_GTP_20'
p1
S'species_160'
p2
sS'Met-tRNA'
p3
S'species_5'
p4
sS'mRNA_cap'
p5
S'species_20'
p6
sS'80S_aa-tRNA_8'
p7
S'species_88'
p8
sS'80S_aa-tRNA_9'
p9
S'species_94'
p10
sS'80S_aa-tRNA_4'
p11
S'species_64'
p12
sS'80S_aa-tRNA_5'
p13
S'species_70'
p14
sS'80S_aa-tRNA_6'
p15
S'species_76'
p16
sS'80S_aa-tRNA_7'
p17
S'species_82'
p18
sS'80S_aa-tRNA_1'
p19
S'species_48'
p20
sS'80S_aa-tRNA_2'
p21
S'species_52'
p22
sS'80S_aa-tRNA_3'
p23
S'species_58'
p24
sS'80S_tRNA_eEF3_GTP_9'
p25
S'species_97'
p26
sS'80S_tRNA_eEF3_GTP_8'
p27
S'species_91'
p28
sS'80S_tRNA_eEF3_GTP_5'
p29
S'species_73'
p30
sS'80S_tRNA_eEF3_GTP_4'
p31
S'species_67'
p32
sS'80S_tRNA_eEF3_GTP_7'
p33
S'species_85'
p34
sS'80S_tRNA_eEF3_GTP_6'
p35
S'species_79'
p36
sS'80S_tRNA_eEF3_GTP_3'
p37
S'species_61'
p38
sS'80S_tRNA_eEF3_GTP_2'
p39
S'species_55'
p40
sS'80S_eRF1_eRF3_GTP'
p41
S'species_165'
p42
sS'80S_tRNA_20'
p43
S'species_159'
p44
sS'80S_aa-tRNA_18'
p45
S'species_148'
p46
sS'80S_aa-tRNA_19'
p47
S'species_154'
p48
sS'80S_aa-tRNA_16'
p49
S'species_136'
p50
sS'80S_aa-tRNA_17'
p51
S'species_142'
p52
sS'80S_aa-tRNA_14'
p53
S'species_124'
p54
sS'80S_aa-tRNA_15'
p55
S'species_130'
p56
sS'80S_aa-tRNA_12'
p57
S'species_112'
p58
sS'80S_aa-tRNA_13'
p59
S'species_118'
p60
sS'80S_aa-tRNA_10'
p61
S'species_100'
p62
sS'80S_aa-tRNA_11'
p63
S'species_106'
p64
sS'eEF1A_GDP_eEF1B'
p65
S'species_37'
p66
sS'eRF1'
p67
S'species_163'
p68
sS'eEF1B'
p69
S'species_36'
p70
sS'aa-tRNA_eEF1A_GTP'
p71
S'species_40'
p72
sS'80S_aa-tRNA_eEF2_GTP_4'
p73
S'species_65'
p74
sS'80S_aa-tRNA_eEF2_GTP_5'
p75
S'species_71'
p76
sS'80S_aa-tRNA_eEF2_GTP_6'
p77
S'species_77'
p78
sS'80S_aa-tRNA_eEF2_GTP_7'
p79
S'species_83'
p80
sS'40S'
p81
S'species_13'
p82
sS'80S_aa-tRNA_eEF2_GTP_1'
p83
S'species_49'
p84
sS'80S_aa-tRNA_eEF2_GTP_2'
p85
S'species_53'
p86
sS'80S_aa-tRNA_eEF2_GTP_3'
p87
S'species_59'
p88
sS'80S_aa-tRNA_eEF2_GTP_8'
p89
S'species_89'
p90
sS'80S_aa-tRNA_eEF2_GTP_9'
p91
S'species_95'
p92
sS'eIF2_GDP_eIF2B'
p93
S'species_3'
p94
sS'48S'
p95
S'species_28'
p96
sS'80S_10'
p97
S'species_98'
p98
sS'eIF2_GTP_Met-tRNA'
p99
S'species_6'
p100
sS'80S_20'
p101
S'species_158'
p102
sS'mRNA_Pab1'
p103
S'species_22'
p104
sS'eEF1A_GDP'
p105
S'species_35'
p106
sS'80S_aa-tRNA_eEF1A_GTP_3'
p107
S'species_57'
p108
sS'eEF3_GDP'
p109
S'species_43'
p110
sS'80S_aa-tRNA_eEF1A_GTP_1'
p111
S'species_47'
p112
sS'80S_aa-tRNA_eEF1A_GTP_7'
p113
S'species_81'
p114
sS'80S_aa-tRNA_eEF1A_GTP_6'
p115
S'species_75'
p116
sS'48S_Ded1_eIF5B_GTP'
p117
S'species_33'
p118
sS'80S_aa-tRNA_eEF1A_GTP_4'
p119
S'species_63'
p120
sS'80S_aa-tRNA_eEF1A_GTP_9'
p121
S'species_93'
p122
sS'80S_aa-tRNA_eEF1A_GTP_8'
p123
S'species_87'
p124
sS'43S'
p125
S'species_16'
p126
sS'eEF3_GTP'
p127
S'species_44'
p128
sS'eRF3_GDP'
p129
S'species_161'
p130
sS'eIF1'
p131
S'species_11'
p132
sS'eIF3'
p133
S'species_7'
p134
sS'eIF5'
p135
S'species_8'
p136
sS'80S_tRNA_8'
p137
S'species_90'
p138
sS'80S_tRNA_9'
p139
S'species_96'
p140
sS'80S_tRNA_2'
p141
S'species_54'
p142
sS'80S_tRNA_3'
p143
S'species_60'
p144
sS'80S_tRNA_4'
p145
S'species_66'
p146
sS'80S_tRNA_5'
p147
S'species_72'
p148
sS'80S_tRNA_6'
p149
S'species_78'
p150
sS'80S_tRNA_7'
p151
S'species_84'
p152
sS'Pab1'
p153
S'species_21'
p154
sS'80S_tRNA_eEF3_GTP_15'
p155
S'species_133'
p156
sS'eIF4A_eIF4E_eIF4G_mRNA_Pab1'
p157
S'species_166'
p158
sS'80S_tRNA_eEF3_GTP_14'
p159
S'species_127'
p160
sS'80S_tRNA_14'
p161
S'species_126'
p162
sS'80S_9'
p163
S'species_92'
p164
sS'80S_8'
p165
S'species_86'
p166
sS'80S_7'
p167
S'species_80'
p168
sS'80S_6'
p169
S'species_74'
p170
sS'80S_5'
p171
S'species_68'
p172
sS'80S_4'
p173
S'species_62'
p174
sS'80S_3'
p175
S'species_56'
p176
sS'80S_2'
p177
S'species_50'
p178
sS'80S_1'
p179
S'species_46'
p180
sS'80S_tRNA_12'
p181
S'species_114'
p182
sS'80S_tRNA_13'
p183
S'species_120'
p184
sS'80S_tRNA_10'
p185
S'species_102'
p186
sS'80S_tRNA_11'
p187
S'species_108'
p188
sS'80S_aa-tRNA_eEF1A_GTP_13'
p189
S'species_117'
p190
sS'80S_aa-tRNA_eEF1A_GTP_12'
p191
S'species_111'
p192
sS'80S_aa-tRNA_eEF1A_GTP_11'
p193
S'species_105'
p194
sS'80S_aa-tRNA_eEF1A_GTP_10'
p195
S'species_99'
p196
sS'eIF4E_eIF4G_mRNA_Pab1'
p197
S'species_23'
p198
sS'tRNA'
p199
S'species_45'
p200
sS'80S_tRNA_18'
p201
S'species_150'
p202
sS'80S_tRNA_19'
p203
S'species_156'
p204
sS'80S_aa-tRNA_eEF1A_GTP_19'
p205
S'species_153'
p206
sS'80S_aa-tRNA_eEF1A_GTP_18'
p207
S'species_147'
p208
sS'eIF4A_eIF4B'
p209
S'species_26'
p210
sS'eEF2_GTP'
p211
S'species_42'
p212
sS'eIF1A'
p213
S'species_14'
p214
sS'eIF4E_eIF4G_mRNA_Pab1_eIF4A_eIF4B'
p215
S'species_27'
p216
sS'eIF4E_eIF4G'
p217
S'species_19'
p218
sS'80S_aa-tRNA_eEF1A_GTP_17'
p219
S'species_141'
p220
sS'80S_aa-tRNA_eEF1A_GTP_16'
p221
S'species_135'
p222
sS'80S_aa-tRNA_eEF1A_GTP_15'
p223
S'species_129'
p224
sS'eEF1A_GTP'
p225
S'species_38'
p226
sS'80S_aa-tRNA_eEF1A_GTP_14'
p227
S'species_123'
p228
sS'80S_tRNA_16'
p229
S'species_138'
p230
sS'eIF2_GDP'
p231
S'species_1'
p232
sS'80S_tRNA_17'
p233
S'species_144'
p234
sS'80S_17'
p235
S'species_140'
p236
sS'80S_16'
p237
S'species_134'
p238
sS'80S_15'
p239
S'species_128'
p240
sS'80S_14'
p241
S'species_122'
p242
sS'80S_13'
p243
S'species_116'
p244
sS'eIF5B_GDP'
p245
S'species_31'
p246
sS'80S_11'
p247
S'species_104'
p248
sS'80S_aa-tRNA_eEF1A_GTP_2'
p249
S'species_51'
p250
sS'80S_tRNA_15'
p251
S'species_132'
p252
sS'eIF2_GTP'
p253
S'species_4'
p254
sS'80S_19'
p255
S'species_152'
p256
sS'80S_18'
p257
S'species_146'
p258
sS'eRF3_GTP'
p259
S'species_162'
p260
sS'aa-tRNA'
p261
S'species_39'
p262
sS'eIF3_eIF5'
p263
S'species_9'
p264
sS'80S_aa-tRNA_eEF1A_GTP_5'
p265
S'species_69'
p266
sS'40S_eIF1A'
p267
S'species_15'
p268
sS'80S_12'
p269
S'species_110'
p270
sS'80S_aa-tRNA_eEF2_GTP_18'
p271
S'species_149'
p272
sS'80S_aa-tRNA_eEF2_GTP_19'
p273
S'species_155'
p274
sS'80S_aa-tRNA_eEF2_GTP_16'
p275
S'species_137'
p276
sS'80S_aa-tRNA_eEF2_GTP_17'
p277
S'species_143'
p278
sS'80S_aa-tRNA_eEF2_GTP_14'
p279
S'species_125'
p280
sS'80S_aa-tRNA_eEF2_GTP_15'
p281
S'species_131'
p282
sS'80S_aa-tRNA_eEF2_GTP_12'
p283
S'species_113'
p284
sS'80S_aa-tRNA_eEF2_GTP_13'
p285
S'species_119'
p286
sS'80S_aa-tRNA_eEF2_GTP_10'
p287
S'species_101'
p288
sS'80S_aa-tRNA_eEF2_GTP_11'
p289
S'species_107'
p290
sS'eIF4E'
p291
S'species_17'
p292
sS'eIF4G'
p293
S'species_18'
p294
sS'eIF4A'
p295
S'species_24'
p296
sS'eIF4B'
p297
S'species_25'
p298
sS'80S_tRNA_eEF3_GTP_19'
p299
S'species_157'
p300
sS'80S_tRNA_eEF3_GTP_18'
p301
S'species_151'
p302
sS'80S_tRNA_eEF3_GTP_11'
p303
S'species_109'
p304
sS'80S_tRNA_eEF3_GTP_10'
p305
S'species_103'
p306
sS'80S_tRNA_eEF3_GTP_13'
p307
S'species_121'
p308
sS'80S_tRNA_eEF3_GTP_12'
p309
S'species_115'
p310
sS'eIF3_eIF5_eIF2_GTP_Met-tRNA'
p311
S'species_10'
p312
sS'eIF2B'
p313
S'species_2'
p314
sS'80S_tRNA_eEF3_GTP_17'
p315
S'species_145'
p316
sS'80S_tRNA_eEF3_GTP_16'
p317
S'species_139'
p318
sS'eEF2_GDP'
p319
S'species_41'
p320
sS'eIF5B_GTP'
p321
S'species_32'
p322
sS'60S'
p323
S'species_34'
p324
sS'Ded1'
p325
S'species_29'
p326
sS'eRF1_eRF3_GTP'
p327
S'species_164'
p328
sS'48S_Ded1'
p329
S'species_30'
p330
sS'eIF1_eIF3_eIF5_eIF2_GTP_Met-tRNA'
p331
S'species_12'
p332
s.