(dp0
S'Disproportionating enzyme 2(DPE2)'
p1
S'ec_2_4_1_25_CY'
p2
sS'Arabinogalactan (AG)'
p3
S'cpd_C00569_CY'
p4
sS'Starch Glucosyl unit'
p5
S'cpd_C00369Glc_CS'
p6
sS'Maltose exporter (MEX)'
p7
S'tc_2_A_84_1_2_CIMS'
p8
sS'Glutathione (reduced)'
p9
S'cpd_C00051_CY'
p10
sS'2,3-Bisphosphoglycerate pool'
p11
S'cpd_C03339tot_CY'
p12
sS'G6P pool'
p13
S'cpd_C00092tot_CY'
p14
sS'(D)-Glucose-1,6-bisphosphate pool'
p15
S'cpd_C00660tot_CY'
p16
sS'Maltopentaose'
p17
S'cpd_G00343_CS'
p18
sS'Starch'
p19
S'cpd_C00369_CS'
p20
sS'Cytosolic Glucan phosphorylase'
p21
S'ec_2_4_1_1_CY'
p22
sS'Maltotriose'
p23
S'cpd_C01835_CS'
p24
sS'Glucose transporter (pGlcT)'
p25
S'tc_2_A_1_1_17_CIMS'
p26
sS'Isoamylase'
p27
S'ec_3_2_1_68_CS'
p28
sS'Orthophosphate(HPi) pool'
p29
S'cpd_C00009tot_CY'
p30
sS'G1P pool'
p31
S'cpd_C00103tot_CY'
p32
sS'ADP pool'
p33
S'cpd_C00008tot_CY'
p34
sS'Disproportionating enzyme 1(DPE1)'
p35
S'ec_2_4_1_25_CS'
p36
sS'Hexokinase'
p37
S'ec_2_7_1_1_CY'
p38
sS'Maltose'
p39
S'cpd_C00208_CS'
p40
sS'Beta amylase'
p41
S'ec_3_2_1_2_CS'
p42
sS'(D)-Glucose'
p43
S'cpd_C00031_CY'
p44
sS'Glucosyl Arabinogalactan (GlcAG)'
p45
S'cpd_C00569Glc_CY'
p46
sS'ATP pool'
p47
S'cpd_C00002tot_CY'
p48
sS'H+'
p49
S'cpd_C00080_CY'
p50
sS'Starch exposed to Beta Amylase due to action of Isoamylase (Starch DB)'
p51
S'cpd_C00369db_CS'
p52
s.