(dp0
S'Q_sto2'
p1
S'Q_sto2'
p2
sS'I_l'
p3
S'I_l'
p4
sS'Q_gut'
p5
S'Q_gut'
p6
sS'G_t'
p7
S'G_t'
p8
sS'I_d'
p9
S'I_d'
p10
sS'G_p'
p11
S'G_p'
p12
sS'Q_sto1'
p13
S'Q_sto1'
p14
sS'Y'
p15
g15
sS'X'
p16
g16
sS'I_po'
p17
S'I_po'
p18
sS'I_1'
p19
S'I_1'
p20
sS'I_p'
p21
S'I_p'
p22
s.