(dp0
S'junk'
p1
S'species_12'
p2
sS'C3_mRNA'
p3
S's9'
p4
sS'C_3_pre'
p5
S's13'
p6
sS'C1_phos'
p7
S'species_3'
p8
sS'C3_Gene'
p9
S's2'
p10
sS'C_3_P'
p11
S's11'
p12
sS'C_3'
p13
S's10'
p14
sS'C1_mRNA'
p15
S'species_2'
p16
sS'c1c3complex'
p17
S'species_4'
p18
sS'C1'
p19
S'species_1'
p20
s.