(dp0
S'p53deg'
p1
S'p53deg'
p2
sS'Mdm2_p53'
p3
S'Mdm2_p53'
p4
sS'Mdm2mRNAsyn'
p5
S'Mdm2mRNAsyn'
p6
sS'damDNA'
p7
S'damDNA'
p8
sS'p53syn'
p9
S'p53syn'
p10
sS'p53_mRNA'
p11
S'p53_mRNA'
p12
sS'mdm2deg'
p13
S'mdm2deg'
p14
sS'Sink'
p15
S'Sink'
p16
sS'Source'
p17
S'Source'
p18
sS'p53_P'
p19
S'p53_P'
p20
sS'ATMI'
p21
S'ATMI'
p22
sS'totp53'
p23
S'totp53'
p24
sS'Mdm2mRNAdeg'
p25
S'Mdm2mRNAdeg'
p26
sS'Mdm2_P'
p27
S'Mdm2_P'
p28
sS'Mdm2'
p29
S'Mdm2'
p30
sS'mdm2syn'
p31
S'mdm2syn'
p32
sS'totMdm2'
p33
S'totMdm2'
p34
sS'ATMA'
p35
S'ATMA'
p36
sS'Mdm2_mRNA'
p37
S'Mdm2_mRNA'
p38
sS'p53'
p39
S'p53'
p40
s.