(dp0
S'Rv'
p1
S'species_18'
p2
sS'VpCytM1'
p3
S'species_16'
p4
sS'Vex'
p5
S'species_3'
p6
sS'VpNuc'
p7
S'species_9'
p8
sS'Blo'
p9
S'species_4'
p10
sS'total cRNA of a segment'
p11
S'species_37'
p12
sS'Rc'
p13
S'species_10'
p14
sS'Ven'
p15
S'species_6'
p16
sS'Rm2'
p17
S'species_21'
p18
sS'Rm3'
p19
S'species_22'
p20
sS'Rm1'
p21
S'species_20'
p22
sS'Rm6'
p23
S'species_25'
p24
sS'VpNucM1'
p25
S'species_15'
p26
sS'Rm4'
p27
S'species_23'
p28
sS'RcRdrp'
p29
S'species_12'
p30
sS'P_Pb2'
p31
S'species_29'
p32
sS'Rm8'
p33
S'species_27'
p34
sS'P_Pb1'
p35
S'species_28'
p36
sS'P_Na'
p37
S'species_33'
p38
sS'P_M1'
p39
S'species_14'
p40
sS'P_M2'
p41
S'species_34'
p42
sS'Vrel'
p43
S'species_35'
p44
sS'total cRNA'
p45
S'species_36'
p46
sS'RvRdrp'
p47
S'species_19'
p48
sS'Vfus'
p49
S'species_7'
p50
sS'P_Np'
p51
S'species_13'
p52
sS'VattLo'
p53
S'species_5'
p54
sS'total vRNA'
p55
S'species_38'
p56
sS'VattHi'
p57
S'species_2'
p58
sS'total vRNA of a segment'
p59
S'species_39'
p60
sS'Rm7'
p61
S'species_26'
p62
sS'Bhi'
p63
S'species_1'
p64
sS'VpCyt'
p65
S'species_8'
p66
sS'Rm5'
p67
S'species_24'
p68
sS'P_Rdrp'
p69
S'species_11'
p70
sS'P_Nep'
p71
S'species_31'
p72
sS'P_Pa'
p73
S'species_30'
p74
sS'Cp'
p75
S'species_17'
p76
sS'P_Ha'
p77
S'species_32'
p78
s.