(dp0
S'TTAAp'
p1
S'TTAAp'
p2
sS'TTWAAp'
p3
S'TTWAAp'
p4
sS'TTWW'
p5
S'TTWW'
p6
sS'TT'
p7
S'TT'
p8
sS'TTW'
p9
S'TTW'
p10
sS'TTAA'
p11
S'TTAA'
p12
sS'Bp'
p13
S'Bp'
p14
sS'AAp'
p15
S'AAp'
p16
sS'Yp'
p17
S'Yp'
p18
sS'setYp'
p19
S'SetYp'
p20
sS'AA'
p21
S'AA'
p22
sS'TTWAA'
p23
S'TTWAA'
p24
sS'B'
p25
g25
sS'WAA'
p26
S'WAA'
p27
sS'WAAp'
p28
S'WAAp'
p29
sS'W'
p30
g30
sS'Y'
p31
g31
sS'WWAAp'
p32
S'WWAAp'
p33
sS'Z'
p34
g34
sS'WWAA'
p35
S'WWAA'
p36
sS'TTWWAAp'
p37
S'TTWWAAp'
p38
sS'TTWWAA'
p39
S'TTWWAA'
p40
s.