(dp0
S'PKA_cyto'
p1
S'PKA_cyto'
p2
sS'iso_BAR_G_cyto_mem'
p3
S'iso_BAR_G_cyto_mem'
p4
sS'G_protein_cyto'
p5
S'G_protein_cyto'
p6
sS'PDE_high_km_cyto'
p7
S'PDE_high_km_cyto'
p8
sS'AC_active_cyto_mem'
p9
S'AC_active_cyto_mem'
p10
sS'B_Raf_active_cyto'
p11
S'B_Raf_active_cyto'
p12
sS'PDE4_cyto'
p13
S'PDE4_cyto'
p14
sS'c3_R2C2_cyto'
p15
S'c3_R2C2_cyto'
p16
sS'AC_PKA_cyto_mem'
p17
S'AC_PKA_cyto_mem'
p18
sS'PP2A_cyto'
p19
S'PP2A_cyto'
p20
sS'GRK_cyto'
p21
S'GRK_cyto'
p22
sS'AC_cyto_mem'
p23
S'AC_cyto_mem'
p24
sS'MAPK_cyto'
p25
S'MAPK_cyto'
p26
sS'MEK_cyto'
p27
S'MEK_cyto'
p28
sS'cAMP_cyto'
p29
S'cAMP_cyto'
p30
sS'iso_BAR_cyto_mem'
p31
S'iso_BAR_cyto_mem'
p32
sS'iso_BAR_p_cyto_mem'
p33
S'iso_BAR_p_cyto_mem'
p34
sS'G_GDP_cyto'
p35
S'G_GDP_cyto'
p36
sS'R2C2_cyto'
p37
S'R2C2_cyto'
p38
sS'iso_extra'
p39
S'iso_extra'
p40
sS'BAR_cyto_mem'
p41
S'BAR_cyto_mem'
p42
sS'bg_cyto'
p43
S'bg_cyto'
p44
sS'G_a_s_cyto'
p45
S'G_a_s_cyto'
p46
sS'AMP_cyto'
p47
S'AMP_cyto'
p48
sS'ATP_cyto'
p49
S'ATP_cyto'
p50
sS'c2_R2C2_cyto'
p51
S'c2_R2C2_cyto'
p52
sS'PDE4_P_cyto'
p53
S'PDE4_P_cyto'
p54
sS'B_Raf_cyto'
p55
S'B_Raf_cyto'
p56
sS'PTP_cyto'
p57
S'PTP_cyto'
p58
sS'c_R2C2_cyto'
p59
S'c_R2C2_cyto'
p60
sS'MEK_active_cyto'
p61
S'MEK_active_cyto'
p62
sS'PP_PDE_cyto'
p63
S'PP_PDE_cyto'
p64
sS'GRK_bg_cyto'
p65
S'GRK_bg_cyto'
p66
sS'BAR_G_cyto_mem'
p67
S'BAR_G_cyto_mem'
p68
sS'PTP_PKA_cyto'
p69
S'PTP_PKA_cyto'
p70
sS'PTP_PP_cyto'
p71
S'PTP_PP_cyto'
p72
sS'MAPK_active_cyto'
p73
S'MAPK_active_cyto'
p74
s.