(dp0
S'_5mTHF'
p1
S'_5mTHF'
p2
sS'Ser'
p3
S'Ser'
p4
sS'dUMP'
p5
S'dUMP'
p6
sS'DHF'
p7
S'DHF'
p8
sS'Hcy'
p9
S'Hcy'
p10
sS'GAR'
p11
S'GAR'
p12
sS'NADPH'
p13
S'NADPH'
p14
sS'Gly'
p15
S'Gly'
p16
sS'HCOOH'
p17
S'HCOOH'
p18
sS'_10fTHF'
p19
S'_10fTHF'
p20
sS'AICAR'
p21
S'AICAR'
p22
sS'THF'
p23
S'THF'
p24
sS'_5_10_CHTHF'
p25
S'_5_10_CHTHF'
p26
sS'_5_10_CH2THF'
p27
S'_5_10_CH2THF'
p28
s.