(dp0
S'P2G'
p1
S'P2G'
p2
sS'Fru2,6-P2'
p3
S'F26bP'
p4
sS'NAD'
p5
S'NAD'
p6
sS'PEP'
p7
S'PEP'
p8
sS'NADH'
p9
S'NADH'
p10
sS'ATP'
p11
S'ATP'
p12
sS'BPG'
p13
S'BPG'
p14
sS'F16bP'
p15
S'F16bP'
p16
sS'GAP'
p17
S'GAP'
p18
sS'DHAP'
p19
S'DHAP'
p20
sS'Glycerol'
p21
S'Glycerol'
p22
sS'EtOH'
p23
S'EtOH'
p24
sS'AMP'
p25
S'AMP'
p26
sS'Trehalose'
p27
S'Trehalose'
p28
sS'ADP'
p29
S'ADP'
p30
sS'AcAld'
p31
S'AcAld'
p32
sS'P3G'
p33
S'P3G'
p34
sS'Glycogen'
p35
S'Glycogen'
p36
sS'Succinate'
p37
S'Succinate'
p38
sS'CO2'
p39
S'CO2'
p40
sS'PYR'
p41
S'PYR'
p42
sS'GLCo'
p43
S'GLCo'
p44
sS'GLCi'
p45
S'GLCi'
p46
sS'G6P'
p47
S'G6P'
p48
sS'F6P'
p49
S'F6P'
p50
s.