(dp0
S'A'
p1
S'species_0'
p2
sS'GD'
p3
S'species_6'
p4
sS'RG*T'
p5
S'species_10'
p6
sS'G*AT'
p7
S'species_11'
p8
sS'D'
p9
S'species_8'
p10
sS'G'
p11
S'species_1'
p12
sS'RGA'
p13
S'species_14'
p14
sS'G*T'
p15
S'species_5'
p16
sS'RGAD'
p17
S'species_16'
p18
sS'RG*AT'
p19
S'species_15'
p20
sS'RG'
p21
S'species_9'
p22
sS'R'
p23
S'species_4'
p24
sS'RGD'
p25
S'species_13'
p26
sS'T'
p27
S'species_3'
p28
sS'GA'
p29
S'species_2'
p30
sS'Pi'
p31
S'species_7'
p32
sS'GAD'
p33
S'species_12'
p34
s.