(dp0
S'MPFn'
p1
S'MPFn'
p2
sS'Wee1Pn'
p3
S'Wee1Pn'
p4
sS'StgPn'
p5
S'StgPn'
p6
sS'Stgc'
p7
S'Stgc'
p8
sS'Stgm'
p9
S'Stgm'
p10
sS'Stgn'
p11
S'Stgn'
p12
sS'Xm'
p13
S'Xm'
p14
sS'FZYa'
p15
S'FZYa'
p16
sS'MPFc'
p17
S'MPFc'
p18
sS'N'
p19
g19
sS'Wee1n'
p20
S'Wee1n'
p21
sS'preMPFc'
p22
S'preMPFc'
p23
sS'StgPc'
p24
S'StgPc'
p25
sS'Xp'
p26
S'Xp'
p27
sS'Wee1Pc'
p28
S'Wee1Pc'
p29
sS'Wee1c'
p30
S'Wee1c'
p31
sS'IEa_1'
p32
S'IEa_1'
p33
sS'preMPFn'
p34
S'preMPFn'
p35
s.