(dp0
S'IRiP'
p1
S'IRiP'
p2
sS'IRS'
p3
S'IRS'
p4
sS'IRSiP'
p5
S'IRSiP'
p6
sS'IRp'
p7
S'IRp'
p8
sS'IR'
p9
S'IR'
p10
sS'IRi'
p11
S'IRi'
p12
sS'X'
p13
g13
sS'Xp'
p14
S'Xp'
p15
sS'IRins'
p16
S'IRins'
p17
s.