(dp0
S'cFOS preRNA'
p1
S'cFOSp'
p2
sS'ppERK(nucleus)'
p3
S'ppERKn'
p4
sS'cFOSmRNA'
p5
S'cFOSm'
p6
sS'cFOS'
p7
S'cFOS'
p8
sS'pc-FOS'
p9
S'pcFOS'
p10
sS'pRSKn'
p11
S'pRSKn'
p12
sS'x2'
p13
S'x2'
p14
sS'x1'
p15
S'x1'
p16
sS'DUSP'
p17
S'DUSP'
p18
sS'ppERK(cytosol)'
p19
S'ppERKc'
p20
s.