(dp0
S'Rp'
p1
S'Rp'
p2
sS'IRPen'
p3
S'IRPen'
p4
sS'IRp'
p5
S'IRp'
p6
sS'I2R'
p7
S'I2R'
p8
sS'IR'
p9
S'IR'
p10
sS'ins'
p11
S'ins'
p12
sS'IRen'
p13
S'IRen'
p14
sS'I2Ren'
p15
S'I2Ren'
p16
sS'R'
p17
g17
sS'Ren'
p18
S'Ren'
p19
sS'I2RPen'
p20
S'I2RPen'
p21
sS'I2Rp'
p22
S'I2Rp'
p23
sS'RPen'
p24
S'RPen'
p25
s.