(dp0
S'Agg33'
p1
S'Agg33'
p2
sS'TauH4R-Hsc70'
p3
S'TauH4R_Hsc70'
p4
sS'TauH4RMT'
p5
S'TauH4RMT'
p6
sS'Hsc70'
p7
S'Hsc70'
p8
sS'CHIP'
p9
S'CHIP'
p10
sS'Hsp90'
p11
S'Hsp90'
p12
sS'TauH4R-CHIP-Hsc70-Bag2'
p13
S'TauH4R_CHIP_Hsc70_Bag2'
p14
sS'TauH3RUb'
p15
S'TauH3RUb'
p16
sS'TauN4RMT'
p17
S'TauN4RMT'
p18
sS'ATP'
p19
S'ATP'
p20
sS'TauN*3R'
p21
S'TauN_3R'
p22
sS'TauH3R-Hsc70'
p23
S'TauH3R_Hsc70'
p24
sS'20S'
p25
S'_20S'
p26
sS'MT'
p27
S'MT'
p28
sS'TauH4R-CHIP-Hsc70'
p29
S'TauH4R_CHIP_Hsc70'
p30
sS'TauH*3R'
p31
S'TauH_3R'
p32
sS'TauH4RUb'
p33
S'TauH4RUb'
p34
sS'TauH4R'
p35
S'TauH4R'
p36
sS'26S'
p37
S'_26S'
p38
sS'TauH4R-Hsp90'
p39
S'TauH4R_Hsp90'
p40
sS'Bp'
p41
S'Bp'
p42
sS'TauN3R'
p43
S'TauN3R'
p44
sS'Tau03RMT'
p45
S'Tau03RMT'
p46
sS'Tau0*4R'
p47
S'Tau0_4R'
p48
sS'TauH3R-Hsp90'
p49
S'TauH3R_Hsp90'
p50
sS'Tau0*3R'
p51
S'Tau0_3R'
p52
sS'TauH3R-CHIP-Hsc70-Bag2'
p53
S'TauH3R_CHIP_Hsc70_Bag2'
p54
sS'Bag2'
p55
S'Bag2'
p56
sS'Tau03R-Hsp90'
p57
S'Tau03R_Hsp90'
p58
sS'Tau04RMT'
p59
S'Tau04RMT'
p60
sS'Tau04R'
p61
S'Tau04R'
p62
sS'ADP'
p63
S'ADP'
p64
sS'Tau03R'
p65
S'Tau03R'
p66
sS'Agg43'
p67
S'Agg43'
p68
sS'TauN*4R'
p69
S'TauN_4R'
p70
sS'Tau04R-Hsp90'
p71
S'Tau04R_Hsp90'
p72
sS'TauN3RMT'
p73
S'TauN3RMT'
p74
sS'Nucleus3'
p75
S'Nucleus3'
p76
sS'Nucleus4'
p77
S'Nucleus4'
p78
sS'TauH*4R'
p79
S'TauH_4R'
p80
sS'TauH3R-CHIP-Hsc70'
p81
S'TauH3R_CHIP_Hsc70'
p82
sS'TauH3RMT'
p83
S'TauH3RMT'
p84
sS'TauN4R'
p85
S'TauN4R'
p86
sS'Ap'
p87
S'Ap'
p88
sS'TauH3R'
p89
S'TauH3R'
p90
s.