(dp0
S'ERK-P-MEK-PP'
p1
S'x64'
p2
sS'MEK-P-Rafast'
p3
S'x56'
p4
sS'ERK-P'
p5
S'x63'
p6
sS'(IL6-gp80-gp130-JAK)ast2-SHP2ast-Grb2-SOS-Ras-GDP'
p7
S'x42'
p8
sS'(IL6-gp80-gp130-JAK)ast2-SHP2-Grb2'
p9
S'x41'
p10
sS'MEK-P-Phosp2'
p11
S'x60'
p12
sS'(IL6-gp80-gp130-JAK)ast2-SHP2ast'
p13
S'x39'
p14
sS'(IL6-gp80-gp130-JAK)ast2-STAT3C'
p15
S'x11'
p16
sS'gp80'
p17
S'x1'
p18
sS'Grb2-SOS'
p19
S'x38'
p20
sS'STAT3Cast-STAT3Cast'
p21
S'x13'
p22
sS'Mrna-SOCS3C'
p23
S'x26'
p24
sS'(IL6-gp80-gp130-JAK)ast2-STAT3Cast'
p25
S'x12'
p26
sS'(IL6-gp80-gp130-JAK)2'
p27
S'x7'
p28
sS'IL6-gp80-gp130-JAK'
p29
S'x6'
p30
sS'ERK'
p31
S'x61'
p32
sS'MEK-PP-Phosp2'
p33
S'x58'
p34
sS'SHP2ast-Grb2-SOS'
p35
S'x44'
p36
sS'MEK-PP'
p37
S'x57'
p38
sS'Rafast-Phosp1'
p39
S'x52'
p40
sS'(IL6-gp80-gp130-JAK)ast2-STAT3C-SHP2'
p41
S'x33'
p42
sS'MEK-P'
p43
S'x55'
p44
sS'(IL6-gp80-gp130-JAK)ast2-SHP2ast-Grb2'
p45
S'x40'
p46
sS'STAT3Cast'
p47
S'x10'
p48
sS'gp130'
p49
S'x3'
p50
sS'(IL6-gp80-gp130-JAK)ast2-STAT3C-SOCS3'
p51
S'x31'
p52
sS'SOS'
p53
S'x35'
p54
sS'STAT3C-STAT3Cast'
p55
S'x14'
p56
sS'Raf-Ras-GTP'
p57
S'x48'
p58
sS'Ras-GDP'
p59
S'x36'
p60
sS'(IL6-gp80-gp130-JAK)ast2-JAK'
p61
S'x16'
p62
sS'ERK-PP-Phosp3'
p63
S'x67'
p64
sS'SHP2'
p65
S'x15'
p66
sS'Raf'
p67
S'x47'
p68
sS'gp130-JAK'
p69
S'x5'
p70
sS'(IL6-gp80-gp130-JAK)_ast2'
p71
S'x8'
p72
sS'IL6-gp80'
p73
S'x2'
p74
sS'Phosp2'
p75
S'x59'
p76
sS'(IL6-gp80-gp130-JAK)ast2-SHP2ast-Grb2-SOS-Ras-GTP'
p77
S'x43'
p78
sS'STAT3Nast-STAT3Nast'
p79
S'x20'
p80
sS'(IL6-gp80-gp130-JAK)ast2-SOCS3'
p81
S'x30'
p82
sS'PP2'
p83
S'x23'
p84
sS'PP1'
p85
S'x17'
p86
sS'PP1-STAT3Cast'
p87
S'x18'
p88
sS'JAK'
p89
S'x4'
p90
sS'ERK-MEK-PP'
p91
S'x62'
p92
sS'PP1-STAT3Cast-STAT3Cast'
p93
S'x19'
p94
sS'ERK-P-Phosp3'
p95
S'x68'
p96
sS'STAT3N-STAT3Nast'
p97
S'x24'
p98
sS'PP2-STAT3Nast-STAT3Nast'
p99
S'x27'
p100
sS'(IL6-gp80-gp130-JAK)ast2-STAT3C-SOCS3-SHP2'
p101
S'x32'
p102
sS'Mrna-SOCS3N'
p103
S'x25'
p104
sS'STAT3C'
p105
S'x9'
p106
sS'SOCS3'
p107
S'x29'
p108
sS'Phosp1'
p109
S'x50'
p110
sS'Ras-GTPast'
p111
S'x49'
p112
sS'Ras-GTP'
p113
S'x37'
p114
sS'Phosp3'
p115
S'x66'
p116
sS'STAT3N'
p117
S'x22'
p118
sS'Grb2'
p119
S'x34'
p120
sS'MEK'
p121
S'x53'
p122
sS'PP2-STAT3Nast'
p123
S'x28'
p124
sS'ERK-PP'
p125
S'x65'
p126
sS'Rafast'
p127
S'x51'
p128
sS'SHP2ast-Grb2'
p129
S'x45'
p130
sS'MEK-Rafast'
p131
S'x54'
p132
sS'SHP2ast'
p133
S'x46'
p134
sS'STAT3Nast'
p135
S'x21'
p136
s.