(dp0
S'inactive Cdh1'
p1
S'Cdh1_i'
p2
sS'degr'
p3
S'degr'
p4
sS'securin'
p5
S'securin'
p6
sS'Tem1'
p7
S'Tem1'
p8
sS'inactive Tem1'
p9
S'Tem1_i'
p10
sS'securinT'
p11
S'securinT'
p12
sS'PoloT'
p13
S'PoloT'
p14
sS'Cdc14'
p15
S'Cdc14'
p16
sS'Cdc15'
p17
S'Cdc15'
p18
sS'PP2A'
p19
S'PP2A'
p20
sS'separase'
p21
S'separase'
p22
sS'Cdh1'
p23
S'Cdh1'
p24
sS'securin:separase'
p25
S'securinseparase'
p26
sS'Net1'
p27
S'Net1'
p28
sS'inactive Cdc15'
p29
S'Cdc15_i'
p30
sS'AA'
p31
S'AA'
p32
sS'Clb2'
p33
S'Clb2'
p34
sS'separaseT'
p35
S'separaseT'
p36
sS'inactive Polo'
p37
S'Polo_i'
p38
sS'MEN'
p39
S'MEN'
p40
sS'Cdc20'
p41
S'Cdc20'
p42
sS'Net1Cdc14'
p43
S'Net1Cdc14'
p44
sS'Polo'
p45
S'Polo'
p46
sS'Net1P'
p47
S'Net1P'
p48
s.