(dp0
S'EO_aw'
p1
S'EO_aw'
p2
sS'ZF_airways'
p3
S'ZF_airways'
p4
sS'EO_i_aw'
p5
S'EO_i_aw'
p6
sS'LTD4_aw'
p7
S'LTD4_aw'
p8
sS'HPETE_aw'
p9
S'HPETE_aw'
p10
sS'EO_a_aw'
p11
S'EO_a_aw'
p12
sS'LTC4_aw_out'
p13
S'LTC4_aw_out'
p14
sS'HETE_b'
p15
S'HETE_b'
p16
sS'ZF_intes'
p17
S'ZF_intes'
p18
sS'LTE4_aw'
p19
S'LTE4_aw'
p20
sS'EO_a_b'
p21
S'EO_a_b'
p22
sS'AA_b'
p23
S'AA_b'
p24
sS'IL_b'
p25
S'IL_b'
p26
sS'EO_i_b'
p27
S'EO_i_b'
p28
sS'LTD4_b'
p29
S'LTD4_b'
p30
sS'IL_aw'
p31
S'IL_aw'
p32
sS'HETE_aw'
p33
S'HETE_aw'
p34
sS'AA_aw'
p35
S'AA_aw'
p36
sS'LTC4_b'
p37
S'LTC4_b'
p38
sS'LTA4_aw'
p39
S'LTA4_aw'
p40
sS'Hn_b'
p41
S'Hn_b'
p42
sS'HPETE_b'
p43
S'HPETE_b'
p44
sS'EO_bm'
p45
S'EO_bm'
p46
sS'LTE4_b'
p47
S'LTE4_b'
p48
sS'LTC4_aw'
p49
S'LTC4_aw'
p50
sS'IL_bm'
p51
S'IL_bm'
p52
sS'LTC4_b_out'
p53
S'LTC4_b_out'
p54
sS'Hn_aw'
p55
S'Hn_aw'
p56
sS'ZF_blood'
p57
S'ZF_blood'
p58
sS'ML_intes'
p59
S'ML_intes'
p60
sS'LTA4_b'
p61
S'LTA4_b'
p62
sS'EO_b'
p63
S'EO_b'
p64
sS'ML_blood'
p65
S'ML_blood'
p66
s.