(dp0
S'stim_PM'
p1
S'stim_PM'
p2
sS'IP3_Cyt'
p3
S'IP3_Cyt'
p4
sS'PIP_PM'
p5
S'PIP_PM'
p6
sS'IP3_PHGFP_Cyt'
p7
S'IP3_PHGFP_Cyt'
p8
sS'PH_GFP_Cyt'
p9
S'PH_GFP_Cyt'
p10
sS'DAG_PM'
p11
S'DAG_PM'
p12
sS'PI_PM'
p13
S'PI_PM'
p14
sS'PLC_PM'
p15
S'PLC_PM'
p16
sS'hv_Cytosol'
p17
S'hv_Cytosol'
p18
sS'IP3X_Cytosol'
p19
S'IP3X_Cytosol'
p20
sS'PIP2_PHGFP_PM'
p21
S'PIP2_PHGFP_PM'
p22
sS'PLC_act_PM'
p23
S'PLC_act_PM'
p24
sS'PIP2_PM'
p25
S'PIP2_PM'
p26
s.