(dp0
S'Rad18:Rad18'
p1
S'species_4'
p2
sS'Rad5:PCNAonU:U:U'
p3
S'species_21'
p4
sS'Ubc13U:Mms2'
p5
S'species_15'
p6
sS'PCNAonU:U'
p7
S'species_19'
p8
sS'Ubc13U:Mms2:Rad5:PCNAonU:U'
p9
S'species_20'
p10
sS'Rad18:Rad18:PCNAon'
p11
S'species_9'
p12
sS'Rad18:Rad18:PCNAon:Rad6U'
p13
S'species_10'
p14
sS'PCNA'
p15
S'species_2'
p16
sS'PCNAon'
p17
S'species_3'
p18
sS'PCNAonU'
p19
S'species_12'
p20
sS'Rad18'
p21
S'species_5'
p22
sS'PCNAoff'
p23
S'species_23'
p24
sS'L'
p25
S'species_1'
p26
sS'Rad5:PCNAonU:U'
p27
S'species_17'
p28
sS'Rad6'
p29
S'species_6'
p30
sS'Rad5'
p31
S'species_13'
p32
sS'U'
p33
S'species_8'
p34
sS'Ubc13U:Mms2:Rad5:PCNAonU'
p35
S'species_16'
p36
sS'Rad6U'
p37
S'species_7'
p38
sS'Ubc13:Mms2'
p39
S'species_18'
p40
sS'Rad18:Rad18:PCNAonU'
p41
S'species_11'
p42
sS'Rad5:PCNAonU'
p43
S'species_14'
p44
sS'PCNAonU:U:U'
p45
S'species_22'
p46
s.