(dp0
S'RU5P'
p1
S'species_13'
p2
sS'NADH'
p3
S'species_18'
p4
sS'F26P'
p5
S'species_26'
p6
sS'BPG'
p7
S'species_12'
p8
sS'F16P'
p9
S'species_6'
p10
sS'GLC'
p11
S'species_1'
p12
sS'PEP'
p13
S'species_30'
p14
sS'GLY'
p15
S'species_24'
p16
sS'ATP'
p17
S'species_4'
p18
sS'CIT'
p19
S'species_25'
p20
sS'NADP'
p21
S'species_10'
p22
sS'O2'
p23
S'species_34'
p24
sS'E4P'
p25
S'species_7'
p26
sS'Pi'
p27
S'species_23'
p28
sS'X5P'
p29
S'species_14'
p30
sS'NAD'
p31
S'species_19'
p32
sS'PGN'
p33
S'species_8'
p34
sS'GAP'
p35
S'species_16'
p36
sS'AMP'
p37
S'species_20'
p38
sS'G1P'
p39
S'species_22'
p40
sS'ADP'
p41
S'species_3'
p42
sS'NADPH'
p43
S'species_11'
p44
sS'PG2'
p45
S'species_29'
p46
sS'PG3'
p47
S'species_28'
p48
sS'R5P'
p49
S'species_15'
p50
sS'CO2'
p51
S'species_33'
p52
sS'PYR'
p53
S'species_31'
p54
sS'LAC'
p55
S'species_32'
p56
sS'DHAP'
p57
S'species_27'
p58
sS'GLC_e'
p59
S'species_9'
p60
sS'PRPP'
p61
S'species_21'
p62
sS'S7P'
p63
S'species_17'
p64
sS'G6P'
p65
S'species_2'
p66
sS'F6P'
p67
S'species_5'
p68
s.