(dp0
S'GSSG'
p1
S'GSSG'
p2
sS'InR_tot'
p3
S'InR_tot'
p4
sS'nucleus_Foxo1_Pa1_Pd1_Pe0_pUb1'
p5
S'nucleus_Foxo1_Pa1_Pd1_Pe0_pUb1'
p6
sS'nucleus_Foxo1_Pa1_Pd0_Pe1_pUb0'
p7
S'nucleus_Foxo1_Pa1_Pd0_Pe1_pUb0'
p8
sS'nucleus_Foxo1_Pa1_Pd0_Pe1_pUb1'
p9
S'nucleus_Foxo1_Pa1_Pd0_Pe1_pUb1'
p10
sS'PTP1B'
p11
S'PTP1B'
p12
sS'cytoplasm_Foxo1_Pa1_Pd1_Pe0_pUb0'
p13
S'cytoplasm_Foxo1_Pa1_Pd1_Pe0_pUb0'
p14
sS'GSH'
p15
S'GSH'
p16
sS'cytoplasm_InR'
p17
S'cytoplasm_InR'
p18
sS'SGK'
p19
S'SGK'
p20
sS'PI345P3_mol'
p21
S'PI345P3_mol'
p22
sS'PTEN_ox'
p23
S'PTEN_ox'
p24
sS'cytoplasm_Foxo1_Pa1_Pd1_Pe1_pUb1'
p25
S'cytoplasm_Foxo1_Pa1_Pd1_Pe1_pUb1'
p26
sS'IKK_plus_IKK_P'
p27
S'IKK_plus_IKK_P'
p28
sS'nucleus_Foxo1_Pa0_Pd1_Pe0_pUb1'
p29
S'nucleus_Foxo1_Pa0_Pd1_Pe0_pUb1'
p30
sS'NOX_inact'
p31
S'NOX_inact'
p32
sS'nucleus_Foxo1_Pa0_Pd1_Pe0_pUb0'
p33
S'nucleus_Foxo1_Pa0_Pd1_Pe0_pUb0'
p34
sS'DUSP_plus_DUSP_ox'
p35
S'DUSP_plus_DUSP_ox'
p36
sS'DUSP'
p37
S'DUSP'
p38
sS'IKK_P'
p39
S'IKK_P'
p40
sS'dnabound_Foxo1_Pa0_Pd1_Pe1_pUb1'
p41
S'dnabound_Foxo1_Pa0_Pd1_Pe1_pUb1'
p42
sS'dnabound_Foxo1_Pa0_Pd1_Pe1_pUb0'
p43
S'dnabound_Foxo1_Pa0_Pd1_Pe1_pUb0'
p44
sS'Foxo1_all'
p45
S'Foxo1_all'
p46
sS'nucleus_Foxo1_Pa1_Pd1_Pe0_pUb0'
p47
S'nucleus_Foxo1_Pa1_Pd1_Pe0_pUb0'
p48
sS'InR_active'
p49
S'InR_active'
p50
sS'PTEN'
p51
S'PTEN'
p52
sS'SCF'
p53
S'SCF'
p54
sS'JNK'
p55
S'JNK'
p56
sS'cytoplasm_RNA_SOD2'
p57
S'cytoplasm_RNA_SOD2'
p58
sS'dnabound_Foxo1_Pa0_Pd0_Pe0_pUb1'
p59
S'dnabound_Foxo1_Pa0_Pd0_Pe0_pUb1'
p60
sS'dnabound_Foxo1_Pa0_Pd0_Pe0_pUb0'
p61
S'dnabound_Foxo1_Pa0_Pd0_Pe0_pUb0'
p62
sS'IRS1_TyrP_PI3K'
p63
S'IRS1_TyrP_PI3K'
p64
sS'cytoplasm_Foxo1_Pa0_Pd0_Pe1_pUb0'
p65
S'cytoplasm_Foxo1_Pa0_Pd0_Pe1_pUb0'
p66
sS'cytoplasm_Foxo1_Pa0_Pd0_Pe1_pUb1'
p67
S'cytoplasm_Foxo1_Pa0_Pd0_Pe1_pUb1'
p68
sS'NOX_deact'
p69
S'NOX_deact'
p70
sS'SIRT1'
p71
S'SIRT1'
p72
sS'dnabound_Foxo1_Pa1_Pd1_Pe0_pUb0'
p73
S'dnabound_Foxo1_Pa1_Pd1_Pe0_pUb0'
p74
sS'dnabound_Foxo1_Pa1_Pd0_Pe1_pUb1'
p75
S'dnabound_Foxo1_Pa1_Pd0_Pe1_pUb1'
p76
sS'dnabound_Foxo1_Pa1_Pd0_Pe1_pUb0'
p77
S'dnabound_Foxo1_Pa1_Pd0_Pe1_pUb0'
p78
sS'extracellular_ROS'
p79
S'extracellular_ROS'
p80
sS'IRS1_PolySerP'
p81
S'IRS1_PolySerP'
p82
sS'nucleus_Foxo1_tot'
p83
S'nucleus_Foxo1_tot'
p84
sS'JNK_P'
p85
S'JNK_P'
p86
sS'dnabound_Foxo1_Pa0_Pd0_Pe1_pUb0'
p87
S'dnabound_Foxo1_Pa0_Pd0_Pe1_pUb0'
p88
sS'dnabound_Foxo1_Pa0_Pd0_Pe1_pUb1'
p89
S'dnabound_Foxo1_Pa0_Pd0_Pe1_pUb1'
p90
sS'Foxo1_Pe0_tot'
p91
S'Foxo1_Pe0_tot'
p92
sS'dnabound_Foxo1_Pa1_Pd0_Pe0_pUb0'
p93
S'dnabound_Foxo1_Pa1_Pd0_Pe0_pUb0'
p94
sS'dnabound_Foxo1_Pa1_Pd0_Pe0_pUb1'
p95
S'dnabound_Foxo1_Pa1_Pd0_Pe0_pUb1'
p96
sS'cytoplasm_Foxo1_Pa1_Pd0_Pe1_pUb1'
p97
S'cytoplasm_Foxo1_Pa1_Pd0_Pe1_pUb1'
p98
sS'cytoplasm_Foxo1_Pa1_Pd0_Pe1_pUb0'
p99
S'cytoplasm_Foxo1_Pa1_Pd0_Pe1_pUb0'
p100
sS'PKC'
p101
S'PKC'
p102
sS'cytoplasm_Foxo1_Pa0_Pd1_Pe0_pUb0'
p103
S'cytoplasm_Foxo1_Pa0_Pd1_Pe0_pUb0'
p104
sS'cytoplasm_Foxo1_Pa0_Pd1_Pe0_pUb1'
p105
S'cytoplasm_Foxo1_Pa0_Pd1_Pe0_pUb1'
p106
sS'ROS'
p107
S'ROS'
p108
sS'E3'
p109
S'E3'
p110
sS'PIP2_mol'
p111
S'PIP2_mol'
p112
sS'Foxo1_Pd0_tot'
p113
S'Foxo1_Pd0_tot'
p114
sS'Foxo1_pUb1_tot'
p115
S'Foxo1_pUb1_tot'
p116
sS'PKC_P'
p117
S'PKC_P'
p118
sS'Mt'
p119
S'Mt'
p120
sS'IRS_total'
p121
S'IRS_total'
p122
sS'cellsurface_GLUT4'
p123
S'cellsurface_GLUT4'
p124
sS'cytoplasm_Foxo1_Pa0_Pd0_Pe0_pUb1'
p125
S'cytoplasm_Foxo1_Pa0_Pd0_Pe0_pUb1'
p126
sS'cytoplasm_Foxo1_Pa0_Pd0_Pe0_pUb0'
p127
S'cytoplasm_Foxo1_Pa0_Pd0_Pe0_pUb0'
p128
sS'AMPK'
p129
S'AMPK'
p130
sS'Foxo1_Pa1_tot'
p131
S'Foxo1_Pa1_tot'
p132
sS'PTEN_plus_PTEN_ox'
p133
S'PTEN_plus_PTEN_ox'
p134
sS'NOX'
p135
S'NOX'
p136
sS'nucleus_RNA_InR'
p137
S'nucleus_RNA_InR'
p138
sS'InR_bound'
p139
S'InR_bound'
p140
sS'cytoplasm_SOD2'
p141
S'cytoplasm_SOD2'
p142
sS'DUSP_ox'
p143
S'DUSP_ox'
p144
sS'cytoplasm_RNA_InR'
p145
S'cytoplasm_RNA_InR'
p146
sS'CBPP300'
p147
S'CBPP300'
p148
sS'dnabound_Foxo1_tot'
p149
S'dnabound_Foxo1_tot'
p150
sS'IRS1_TyrP_PolySerP'
p151
S'IRS1_TyrP_PolySerP'
p152
sS'nucleus_RNA_SOD2'
p153
S'nucleus_RNA_SOD2'
p154
sS'nucleus_Foxo1_Pa1_Pd0_Pe0_pUb0'
p155
S'nucleus_Foxo1_Pa1_Pd0_Pe0_pUb0'
p156
sS'IKK'
p157
S'IKK'
p158
sS'Foxo1_Pe1_tot'
p159
S'Foxo1_Pe1_tot'
p160
sS'cytoplasm_GLUT4'
p161
S'cytoplasm_GLUT4'
p162
sS'nucleus_Foxo1_Pa0_Pd0_Pe1_pUb1'
p163
S'nucleus_Foxo1_Pa0_Pd0_Pe1_pUb1'
p164
sS'nucleus_Foxo1_Pa0_Pd0_Pe1_pUb0'
p165
S'nucleus_Foxo1_Pa0_Pd0_Pe1_pUb0'
p166
sS'PI3K'
p167
S'PI3K'
p168
sS'PTP1B_plus_PTP1B_ox'
p169
S'PTP1B_plus_PTP1B_ox'
p170
sS'PI345P3'
p171
S'PI345P3'
p172
sS'InR'
p173
S'InR'
p174
sS'Foxo1_Pd1_tot'
p175
S'Foxo1_Pd1_tot'
p176
sS'PTP1B_ox'
p177
S'PTP1B_ox'
p178
sS'cytoplasm_Foxo1_Pa1_Pd0_Pe0_pUb0'
p179
S'cytoplasm_Foxo1_Pa1_Pd0_Pe0_pUb0'
p180
sS'cytoplasm_Foxo1_Pa1_Pd0_Pe0_pUb1'
p181
S'cytoplasm_Foxo1_Pa1_Pd0_Pe0_pUb1'
p182
sS'dnabound_Foxo1_Pa1_Pd1_Pe0_pUb1'
p183
S'dnabound_Foxo1_Pa1_Pd1_Pe0_pUb1'
p184
sS'IRS1'
p185
S'IRS1'
p186
sS'Ins'
p187
S'Ins'
p188
sS'CDK2'
p189
S'CDK2'
p190
sS'nucleus_Foxo1_Pa0_Pd1_Pe1_pUb0'
p191
S'nucleus_Foxo1_Pa0_Pd1_Pe1_pUb0'
p192
sS'nucleus_Foxo1_Pa0_Pd1_Pe1_pUb1'
p193
S'nucleus_Foxo1_Pa0_Pd1_Pe1_pUb1'
p194
sS'nucleus_Foxo1_Pa1_Pd0_Pe0_pUb1'
p195
S'nucleus_Foxo1_Pa1_Pd0_Pe0_pUb1'
p196
sS'NOX_total'
p197
S'NOX_total'
p198
sS'degr_Foxo1'
p199
S'degr_Foxo1'
p200
sS'dnabound_Foxo1_Pa1_Pd1_Pe1_pUb1'
p201
S'dnabound_Foxo1_Pa1_Pd1_Pe1_pUb1'
p202
sS'nucleus_Foxo1_Pa1_Pd1_Pe1_pUb1'
p203
S'nucleus_Foxo1_Pa1_Pd1_Pe1_pUb1'
p204
sS'nucleus_Foxo1_Pa1_Pd1_Pe1_pUb0'
p205
S'nucleus_Foxo1_Pa1_Pd1_Pe1_pUb0'
p206
sS'USP7'
p207
S'USP7'
p208
sS'dnabound_Foxo1_Pa1_Pd1_Pe1_pUb0'
p209
S'dnabound_Foxo1_Pa1_Pd1_Pe1_pUb0'
p210
sS'Akt_P2'
p211
S'Akt_P2'
p212
sS'NULL'
p213
S'NULL'
p214
sS'Ins_2_InR_P'
p215
S'Ins_2_InR_P'
p216
sS'AS160_P'
p217
S'AS160_P'
p218
sS'null'
p219
S'null'
p220
sS'cytoplasm_Ins_2_InR_P'
p221
S'cytoplasm_Ins_2_InR_P'
p222
sS'PIP2'
p223
S'PIP2'
p224
sS'cytoplasm_Foxo1_Pa1_Pd1_Pe1_pUb0'
p225
S'cytoplasm_Foxo1_Pa1_Pd1_Pe1_pUb0'
p226
sS'PP2A'
p227
S'PP2A'
p228
sS'cytoplasm_Foxo1_Pa1_Pd1_Pe0_pUb1'
p229
S'cytoplasm_Foxo1_Pa1_Pd1_Pe0_pUb1'
p230
sS'JNK_plus_JNK_P'
p231
S'JNK_plus_JNK_P'
p232
sS'dnabound_Foxo1_Pa0_Pd1_Pe0_pUb0'
p233
S'dnabound_Foxo1_Pa0_Pd1_Pe0_pUb0'
p234
sS'dnabound_Foxo1_Pa0_Pd1_Pe0_pUb1'
p235
S'dnabound_Foxo1_Pa0_Pd1_Pe0_pUb1'
p236
sS'Akt'
p237
S'Akt'
p238
sS'IRS1_TyrP'
p239
S'IRS1_TyrP'
p240
sS'cytoplasm_Ins_InR_P'
p241
S'cytoplasm_Ins_InR_P'
p242
sS'nucleus_Foxo1_Pa0_Pd0_Pe0_pUb0'
p243
S'nucleus_Foxo1_Pa0_Pd0_Pe0_pUb0'
p244
sS'nucleus_Foxo1_Pa0_Pd0_Pe0_pUb1'
p245
S'nucleus_Foxo1_Pa0_Pd0_Pe0_pUb1'
p246
sS'Ins_InR_P'
p247
S'Ins_InR_P'
p248
sS'E2F1'
p249
S'E2F1'
p250
sS'Ins_InR'
p251
S'Ins_InR'
p252
sS'AS160'
p253
S'AS160'
p254
sS'Proteasome'
p255
S'Proteasome'
p256
sS'Foxo1_Pa0_tot'
p257
S'Foxo1_Pa0_tot'
p258
sS'cytoplasm_Foxo1_tot'
p259
S'cytoplasm_Foxo1_tot'
p260
sS'Foxo1_pUb0_tot'
p261
S'Foxo1_pUb0_tot'
p262
sS'cytoplasm_Foxo1_Pa0_Pd1_Pe1_pUb1'
p263
S'cytoplasm_Foxo1_Pa0_Pd1_Pe1_pUb1'
p264
sS'cytoplasm_Foxo1_Pa0_Pd1_Pe1_pUb0'
p265
S'cytoplasm_Foxo1_Pa0_Pd1_Pe1_pUb0'
p266
s.