(dp0
S'P2nuc'
p1
S'species_0000003'
p2
sS'P0cyt'
p3
S'species_0000004'
p4
sS'CLK'
p5
S'species_0000008'
p6
sS'PDP'
p7
S'species_0000009'
p8
sS'P1nuc'
p9
S'species_0000002'
p10
sS'P2cyt'
p11
S'species_0000006'
p12
sS'P1cyt'
p13
S'species_0000005'
p14
sS'P0nuc'
p15
S'species_0000001'
p16
sS'VRI'
p17
S'species_0000007'
p18
s.