(dp0
S'P2'
p1
S'species_9'
p2
sS'P3'
p3
S'species_10'
p4
sS'MKKK'
p5
S'species_0'
p6
sS'MKK_P'
p7
S'species_3'
p8
sS'MKK_PP'
p9
S'species_4'
p10
sS'M'
p11
S'species_5'
p12
sS'MKK'
p13
S'species_2'
p14
sS'MKKK_P'
p15
S'species_1'
p16
sS'P1'
p17
S'species_8'
p18
sS'X_P'
p19
S'species_12'
p20
sS'X'
p21
S'species_11'
p22
sS'M_P'
p23
S'species_6'
p24
sS'M_PP'
p25
S'species_7'
p26
s.