(dp0
S'TIM-p'
p1
S'T1'
p2
sS'total PER'
p3
S'Pt'
p4
sS'total TIM'
p5
S'Tt'
p6
sS'per mRNA'
p7
S'M_P'
p8
sS'PER-p'
p9
S'P1'
p10
sS'PER'
p11
S'P0'
p12
sS'tim mRNA'
p13
S'M_T'
p14
sS'TIM'
p15
S'T0'
p16
sS'PER_TIM complex cytoplasm'
p17
S'C'
p18
sS'TIM-pp'
p19
S'T2'
p20
sS'PER-pp'
p21
S'P2'
p22
sS'PER_TIM complex nuclear'
p23
S'CN'
p24
s.