(dp0
S'FT1'
p1
S'species_26'
p2
sS'TfR2'
p3
S'species_10'
p4
sS'Fpn'
p5
S'species_4'
p6
sS'FT'
p7
S'species_25'
p8
sS'Hamp'
p9
S'species_7'
p10
sS'IRP'
p11
S'species_6'
p12
sS'Heme_intercell'
p13
S'species_11'
p14
sS'Fe-FT'
p15
S'species_24'
p16
sS'HO-1'
p17
S'species_1'
p18
sS'Tf-Fe-TfR1'
p19
S'species_12'
p20
sS'Heme'
p21
S'species_5'
p22
sS'LIP'
p23
S'species_2'
p24
sS'HFE-TfR'
p25
S'species_9'
p26
sS'Tf-Fe-TfR2'
p27
S'species_15'
p28
sS'2HFE-TfR2'
p29
S'species_18'
p30
sS'2(Tf-Fe)-TfR1'
p31
S'species_16'
p32
sS'Tf-Fe_intercell'
p33
S'species_43'
p34
sS'2(Tf-Fe)-TfR2'
p35
S'species_19'
p36
sS'HFE'
p37
S'species_8'
p38
sS'2HFE-TfR'
p39
S'species_17'
p40
sS'TfR'
p41
S'species_3'
p42
s.