(dp0
S'Fru_e'
p1
S'Fru_e'
p2
sS'_2PGA_c'
p3
S'_2PGA_c'
p4
sS'Fru_g'
p5
S'Fru_g'
p6
sS'ATP_c'
p7
S'ATP_c'
p8
sS'DHAP_c'
p9
S'DHAP_c'
p10
sS'ATP_g'
p11
S'ATP_g'
p12
sS'DHAP_g'
p13
S'DHAP_g'
p14
sS'ADP_g'
p15
S'ADP_g'
p16
sS'Glc6P_g'
p17
S'Glc6P_g'
p18
sS'ADP_c'
p19
S'ADP_c'
p20
sS'_3PGA_c'
p21
S'_3PGA_c'
p22
sS'Rib_g'
p23
S'Rib_g'
p24
sS'Fru6P_g'
p25
S'Fru6P_g'
p26
sS'Fru6P_c'
p27
S'Fru6P_c'
p28
sS'Pi_g'
p29
S'Pi_g'
p30
sS'O2_c'
p31
S'O2_c'
p32
sS'NADP_c'
p33
S'NADP_c'
p34
sS'Fru_c'
p35
S'Fru_c'
p36
sS'NADP_g'
p37
S'NADP_g'
p38
sS'_6PG_g'
p39
S'_6PG_g'
p40
sS'Rul5P_c'
p41
S'Rul5P_c'
p42
sS'_6PG_c'
p43
S'_6PG_c'
p44
sS'Rul5P_g'
p45
S'Rul5P_g'
p46
sS'Glc6P_c'
p47
S'Glc6P_c'
p48
sS'Rib5P_c'
p49
S'Rib5P_c'
p50
sS'_13BPGA_g'
p51
S'_13BPGA_g'
p52
sS'Glc_c'
p53
S'Glc_c'
p54
sS'Rib5P_g'
p55
S'Rib5P_g'
p56
sS'Glc_g'
p57
S'Glc_g'
p58
sS'Glc_e'
p59
S'Glc_e'
p60
sS'NADPH_g'
p61
S'NADPH_g'
p62
sS'NADPH_c'
p63
S'NADPH_c'
p64
sS'Pyr_c'
p65
S'Pyr_c'
p66
sS'Pyr_e'
p67
S'Pyr_e'
p68
sS'NAD_g'
p69
S'NAD_g'
p70
sS'Fru16BP_g'
p71
S'Fru16BP_g'
p72
sS'GA3P_g'
p73
S'GA3P_g'
p74
sS'Gly_e'
p75
S'Gly_e'
p76
sS'CO2_c'
p77
S'CO2_c'
p78
sS'TSH2_c'
p79
S'TSH2_c'
p80
sS'CO2_g'
p81
S'CO2_g'
p82
sS'Gly3P_c'
p83
S'Gly3P_c'
p84
sS'Gly3P_g'
p85
S'Gly3P_g'
p86
sS'_6PGL_c'
p87
S'_6PGL_c'
p88
sS'TS2_c'
p89
S'TS2_c'
p90
sS'_6PGL_g'
p91
S'_6PGL_g'
p92
sS'PEP_c'
p93
S'PEP_c'
p94
sS'AMP_g'
p95
S'AMP_g'
p96
sS'_3PGA_g'
p97
S'_3PGA_g'
p98
sS'AMP_c'
p99
S'AMP_c'
p100
sS'NADH_g'
p101
S'NADH_g'
p102
s.