(dp0
S'ER Calcium'
p1
S'Ca_er'
p2
sS'Cytosolic Sodium'
p3
S'Na_cyt'
p4
sS'Cytosolic ATP'
p5
S'ATP_cyt'
p6
sS'Cytosolic IP3'
p7
S'IP3_cyt'
p8
sS'Cytosolic Calcium'
p9
S'Ca_cyt'
p10
sS'Cytosolic ADP'
p11
S'ADP_cyt'
p12
s.