(dp0
S'PGA_ch'
p1
S'PGA_ch'
p2
sS'DHAP_ch'
p3
S'DHAP_ch'
p4
sS'G6P_ch'
p5
S'G6P_ch'
p6
sS'x_DHAP_cyt'
p7
S'x_DHAP_cyt'
p8
sS'ADP_ch'
p9
S'ADP_ch'
p10
sS'BPGA_ch'
p11
S'BPGA_ch'
p12
sS'x_PGA_cyt'
p13
S'x_PGA_cyt'
p14
sS'ATP_ch'
p15
S'ATP_ch'
p16
sS'SBP_ch'
p17
S'SBP_ch'
p18
sS'F6P_ch'
p19
S'F6P_ch'
p20
sS'R5P_ch'
p21
S'R5P_ch'
p22
sS'x_Pi_cyt'
p23
S'x_Pi_cyt'
p24
sS'X5P_ch'
p25
S'X5P_ch'
p26
sS'x_Proton_ch'
p27
S'x_Proton_ch'
p28
sS'x_CO2'
p29
S'x_CO2'
p30
sS'Ru5P_ch'
p31
S'Ru5P_ch'
p32
sS'x_Starch_ch'
p33
S'x_Starch_ch'
p34
sS'G1P_ch'
p35
S'G1P_ch'
p36
sS'x_GAP_cyt'
p37
S'x_GAP_cyt'
p38
sS'x_NADPH_ch'
p39
S'x_NADPH_ch'
p40
sS'x_NADP_ch'
p41
S'x_NADP_ch'
p42
sS'E4P_ch'
p43
S'E4P_ch'
p44
sS'Pi_ch'
p45
S'Pi_ch'
p46
sS'FBP_ch'
p47
S'FBP_ch'
p48
sS'GAP_ch'
p49
S'GAP_ch'
p50
sS'RuBP_ch'
p51
S'RuBP_ch'
p52
sS'S7P_ch'
p53
S'S7P_ch'
p54
s.