(dp0
S'AS_b'
p1
S'AS_b'
p2
sS'AS_m'
p3
S'AS_m'
p4
sS'ASoOH_m'
p5
S'ASoOH_m'
p6
sS'ASL_b'
p7
S'ASL_b'
p8
sS'ASL_c'
p9
S'ASL_c'
p10
sS'ASL_m'
p11
S'ASL_m'
p12
sS'AS_c'
p13
S'AS_c'
p14
sS'ASoOH_c'
p15
S'ASoOH_c'
p16
sS'ASLpOH_b'
p17
S'ASLpOH_b'
p18
sS'ASLoOH_c'
p19
S'ASLoOH_c'
p20
sS'ASLpOH_m'
p21
S'ASLpOH_m'
p22
sS'ASpOH_c'
p23
S'ASpOH_c'
p24
sS'ASpOH_b'
p25
S'ASpOH_b'
p26
sS'ASpOH_m'
p27
S'ASpOH_m'
p28
sS'ASLoOH_b'
p29
S'ASLoOH_b'
p30
sS'ASoOH_b'
p31
S'ASoOH_b'
p32
sS'ASLoOH_m'
p33
S'ASLoOH_m'
p34
sS'ASLpOH_c'
p35
S'ASLpOH_c'
p36
s.