(dp0
S'Glucose outside the cell'
p1
S'Glco'
p2
sS'Phosphoenol pyruvate'
p3
S'PEP'
p4
sS'Ethanol'
p5
S'EtOH'
p6
sS'Glucose inside the cell'
p7
S'Glci'
p8
sS'Fructose 1,6-phosphate'
p9
S'FDP'
p10
sS'Glucose 6-phosphate'
p11
S'G6P'
p12
sS'Glycerol'
p13
S'Gly'
p14
sS'ATP'
p15
S'ATP'
p16
sS'Glycogen and Trehalose'
p17
S'Carbo'
p18
s.