(dp0
S'sa5_degraded'
p1
S's67'
p2
sS'GA4-GID-closed'
p3
S's62'
p4
sS'GA4-GID-DELLA2'
p5
S's36'
p6
sS'GA12'
p7
S's23'
p8
sS'GA15'
p9
S's24'
p10
sS'GA4-GID-DELLA1'
p11
S's45'
p12
sS'GID_source'
p13
S's33'
p14
sS'GA20ox'
p15
S's27'
p16
sS'GA12-GA20ox'
p17
S's32'
p18
sS'ga20ox_source'
p19
S's11'
p20
sS'gid'
p21
S's42'
p22
sS'GA15-GA20ox'
p23
S's31'
p24
sS'gid_source'
p25
S's15'
p26
sS'GA3ox'
p27
S's28'
p28
sS'GA4-GID'
p29
S's65'
p30
sS'GA9-GA3ox'
p31
S's29'
p32
sS'sa6_degraded'
p33
S's68'
p34
sS'GA9'
p35
S's26'
p36
sS'GA4'
p37
S's1'
p38
sS'ga3ox_source'
p39
S's35'
p40
sS'della_source'
p41
S's34'
p42
sS'GID'
p43
S's2'
p44
sS'GA24'
p45
S's25'
p46
sS'GA12_source'
p47
S's3'
p48
sS'ga20ox'
p49
S's39'
p50
sS'DELLA'
p51
S's16'
p52
sS'sa7_degraded'
p53
S's69'
p54
sS'DELLA_U'
p55
S's22'
p56
sS'GA3ox_source'
p57
S's5'
p58
sS'sa8_degraded'
p59
S's70'
p60
sS'DELLA_source'
p61
S's7'
p62
sS'GA20ox_source'
p63
S's6'
p64
sS'GA4_source'
p65
S's66'
p66
sS'GA24-GA20ox'
p67
S's30'
p68
sS'sa1_degraded'
p69
S's71'
p70
sS'ga3ox'
p71
S's41'
p72
sS'della'
p73
S's40'
p74
s.