(dp0
S'M_MAPKK'
p1
S'M_MAPKK'
p2
sS'MAPKK'
p3
S'MAPKK'
p4
sS'M'
p5
g5
sS'Mp_MKP*'
p6
S'Mp_MKP3'
p7
sS'Mp_MKP'
p8
S'Mp_MKP3_dep'
p9
sS'Mpp_MKP'
p10
S'Mpp_MKP3'
p11
sS'Mp'
p12
S'Mp'
p13
sS'Mpp'
p14
S'Mpp'
p15
sS'MKP'
p16
S'MKP3'
p17
sS'M_MKP'
p18
S'M_MKP3'
p19
sS'Mp_MAPKK'
p20
S'Mp_MAPKK'
p21
s.