(dp0
S'IFNb_env'
p1
S'IFNb_env'
p2
sS'STAT'
p3
S'STAT'
p4
sS'TNFenv'
p5
S'TNFenv'
p6
sS'SOCS1m'
p7
S'SOCS1m'
p8
sS'IFNa_env'
p9
S'IFNa_env'
p10
sS'IRF7m'
p11
S'IRF7m'
p12
sS'STATP2n'
p13
S'STATP2n'
p14
sS'w'
p15
g15
sS'IRF7Pn'
p16
S'IRF7Pn'
p17
sS'IFNa_mRNA'
p18
S'IFNa_mRNA'
p19
sS'TNFam'
p20
S'TNFam'
p21
sS'STATm'
p22
S'STATm'
p23
sS'IFNb_mRNA'
p24
S'IFNb_mRNA'
p25
s.