(dp0
S'Xa_TFPI'
p1
S'Xa_TFPI'
p2
sS'VII'
p3
S'VII'
p4
sS'Xa_ATIII'
p5
S'Xa_ATIII'
p6
sS'IXa'
p7
S'IXa'
p8
sS'IIa'
p9
S'IIa'
p10
sS'TF_VIIa_Xa_TFPI'
p11
S'TF_VIIa_Xa_TFPI'
p12
sS'TF_VII'
p13
S'TF_VII'
p14
sS'TF_VIIa_ATIII'
p15
S'TF_VIIa_ATIII'
p16
sS'TF_VIIa_Xa'
p17
S'TF_VIIa_Xa'
p18
sS'TFPI'
p19
S'TFPI'
p20
sS'TF'
p21
S'TF'
p22
sS'VIIIa1_L'
p23
S'VIIIa1_L'
p24
sS'TF_VIIa_X'
p25
S'TF_VIIa_X'
p26
sS'IXa_VIIIa_X'
p27
S'IXa_VIIIa_X'
p28
sS'TF_VIIa_IX'
p29
S'TF_VIIa_IX'
p30
sS'IX'
p31
S'IX'
p32
sS'ATIII'
p33
S'ATIII'
p34
sS'Xa_Va'
p35
S'Xa_Va'
p36
sS'TF_VIIa'
p37
S'TF_VIIa'
p38
sS'mIIa'
p39
S'mIIa'
p40
sS'mIIa_ATIII'
p41
S'mIIa_ATIII'
p42
sS'IIa_ATIII'
p43
S'IIa_ATIII'
p44
sS'II'
p45
S'II'
p46
sS'V'
p47
g47
sS'X'
p48
g48
sS'Xa_Va_II'
p49
S'Xa_Va_II'
p50
sS'VIIa'
p51
S'VIIa'
p52
sS'Va'
p53
S'Va'
p54
sS'VIIIa2'
p55
S'VIIIa2'
p56
sS'Xa'
p57
S'Xa'
p58
sS'IXa_ATIII'
p59
S'IXa_ATIII'
p60
sS'VIII'
p61
S'VIII'
p62
sS'VIIIa'
p63
S'VIIIa'
p64
sS'IXa_VIIIa'
p65
S'IXa_VIIIa'
p66
s.