(dp0
S'NAD+'
p1
S'species_6'
p2
sS'NADH'
p3
S'species_7'
p4
sS'ADP'
p5
S'species_3'
p6
sS'PCr'
p7
S'species_11'
p8
sS'Na+'
p9
S'species_1'
p10
sS'PYR'
p11
S'species_8'
p12
sS'GLC'
p13
S'species_17'
p14
sS'PEP'
p15
S'species_9'
p16
sS'dHb'
p17
S'dHb'
p18
sS'GAP'
p19
S'species_5'
p20
sS'ATP'
p21
S'species_2'
p22
sS'Cr'
p23
S'species_12'
p24
sS'LAC'
p25
S'species_18'
p26
sS'O2'
p27
S'species_19'
p28
s.