(dp0
S'Suc'
p1
S'Suc'
p2
sS'SucV'
p3
S'SucV'
p4
sS'ATP'
p5
S'ATP'
p6
sS'Pi'
p7
S'Pi'
p8
sS'Ru5P'
p9
S'Ru5P'
p10
sS'E4P'
p11
S'E4P'
p12
sS'HeP'
p13
S'HeP'
p14
sS'PGA'
p15
S'PGA'
p16
sS'TP'
p17
S'TP'
p18
sS'RuBP'
p19
S'RuBP'
p20
sS'E'
p21
g21
sS'ADP'
p22
S'ADP'
p23
sS'TPGA'
p24
S'TPGA'
p25
sS'GG'
p26
S'GG'
p27
sS'UTP'
p28
S'UTP'
p29
sS'UDP'
p30
S'UDP'
p31
sS'CO2'
p32
S'CO2'
p33
sS'TPc'
p34
S'TPc'
p35
sS'Resp'
p36
S'Resp'
p37
sS'Pic'
p38
S'Pic'
p39
sS'HePc'
p40
S'HePc'
p41
sS'S7P'
p42
S'S7P'
p43
s.