(dp0
S'Xa_TFPI'
p1
S'Xa_TFPI'
p2
sS'Xa'
p3
S'Xa'
p4
sS'VIIa_TF_Xa'
p5
S'VIIa_TF_Xa'
p6
sS'Xa_TFPI_VIIa_TF'
p7
S'Xa_TFPI_VIIa_TF'
p8
sS'X'
p9
g9
sS'TFPI'
p10
S'TFPI'
p11
sS'VIIa_TF'
p12
S'VIIa_TF'
p13
sS'VIIa_TF_X'
p14
S'VIIa_TF_X'
p15
sS'VIIa_TF_Xa_TFPI'
p16
S'VIIa_TF_Xa_TFPI'
p17
s.