(dp0
S'LOO*'
p1
S'species_0000007'
p2
sS'H2O2'
p3
S'species_0000006'
p4
sS'LOOH'
p5
S'species_0000009'
p6
sS'O2*-'
p7
S'species_0000001'
p8
sS'HO*'
p9
S'species_0000008'
p10
sS'Cat'
p11
S'species_0000017'
p12
sS'SODtotal'
p13
S'species_0000016'
p14
sS'Cu(II)ZnSOD'
p15
S'species_0000002'
p16
sS'L*'
p17
S'species_0000011'
p18
s.