(dp0
S'Caer'
p1
S'Caer'
p2
sS'c'
p3
g3
sS'FBP'
p4
S'FBP'
p5
sS'Cam'
p6
S'Cam'
p7
sS'ADPm'
p8
S'ADPm'
p9
sS'adp'
p10
S'adp'
p11
sS'Vm'
p12
S'Vm'
p13
sS'n'
p14
g14
sS'delta_psi'
p15
S'delta_psi'
p16
sS'G6P'
p17
S'G6P'
p18
sS'NADHm'
p19
S'NADHm'
p20
s.