(dp0
S'DNA11_11'
p1
S'DNA11_11'
p2
sS'DNA11_10'
p3
S'DNA11_10'
p4
sS'DNA1111'
p5
S'DNA1111'
p6
sS'DNA1110'
p7
S'DNA1110'
p8
sS'DNA0101'
p9
S'DNA0101'
p10
sS'DNA0100'
p11
S'DNA0100'
p12
sS'S1'
p13
S'S1'
p14
sS'DNA01_10'
p15
S'DNA01_10'
p16
sS'DNA1101'
p17
S'DNA1101'
p18
sS'DNA11_1_1'
p19
S'DNA11_1_1'
p20
sS'DNA01_1_1'
p21
S'DNA01_1_1'
p22
sS'DNA1010'
p23
S'DNA1010'
p24
sS'DNA1011'
p25
S'DNA1011'
p26
sS'DNA1_100'
p27
S'DNA1_100'
p28
sS'DNA1_101'
p29
S'DNA1_101'
p30
sS'DNA011_1'
p31
S'DNA011_1'
p32
sS'DNA1_1_1_1'
p33
S'DNA1_1_1_1'
p34
sS'DNA0011'
p35
S'DNA0011'
p36
sS'DNA0010'
p37
S'DNA0010'
p38
sS'DNA1_11_1'
p39
S'DNA1_11_1'
p40
sS'DNA0110'
p41
S'DNA0110'
p42
sS'DNA0111'
p43
S'DNA0111'
p44
sS'DNA111_1'
p45
S'DNA111_1'
p46
sS'DNA1100'
p47
S'DNA1100'
p48
sS'DNA01_11'
p49
S'DNA01_11'
p50
sS'DNA1001'
p51
S'DNA1001'
p52
sS'DNA1000'
p53
S'DNA1000'
p54
sS'DNA1_111'
p55
S'DNA1_111'
p56
sS'DNA1_110'
p57
S'DNA1_110'
p58
sS'DNA001_1'
p59
S'DNA001_1'
p60
sS'DNA101_1'
p61
S'DNA101_1'
p62
sS'DNA0000'
p63
S'DNA0000'
p64
sS'DNA0001'
p65
S'DNA0001'
p66
sS'DNA1_1_11'
p67
S'DNA1_1_11'
p68
sS'DNA1_1_10'
p69
S'DNA1_1_10'
p70
s.