(dp0
S'Trehalose'
p1
S'Trh'
p2
sS'NADH'
p3
S'NADH'
p4
sS'NAD'
p5
S'NAD'
p6
sS'sum of AXP conc'
p7
S'SUM_P'
p8
sS'ATP concentration'
p9
S'ATP'
p10
sS'Glucose in Cytosol'
p11
S'GLCi'
p12
sS'F2,6P'
p13
S'F26BP'
p14
sS'AMP concentration'
p15
S'AMP'
p16
sS'Extracellular Glucose'
p17
S'GLCo'
p18
sS'Glucose 6 Phosphate'
p19
S'G6P'
p20
sS'Glycogen'
p21
S'Glyc'
p22
sS'Phosphoenolpyruvate'
p23
S'PEP'
p24
sS'Pyruvate'
p25
S'PYR'
p26
sS'Glycerol'
p27
S'GLY'
p28
sS'Ethanol'
p29
S'ETOH'
p30
sS'Acetaldehyde'
p31
S'ACE'
p32
sS'Fructose-1,6 bisphosphate'
p33
S'F16P'
p34
sS'Triose-phosphate'
p35
S'TRIO'
p36
sS'High energy phosphates'
p37
S'P'
p38
sS'Succinate'
p39
S'SUCC'
p40
sS'CO2'
p41
S'CO2'
p42
sS'1,3-bisphosphoglycerate'
p43
S'BPG'
p44
sS'3-phosphoglycerate'
p45
S'P3G'
p46
sS'Fructose 6 Phosphate'
p47
S'F6P'
p48
sS'2-phosphoglycerate'
p49
S'P2G'
p50
sS'ADP concentration'
p51
S'ADP'
p52
s.