(dp0
S'IRSp_SHP2'
p1
S'IRSp_SHP2'
p2
sS'Rp'
p3
S'Rp'
p4
sS'ppMek'
p5
S'ppMek'
p6
sS'Rd'
p7
S'Rd'
p8
sS'GABp_SHP2'
p9
S'GABp_SHP2'
p10
sS'EGF'
p11
S'EGF'
p12
sS'aPX_GS'
p13
S'aPX_GS'
p14
sS'RE'
p15
S'RE'
p16
sS'mTOR'
p17
S'mTOR'
p18
sS'tRas_PI3K'
p19
S'tRas_PI3K'
p20
sS'Rp_pShc_GS'
p21
S'Rp_pShc_GS'
p22
sS'GABp_RasGAP'
p23
S'GABp_RasGAP'
p24
sS'Shc'
p25
S'Shc'
p26
sS'tRas'
p27
S'tRas'
p28
sS'mGABp_GS'
p29
S'mGABp_GS'
p30
sS'mGABp_PI3K'
p31
S'mGABp_PI3K'
p32
sS'IRp_RasGAP'
p33
S'IRp_RasGAP'
p34
sS'Erk'
p35
S'Erk'
p36
sS'Raf'
p37
S'Raf'
p38
sS'mIRSp_GS'
p39
S'mIRSp_GS'
p40
sS'iGS'
p41
S'iGS'
p42
sS'aRaf'
p43
S'aRaf'
p44
sS'iSrc'
p45
S'iSrc'
p46
sS'IRSp_GS'
p47
S'IRSp_GS'
p48
sS'mGAB'
p49
S'mGAB'
p50
sS'aSrc'
p51
S'aSrc'
p52
sS'IRp_IRSp'
p53
S'IRp_IRSp'
p54
sS'imIRS'
p55
S'imIRS'
p56
sS'Mek'
p57
S'Mek'
p58
sS'Ri'
p59
S'Ri'
p60
sS'PKA'
p61
S'PKA'
p62
sS'IRSp_PI3K'
p63
S'IRSp_PI3K'
p64
sS'IRS'
p65
S'IRS'
p66
sS'mIRSp'
p67
S'mIRSp'
p68
sS'imGABp'
p69
S'imGABp'
p70
sS'GABp'
p71
S'GABp'
p72
sS'Rp_Shc'
p73
S'Rp_Shc'
p74
sS'dRas'
p75
S'dRas'
p76
sS'imGAB'
p77
S'imGAB'
p78
sS'Rp_GS'
p79
S'Rp_GS'
p80
sS'bRasGAP'
p81
S'bRasGAP'
p82
sS'Null'
p83
S'Null'
p84
sS'IRp_IRS'
p85
S'IRp_IRS'
p86
sS'pErk'
p87
S'pErk'
p88
sS'Rp_pShc'
p89
S'Rp_pShc'
p90
sS'ppAkt'
p91
S'ppAkt'
p92
sS'mGABp_SHP2'
p93
S'mGABp_SHP2'
p94
sS'IRSp'
p95
S'IRSp'
p96
sS'mIRSp_PI3K'
p97
S'mIRSp_PI3K'
p98
sS'pAkt'
p99
S'pAkt'
p100
sS'SHP2'
p101
S'SHP2'
p102
sS'pShc'
p103
S'pShc'
p104
sS'PIP3'
p105
S'PIP3'
p106
sS'PI3K'
p107
S'PI3K'
p108
sS'amTOR'
p109
S'amTOR'
p110
sS'R'
p111
g111
sS'pShc_GS'
p112
S'pShc_GS'
p113
sS'IRp_PI3K'
p114
S'IRp_PI3K'
p115
sS'aaRaf'
p116
S'aaRaf'
p117
sS'aPX'
p118
S'aPX'
p119
sS'mIRSp_SHP2'
p120
S'mIRSp_SHP2'
p121
sS'mGABp_pSHP2_GS'
p122
S'mGABp_pSHP2_GS'
p123
sS'GS'
p124
S'GS'
p125
sS'iPX'
p126
S'iPX'
p127
sS'RasGAP'
p128
S'RasGAP'
p129
sS'Rp_RasGAP'
p130
S'Rp_RasGAP'
p131
sS'mPDK1'
p132
S'mPDK1'
p133
sS'mGABp_RasGAP'
p134
S'mGABp_RasGAP'
p135
sS'mGABp'
p136
S'mGABp'
p137
sS'ppErk'
p138
S'ppErk'
p139
sS'GAB'
p140
S'GAB'
p141
sS'mGABp_pSHP2'
p142
S'mGABp_pSHP2'
p143
sS'I'
p144
g144
sS'IR'
p145
S'IR'
p146
sS'GABp_pSHP2'
p147
S'GABp_pSHP2'
p148
sS'Akt'
p149
S'Akt'
p150
sS'IRL'
p151
S'IRL'
p152
sS'GABp_GS'
p153
S'GABp_GS'
p154
sS'phosphorylated_Akt'
p155
S'phosphorylated_Akt'
p156
sS'GABp_pSHP2_GS'
p157
S'GABp_pSHP2_GS'
p158
sS'IRp'
p159
S'IRp'
p160
sS'Rp_PI3K'
p161
S'Rp_PI3K'
p162
sS'GABp_PI3K'
p163
S'GABp_PI3K'
p164
sS'PDK1'
p165
S'PDK1'
p166
sS'IRi'
p167
S'IRi'
p168
sS'mIRS'
p169
S'mIRS'
p170
s.