(dp0
S'ypp'
p1
S'ypp'
p2
sS'ePI3K'
p3
S'ePI3K'
p4
sS'eph'
p5
S'eph'
p6
sS'm3PI'
p7
S'm3PI'
p8
sS'z'
p9
g9
sS'fGEF'
p10
S'fGEF'
p11
sS'mRas'
p12
S'mRas'
p13
sS'y'
p14
g14
sS'r'
p15
g15
sS'eGEF'
p16
S'eGEF'
p17
sS'w'
p18
g18
sS'yp'
p19
S'yp'
p20
sS'x2'
p21
S'x2'
p22
sS'c2'
p23
S'c2'
p24
sS'c1'
p25
S'c1'
p26
sS'x1'
p27
S'x1'
p28
sS'zp'
p29
S'zp'
p30
sS'zpp'
p31
S'zpp'
p32
sS'sumrc1'
p33
S'sumrc1'
p34
s.