(dp0
S'IKK[P]:IkBa:NFkB'
p1
S'species_32'
p2
sS'IKK[P]:IkBe:NFkB'
p3
S'species_38'
p4
sS'LPS:LBP:CD14:TLR4:RIP1:TRAM:TRIF:TBK/IKKe'
p5
S'species_52'
p6
sS'NFkB(nuc)'
p7
S'species_39'
p8
sS'TNFa'
p9
S'species_24'
p10
sS'IkBb:NFkB(nuc)'
p11
S'species_43'
p12
sS'IkBb:NFkB'
p13
S'species_34'
p14
sS'IRF3[P](nuc)'
p15
S'species_21'
p16
sS'IkBb(nuc)'
p17
S'species_42'
p18
sS'TAK1:TAB1:TAB2:TRAF6'
p19
S'species_13'
p20
sS'IKK[P]:IkBb'
p21
S'species_50'
p22
sS'LBP'
p23
S'species_3'
p24
sS'IKK[P]:IkBe'
p25
S'species_51'
p26
sS'TIRAP'
p27
S'species_7'
p28
sS'TRAF6:IRAK1[P]'
p29
S'species_11'
p30
sS'CD14'
p31
S'species_1'
p32
sS'TRADD'
p33
S'species_26'
p34
sS'IkBe(nuc)'
p35
S'species_44'
p36
sS'source'
p37
S'species_22'
p38
sS'TAK1:TAB1:TAB2'
p39
S'species_12'
p40
sS'IKK'
p41
S'species_14'
p42
sS'LPS:LBP:CD14:TLR4:TIRAP:MyD88:IRAK4'
p43
S'species_5'
p44
sS'IRAK1'
p45
S'species_9'
p46
sS'IRAK4'
p47
S'species_2'
p48
sS'TRAF2'
p49
S'species_27'
p50
sS'NFkB'
p51
S'species_31'
p52
sS'IRF3[P]'
p53
S'species_20'
p54
sS'TRAF6'
p55
S'species_10'
p56
sS'IkBe:NFkB(nuc)'
p57
S'species_45'
p58
sS'TRIF'
p59
S'species_18'
p60
sS'LPS'
p61
S'species_4'
p62
sS'IkBb'
p63
S'species_33'
p64
sS'IKK[P]'
p65
S'species_15'
p66
sS'TNFR1'
p67
S'species_25'
p68
sS'IkBa'
p69
S'species_29'
p70
sS'sink'
p71
S'species_23'
p72
sS'IkBe'
p73
S'species_36'
p74
sS'TBK1/IKKe'
p75
S'species_53'
p76
sS'MyD88'
p77
S'species_6'
p78
sS'TNFa:TNFR1:TRAF2:TRADD:RIP1'
p79
S'species_28'
p80
sS'IKK[P]:IkBa'
p81
S'species_49'
p82
sS'IRF3'
p83
S'species_19'
p84
sS'IkBe_mRNA'
p85
S'species_48'
p86
sS'IkBa(nuc)'
p87
S'species_40'
p88
sS'TRAM'
p89
S'species_17'
p90
sS'IkBa:NFkB'
p91
S'species_30'
p92
sS'IKK[P]:IkBb:NFkB'
p93
S'species_35'
p94
sS'RIP1'
p95
S'species_16'
p96
sS'IkBb_mRNA'
p97
S'species_47'
p98
sS'IkBa_mRNA'
p99
S'species_46'
p100
sS'TLR4'
p101
S'species_8'
p102
sS'IkBe:NFkB'
p103
S'species_37'
p104
sS'IkBa:NFkB(nuc)'
p105
S'species_41'
p106
s.