(dp0
S'_2PGA_c'
p1
S'_2PGA_c'
p2
sS'ATP_g'
p3
S'ATP_g'
p4
sS'ATP_c'
p5
S'ATP_c'
p6
sS'DHAP_c'
p7
S'DHAP_c'
p8
sS'DHAP_g'
p9
S'DHAP_g'
p10
sS'ADP_g'
p11
S'ADP_g'
p12
sS'Glc6P_g'
p13
S'Glc6P_g'
p14
sS'ADP_c'
p15
S'ADP_c'
p16
sS'_3PGA_c'
p17
S'_3PGA_c'
p18
sS'Fru6P_g'
p19
S'Fru6P_g'
p20
sS'Gly_g'
p21
S'Gly_g'
p22
sS'Pi_g'
p23
S'Pi_g'
p24
sS'O2_c'
p25
S'O2_c'
p26
sS'_13BPGA_g'
p27
S'_13BPGA_g'
p28
sS'Glc_c'
p29
S'Glc_c'
p30
sS'Glc_e'
p31
S'Glc_e'
p32
sS'Glc_g'
p33
S'Glc_g'
p34
sS'Pyr_c'
p35
S'Pyr_c'
p36
sS'Pyr_e'
p37
S'Pyr_e'
p38
sS'NAD_g'
p39
S'NAD_g'
p40
sS'Fru16BP_g'
p41
S'Fru16BP_g'
p42
sS'GA3P_g'
p43
S'GA3P_g'
p44
sS'Gly_e'
p45
S'Gly_e'
p46
sS'Gly_c'
p47
S'Gly_c'
p48
sS'Gly3P_c'
p49
S'Gly3P_c'
p50
sS'Gly3P_g'
p51
S'Gly3P_g'
p52
sS'PEP_c'
p53
S'PEP_c'
p54
sS'AMP_g'
p55
S'AMP_g'
p56
sS'_3PGA_g'
p57
S'_3PGA_g'
p58
sS'AMP_c'
p59
S'AMP_c'
p60
sS'NADH_g'
p61
S'NADH_g'
p62
s.