(dp0
S'Kin_2'
p1
S'Kin_2'
p2
sS'ERK_c'
p3
S'ERK_c'
p4
sS'RsD'
p5
S'RsD'
p6
sS'ERK_n'
p7
S'ERK_n'
p8
sS'pDUSP_n_ppERK_n'
p9
S'pDUSP_n_ppERK_n'
p10
sS'FmRNA'
p11
S'FmRNA'
p12
sS'DUSP_n'
p13
S'DUSP_n'
p14
sS'A2_2'
p15
S'A2_2'
p16
sS'RsT'
p17
S'RsT'
p18
sS'A3_2'
p19
S'A3_2'
p20
sS'EGF'
p21
S'EGF'
p22
sS'DUSP_c'
p23
S'DUSP_c'
p24
sS'pRSK_n'
p25
S'pRSK_n'
p26
sS'DUSPmRNA'
p27
S'DUSPmRNA'
p28
sS'ppERK_c'
p29
S'ppERK_c'
p30
sS'FOSn'
p31
S'FOSn'
p32
sS'ppERK_n'
p33
S'ppERK_n'
p34
sS'CREB_n'
p35
S'CREB_n'
p36
sS'pRSK_c'
p37
S'pRSK_c'
p38
sS'A1_2'
p39
S'A1_2'
p40
sS'A1'
p41
S'A1'
p42
sS'PreFOSmRNA'
p43
S'PreFOSmRNA'
p44
sS'A3'
p45
S'A3'
p46
sS'A2'
p47
S'A2'
p48
sS'Kin'
p49
S'Kin'
p50
sS'pCREB_n'
p51
S'pCREB_n'
p52
sS'pMEK'
p53
S'pMEK'
p54
sS'Fn'
p55
S'Fn'
p56
sS'DUSP_n_ppERK_n'
p57
S'DUSP_n_ppERK_n'
p58
sS'PreFmRNA'
p59
S'PreFmRNA'
p60
sS'Elk1_n'
p61
S'Elk1_n'
p62
sS'F'
p63
g63
sS'DUSP_n_pERK_n'
p64
S'DUSP_n_pERK_n'
p65
sS'pElk1_n'
p66
S'pElk1_n'
p67
sS'pDUSP_c'
p68
S'pDUSP_c'
p69
sS'pERK_c'
p70
S'pERK_c'
p71
sS'c_FOSmRNA'
p72
S'c_FOSmRNA'
p73
sS'pERK_n'
p74
S'pERK_n'
p75
sS'HRG'
p76
S'HRG'
p77
sS'pDUSP_n_pERK_n'
p78
S'pDUSP_n_pERK_n'
p79
sS'pDUSP_n'
p80
S'pDUSP_n'
p81
sS'FOSn_2'
p82
S'FOSn_2'
p83
sS'DUSP_n_ERK_n'
p84
S'DUSP_n_ERK_n'
p85
sS'pc_FOS_c'
p86
S'pc_FOS_c'
p87
sS'MEK'
p88
S'MEK'
p89
sS'PreDUSPmRNA'
p90
S'PreDUSPmRNA'
p91
sS'pDUSP_n_ERK_n'
p92
S'pDUSP_n_ERK_n'
p93
sS'c_FOS_c'
p94
S'c_FOS_c'
p95
sS'RSK_c'
p96
S'RSK_c'
p97
s.