(dp0
S'AIF4_C'
p1
S'AlF4_C'
p2
sS'GTPgS_C'
p3
S'GTPgS_C'
p4
sS'G_M'
p5
S'G_M'
p6
sS'GGTPgSMg_M'
p7
S'GGTPgSMg_M'
p8
sS'Mg2_C'
p9
S'Mg2_C'
p10
sS'GGDPAIF4Mg_M'
p11
S'GGDPAlF4Mg_M'
p12
sS'GGTPMg_M'
p13
S'GGTPMg_M'
p14
sS'GGDP_M'
p15
S'GGDP_M'
p16
sS'IP3_C'
p17
S'ip3_C'
p18
sS'PIP_M'
p19
S'PIP_M'
p20
sS'KCNQsites_M'
p21
S'KCNQsites_M'
p22
sS'GGDPbS_M'
p23
S'GGDPbS_M'
p24
sS'oxoM_EX'
p25
S'oxoM_EX'
p26
sS'PIP2_M'
p27
S'PIP2_M'
p28
sS'PI_M'
p29
S'PI_M'
p30
sS'GDP_C'
p31
S'GDP_C'
p32
sS'GDPbS_C'
p33
S'GDPbS_C'
p34
sS'GGTPgS_M'
p35
S'GGTPgS_M'
p36
sS'ATP_C'
p37
S'ATP_C'
p38
sS'PIP2xKCNQ_M'
p39
S'PIP2xKCNQ_M'
p40
sS'GGDPAIF4_M'
p41
S'GGDPAlF4_M'
p42
sS'GTP_C'
p43
S'GTP_C'
p44
sS'GGTP_M'
p45
S'GGTP_M'
p46
s.