(dp0
S'cT_m'
p1
S'cT_m'
p2
sS'cLm'
p3
S'cLm'
p4
sS'cY_m'
p5
S'cY_m'
p6
sS'cP7'
p7
S'cP7'
p8
sS'cL'
p9
S'cL'
p10
sS'cNI_m'
p11
S'cNI_m'
p12
sS'cG'
p13
S'cG'
p14
sS'cZG'
p15
S'cZG'
p16
sS'cP9'
p17
S'cP9'
p18
sS'cY'
p19
S'cY'
p20
sS'cP9_m'
p21
S'cP9_m'
p22
sS'cZTL'
p23
S'cZTL'
p24
sS'cG_m'
p25
S'cG_m'
p26
sS'cP7_m'
p27
S'cP7_m'
p28
sS'cTm'
p29
S'cTm'
p30
sS'cL_m'
p31
S'cL_m'
p32
sS'cP'
p33
S'cP'
p34
sS'cT'
p35
S'cT'
p36
sS'cNI'
p37
S'cNI'
p38
s.