(dp0
S'enzyme-substrate complex ES (catalase - hydrogen peroxide)'
p1
S'p'
p2
sS'donor AH2'
p3
S'a'
p4
sS'enzyme E (catalase)'
p5
S'e'
p6
sS'product 2'
p7
S'p2'
p8
sS'substrate S (hydrogen peroxide)'
p9
S'x'
p10
sS'product 1'
p11
S'p1'
p12
s.