(dp0
S'KDO-lipid IV(A)'
p1
S's_1038'
p2
sS'eda'
p3
S'e_0578'
p4
sS'edd'
p5
S'e_0579'
p6
sS'aspC'
p7
S'e_0332'
p8
sS'5-O-(1-Carboxyvinyl)-3-phosphoshikimate'
p9
S's_0359'
p10
sS'thiL'
p11
S'e_0146'
p12
sS'Sulfate'
p13
S's_1611'
p14
sS'folA'
p15
S'e_0020'
p16
sS'flavodoxin semi oxidized'
p17
S's_0862'
p18
sS'Mn2+'
p19
S's_1257'
p20
sS'(S)-3-Hydroxyhexadecanoyl-CoA'
p21
S's_0046'
p22
sS'icd'
p23
S'e_0391'
p24
sS'alr'
p25
S'e_1275'
p26
sS'ddlB'
p27
S'e_0043'
p28
sS"2-phospho-4-(cytidine 5'-diphospho)-2-C-methyl-D-erythritol"
p29
S's_0237'
p30
sS'LL-2,6-Diaminoheptanedioate'
p31
S's_1211'
p32
sS'Geranyl diphosphate'
p33
S's_0903'
p34
sS'mrcA'
p35
S'e_1029'
p36
sS'Nicotinate D-ribonucleotide'
p37
S's_1340'
p38
sS'trans-Dec-2-enoyl-CoA'
p39
S's_1668'
p40
sS'Succinyl-CoA'
p41
S's_1599'
p42
sS'pgpB'
p43
S'e_0433'
p44
sS'ydiB'
p45
S'e_0540'
p46
sS'L-Arginine'
p47
S's_1061'
p48
sS'coaA'
p49
S'e_1249'
p50
sS'pabA'
p51
S'e_1015'
p52
sS'pta'
p53
S'e_0720'
p54
sS'glyA'
p55
S'e_0813'
p56
sS'yfbQ'
p57
S'e_0717'
p58
sS'tnaA'
p59
S'e_1141'
p60
sS'ispB'
p61
S'e_0990'
p62
sS'hemH'
p63
S'e_0168'
p64
sS'glmU'
p65
S'e_1150'
p66
sS'cmk'
p67
S'e_0328'
p68
sS'glmS'
p69
S'e_1149'
p70
sS'UDP-3-O-(3-hydroxytetradecanoyl)-N-acetylglucosamine'
p71
S's_1736'
p72
sS'hemB'
p73
S'e_0134'
p74
sS'hemC'
p75
S'e_1186'
p76
sS'hemA'
p77
S'e_0405'
p78
sS'hemF'
p79
S'e_0765'
p80
sS'hemG'
p81
S'e_1205'
p82
sS'Acetate'
p83
S's_0384'
p84
sS'hemE'
p85
S'e_1256'
p86
sS'hemX'
p87
S'e_1184'
p88
sS'Hydrogen peroxide'
p89
S's_0991'
p90
sS'glmM'
p91
S'e_0987'
p92
sS'D-Glycerate 2-phosphate'
p93
S's_0675'
p94
sS'4-amino-4-deoxychorismate'
p95
S's_0316'
p96
sS'hscC'
p97
S'e_0225'
p98
sS'4-Phospho-D-erythronate'
p99
S's_0331'
p100
sS"D-4'-Phosphopantothenate"
p101
S's_0599'
p102
sS'cis-hexadec-9-enoyl-[acyl-carrier protein] (n-C16:1)'
p103
S's_0533'
p104
sS'CMP'
p105
S's_0539'
p106
sS'Tetradecanoyl-CoA (n-C14:0CoA)'
p107
S's_1632'
p108
sS'Acetoacetyl-CoA'
p109
S's_0391'
p110
sS'folP'
p111
S'e_0988'
p112
sS'Co2+'
p113
S's_0548'
p114
sS'folE'
p115
S'e_0657'
p116
sS'folD'
p117
S'e_0188'
p118
sS'(S)-2-Aceto-2-hydroxybutanoate'
p119
S's_0041'
p120
sS'folC'
p121
S'e_0729'
p122
sS'folB'
p123
S'e_0964'
p124
sS'folM'
p125
S'e_0514'
p126
sS'aroB'
p127
S'e_1027'
p128
sS'UDP-3-O-(3-hydroxytetradecanoyl)-D-glucosamine'
p129
S's_1735'
p130
sS'UDP-N-acetyl-3-O-(1-carboxyvinyl)-D-glucosamine'
p131
S's_1742'
p132
sS'cysM'
p133
S'e_0757'
p134
sS'cysN'
p135
S'e_0869'
p136
sS'phosphatidylserine (dihexadec-9-enoyl, n-C16:1)'
p137
S's_1476'
p138
sS'cysH'
p139
S'e_0871'
p140
sS'cysK'
p141
S'e_0750'
p142
sS'cysJ'
p143
S'e_0873'
p144
sS'cysE'
p145
S'e_1105'
p146
sS'cysD'
p147
S'e_0870'
p148
sS'cysG'
p149
S'e_1019'
p150
sS'3-Oxo-glutaryl-[acyl-carrier protein] methyl ester'
p151
S's_0289'
p152
sS'2,3-Bis(3-hydroxytetradecanoyl)-beta-D-glucosaminyl 1-phosphate'
p153
S's_0149'
p154
sS'bis-molybdopterin guanine dinucleotide'
p155
S's_0480'
p156
sS'ybjG'
p157
S'e_0300'
p158
sS'N-Succinyl-2-L-amino-6-oxoheptanedioate'
p159
S's_1315'
p160
sS'trans-Dodec-2-enoyl-CoA'
p161
S's_1670'
p162
sS'O-Phospho-4-hydroxy-L-threonine'
p163
S's_1362'
p164
sS'UDP-2,3-bis(3-hydroxytetradecanoyl)glucosamine'
p165
S's_1734'
p166
sS'Succinate'
p167
S's_1595'
p168
sS'dTTP'
p169
S's_0805'
p170
sS'gltX'
p171
S'e_0746'
p172
sS'[2Fe-2S] iron-sulfur cluster'
p173
S's_0378'
p174
sS'CDP-1,2-dihexadecanoylglycerol'
p175
S's_0513'
p176
sS'grcA'
p177
S'e_0821'
p178
sS'4-Methyl-2-oxopentanoate'
p179
S's_0328'
p180
sS'UDP-N-acetyl-D-glucosamine'
p181
S's_1745'
p182
sS'nrdG'
p183
S'e_1334'
p184
sS'gpsA'
p185
S'e_1106'
p186
sS'3-Octaprenyl-4-hydroxybenzoate'
p187
S's_0283'
p188
sS'gltA'
p189
S'e_0246'
p190
sS'Indole'
p191
S's_1009'
p192
sS'CTP'
p193
S's_0575'
p194
sS'CDP-1,2-dihexadec-9-enoylglycerol'
p195
S's_0512'
p196
sS'Orotate'
p197
S's_1394'
p198
sS'astC'
p199
S'e_0559'
p200
sS'thrB'
p201
S'e_0002'
p202
sS'thrC'
p203
S'e_0003'
p204
sS'(S)-3-Hydroxyhexanoyl-CoA'
p205
S's_0047'
p206
sS'(2R,4S)-2-methyl-2,3,3,4-tetrahydroxytetrahydrofuran'
p207
S's_1807'
p208
sS'Methanol'
p209
S's_1250'
p210
sS'L-Asparagine'
p211
S's_1068'
p212
sS'L-Malate'
p213
S's_1138'
p214
sS'argB'
p215
S'e_1243'
p216
sS'2-Octaprenyl-6-hydroxyphenol'
p217
S's_0226'
p218
sS'deoB'
p219
S'e_1366'
p220
sS'deoD'
p221
S'e_1367'
p222
sS'2-Octaprenylphenol'
p223
S's_0229'
p224
sS'2-C-methyl-D-erythritol 4-phosphate'
p225
S's_0194'
p226
sS'Diphosphate'
p227
S's_0783'
p228
sS'purT'
p229
S'e_0577'
p230
sS'talA'
p231
S'e_0770'
p232
sS'1-Pyrroline-5-carboxylate'
p233
S's_0128'
p234
sS'aphA'
p235
S'e_1277'
p236
sS'1-(2-Carboxyphenylamino)-1-deoxy-D-ribulose 5-phosphate'
p237
S's_0096'
p238
sS'4-Amino-2-methyl-5-phosphomethylpyrimidine'
p239
S's_0313'
p240
sS'D-Arabinose 5-phosphate'
p241
S's_0611'
p242
sS'alpha-D-Ribose 5-phosphate'
p243
S's_0446'
p244
sS'tpiA'
p245
S'e_1226'
p246
sS'chorismate'
p247
S's_0526'
p248
sS'L-Tyrosine'
p249
S's_1189'
p250
sS'malY'
p251
S'e_0519'
p252
sS'thiS'
p253
S'e_1374'
p254
sS'S-Adenosyl-4-methylthio-2-oxobutanoate'
p255
S's_2093'
p256
sS'FMN'
p257
S's_0863'
p258
sS'thiI'
p259
S'e_0151'
p260
sS'uppP'
p261
S'e_0962'
p262
sS'Carbamoyl phosphate'
p263
S's_0502'
p264
sS'thiC'
p265
S'e_1254'
p266
sS'ddlA'
p267
S'e_0135'
p268
sS"3'-Phosphoadenylyl sulfate"
p269
S's_0252'
p270
sS'thiG'
p271
S'e_1251'
p272
sS'thiF'
p273
S'e_1252'
p274
sS'thiE'
p275
S'e_1253'
p276
sS'thiD'
p277
S'e_0641'
p278
sS'leuB'
p279
S'e_0032'
p280
sS'purC'
p281
S'e_0775'
p282
sS'4-Methyl-5-(2-phosphoethyl)-thiazole'
p283
S's_0330'
p284
sS'purA'
p285
S'e_1315'
p286
sS'eutD'
p287
S'e_0768'
p288
sS'yahI'
p289
S'e_0110'
p290
sS'all-trans-Octaprenyl diphosphate'
p291
S's_0435'
p292
sS"Adenosine 3',5'-bisphosphate"
p293
S's_0411'
p294
sS'molybdenum cofactor'
p295
S's_1264'
p296
sS'cdsA'
p297
S'e_0080'
p298
sS'cis-Aconitate'
p299
S's_0530'
p300
sS'L-Aspartate'
p301
S's_1072'
p302
sS'zwf'
p303
S'e_0580'
p304
sS'Sulfite'
p305
S's_1612'
p306
sS'5,10-Methylenetetrahydrofolate'
p307
S's_0336'
p308
sS'dxs'
p309
S'e_0149'
p310
sS'dxr'
p311
S'e_0078'
p312
sS'trxB'
p313
S'e_0318'
p314
sS'purB'
p315
S'e_0389'
p316
sS'Hexadecenoate (n-C16:1)'
p317
S's_0976'
p318
sS'trxA'
p319
S'e_1172'
p320
sS'Palmitoyl-CoA (n-C16:0CoA)'
p321
S's_1412'
p322
sS'purF'
p323
S'e_0728'
p324
sS'purE'
p325
S'e_0185'
p326
sS'purD'
p327
S'e_1257'
p328
sS'purK'
p329
S'e_0184'
p330
sS'bis-molybdenum cofactor'
p331
S's_0479'
p332
sS'10-Formyltetrahydrofolate'
p333
S's_0133'
p334
sS'Dihydroneopterin monophosphate'
p335
S's_0766'
p336
sS'purL'
p337
S'e_0815'
p338
sS'3-Deoxy-D-manno-octulosonate 8-phosphate'
p339
S's_0272'
p340
sS'argH'
p341
S'e_1244'
p342
sS'purH'
p343
S'e_1258'
p344
sS'argI'
p345
S'e_1341'
p346
sS'3-Carboxy-4-methyl-2-oxopentanoate'
p347
S's_0267'
p348
sS'lpdA'
p349
S'e_0053'
p350
sS'eno'
p351
S'e_0875'
p352
sS'bioD1'
p353
S'e_0278'
p354
sS'purM'
p355
S'e_0791'
p356
sS'fpr'
p357
S'e_1227'
p358
sS'3-(4-Hydroxyphenyl)pyruvate'
p359
S's_0262'
p360
sS'acpP'
p361
S'e_0375'
p362
sS'L-Glutamine'
p363
S's_1101'
p364
sS'Hydrogen sulfide'
p365
S's_0994'
p366
sS'ilvN'
p367
S'e_1136'
p368
sS'ilvI'
p369
S'e_0034'
p370
sS'ilvH'
p371
S'e_0035'
p372
sS'talB'
p373
S'e_0005'
p374
sS'3-Dehydroshikimate'
p375
S's_0270'
p376
sS'coaD'
p377
S'e_1126'
p378
sS'mak'
p379
S'e_0139'
p380
sS'5-Phospho-alpha-D-ribose 1-diphosphate'
p381
S's_0360'
p382
sS'ilvA'
p383
S'e_1169'
p384
sS'ispF'
p385
S'e_0866'
p386
sS'ilvC'
p387
S'e_1170'
p388
sS'ilvB'
p389
S'e_1137'
p390
sS'5-[(5-phospho-1-deoxyribulos-1-ylamino)methylideneamino]-1-(5-phosphoribosyl)imidazole-4-carboxamide'
p391
S's_0341'
p392
sS'UDP'
p393
S's_1733'
p394
sS'argC'
p395
S'e_1242'
p396
sS'trans-Tetradec-2-enoyl-CoA'
p397
S's_1680'
p398
sS'Fe2+'
p399
S's_0840'
p400
sS'argE'
p401
S'e_1241'
p402
sS'5-Amino-4-oxopentanoate'
p403
S's_0345'
p404
sS'sucC'
p405
S'e_0253'
p406
sS'metF'
p407
S'e_1234'
p408
sS'sucD'
p409
S'e_0254'
p410
sS'arcC'
p411
S'e_0183'
p412
sS'3-Oxododecanoyl-CoA'
p413
S's_0295'
p414
sS'ppc'
p415
S'e_1240'
p416
sS'gpmI'
p417
S'e_1108'
p418
sS'kbl'
p419
S'e_1110'
p420
sS'(S)-3-Hydroxyoctanoyl-CoA'
p421
S's_0049'
p422
sS'gcl'
p423
S'e_0175'
p424
sS'N-Succinyl-LL-2,6-diaminoheptanedioate'
p425
S's_1316'
p426
sS'(R)-3-Hydroxytetradecanoyl-[acyl-carrier protein]'
p427
S's_0028'
p428
sS'fadA'
p429
S'e_1202'
p430
sS'[2Fe-1S] desulfurated iron-sulfur cluster'
p431
S's_0377'
p432
sS'fadE'
p433
S'e_0094'
p434
sS'coaBC'
p435
S'e_1127'
p436
sS'MoaD Protein with thiocarboxylate'
p437
S's_1260'
p438
sS'fadI'
p439
S'e_0736'
p440
sS'p-Cresol'
p441
S's_2072'
p442
sS'Coenzyme A'
p443
S's_0555'
p444
sS'Dodecanoate (n-C12:0)'
p445
S's_0785'
p446
sS'O-Phospho-L-serine'
p447
S's_1364'
p448
sS'panC'
p449
S'e_0062'
p450
sS'panB'
p451
S'e_0063'
p452
sS'6-hydroxymethyl-dihydropterin pyrophosphate'
p453
S's_0368'
p454
sS'tktB'
p455
S'e_0771'
p456
sS'mutT'
p457
S'e_0045'
p458
sS'panD'
p459
S'e_0061'
p460
sS'L-Serine'
p461
S's_1170'
p462
sS'moaE'
p463
S'e_0282'
p464
sS'argD'
p465
S'e_1014'
p466
sS'Menaquinone 8'
p467
S's_1240'
p468
sS'Nicotinamide adenine dinucleotide phosphate'
p469
S's_1335'
p470
sS'Butanoyl-CoA'
p471
S's_0488'
p472
sS'cyclic pyranopterin monophosphate'
p473
S's_0585'
p474
sS'pgi'
p475
S'e_1264'
p476
sS'hemL'
p477
S'e_0071'
p478
sS'N2-Acetyl-L-ornithine'
p479
S's_1321'
p480
sS'nadC'
p481
S'e_0048'
p482
sS'nadB'
p483
S'e_0819'
p484
sS'nadA'
p485
S'e_0260'
p486
sS'dGTP'
p487
S's_0760'
p488
sS'ftsI'
p489
S'e_0036'
p490
sS'mtnN'
p491
S'e_0074'
p492
sS'Dihydroneopterin'
p493
S's_0765'
p494
sS"Pyridoxine 5'-phosphate"
p495
S's_1530'
p496
sS'Reduced thioredoxin'
p497
S's_1544'
p498
sS'1-(5-Phosphoribosyl)-AMP'
p499
S's_0098'
p500
sS'Quinolinate'
p501
S's_1537'
p502
sS'7,8-Diaminononanoate'
p503
S's_0371'
p504
sS'pabB'
p505
S'e_0572'
p506
sS'dapA'
p507
S'e_0776'
p508
sS'pdxJ'
p509
S'e_0818'
p510
sS'mdh'
p511
S'e_1004'
p512
sS'Protoporphyrin'
p513
S's_1511'
p514
sS'dapE'
p515
S'e_0774'
p516
sS'dapD'
p517
S'e_0076'
p518
sS'dapF'
p519
S'e_1189'
p520
sS'1-deoxy-D-xylulose 5-phosphate'
p521
S's_0116'
p522
sS'bis-molybdopterin mono-guanine dinucleotide'
p523
S's_0481'
p524
sS'argA'
p525
S'e_0893'
p526
sS'kdsA'
p527
S'e_0406'
p528
sS'IscU scaffold protein'
p529
S's_1019'
p530
sS'kdsC'
p531
S'e_0994'
p532
sS'kdsD'
p533
S'e_0993'
p534
sS'hemD'
p535
S'e_1185'
p536
sS'Chloride'
p537
S's_0522'
p538
sS'gapA'
p539
S'e_0567'
p540
sS'L-Lysine'
p541
S's_1131'
p542
sS'nrdD'
p543
S'e_1335'
p544
sS'Porphobilinogen'
p545
S's_1493'
p546
sS'Bicarbonate'
p547
S's_0474'
p548
sS"Pantetheine 4'-phosphate"
p549
S's_1413'
p550
sS'metB'
p551
S'e_1232'
p552
sS'metC'
p553
S'e_0951'
p554
sS'mrcB'
p555
S'e_0065'
p556
sS'metA'
p557
S'e_1259'
p558
sS'2,3,4,5-Tetrahydrodipicolinate'
p559
S's_0148'
p560
sS'metE'
p561
S'e_1196'
p562
sS'metK'
p563
S'e_0931'
p564
sS'metH'
p565
S'e_1262'
p566
sS'cynT'
p567
S'e_0116'
p568
sS'metL'
p569
S'e_1233'
p570
sS'1-hydroxy-2-methyl-2-(E)-butenyl 4-diphosphate'
p571
S's_0123'
p572
sS'tdcB'
p573
S'e_0977'
p574
sS'3-Oxotetradecanoyl-CoA'
p575
S's_0305'
p576
sS'IscU with bound [2Fe-2S] cluster'
p577
S's_1020'
p578
sS'Sedoheptulose 7-phosphate'
p579
S's_1561'
p580
sS'5-Methyltetrahydrofolate'
p581
S's_0354'
p582
sS'asd'
p583
S'e_1045'
p584
sS'phosphatidylethanolamine (dihexadecanoyl, n-C16:0)'
p585
S's_1437'
p586
sS'guaB'
p587
S'e_0796'
p588
sS'3-Oxooctanoyl-CoA'
p589
S's_0303'
p590
sS"Adenosine 5'-phosphosulfate"
p591
S's_0412'
p592
sS'phosphatidylethanolamine (dihexadec-9enoyl, n-C16:1)'
p593
S's_1435'
p594
sS'guaA'
p595
S'e_0795'
p596
sS'2-Oxo-3-hydroxy-4-phosphobutanoate'
p597
S's_0231'
p598
sS'tyrB'
p599
S'e_1276'
p600
sS'trans-Oct-2-enoyl-CoA'
p601
S's_1676'
p602
sS'Phenylpyruvate'
p603
S's_1429'
p604
sS'2-Isopropylmaleate'
p605
S's_0217'
p606
sS'3-Hydroxypimeloyl-[acyl-carrier protein] methyl ester'
p607
S's_0277'
p608
sS'ispH'
p609
S'e_0010'
p610
sS'ispD'
p611
S'e_0867'
p612
sS'ispE'
p613
S'e_0404'
p614
sS'(S)-Dihydroorotate'
p615
S's_0052'
p616
sS'ispG'
p617
S'e_0798'
p618
sS'Coproporphyrinogen III'
p619
S's_0565'
p620
sS'ispA'
p621
S'e_0150'
p622
sS'argF'
p623
S'e_0103'
p624
sS'argG'
p625
S'e_0986'
p626
sS'tRNA (Glu)'
p627
S's_1690'
p628
sS'tyrA'
p629
S'e_0826'
p630
sS'pflB'
p631
S'e_0324'
p632
sS'pgl'
p633
S'e_0273'
p634
sS'moaD'
p635
S'e_0281'
p636
sS'moaC'
p637
S'e_0280'
p638
sS'pgk'
p639
S'e_0925'
p640
sS'moaA'
p641
S'e_0279'
p642
sS'trans-Hexadec-2-enoyl-CoA'
p643
S's_1674'
p644
sS'coaE'
p645
S'e_0046'
p646
sS'(S)-3-Hydroxydodecanoyl-CoA'
p647
S's_0045'
p648
sS'ATP'
p649
S's_0467'
p650
sS'ilvD'
p651
S'e_1168'
p652
sS'dihydrosirohydrochlorin'
p653
S's_0768'
p654
sS'pflA'
p655
S'e_0323'
p656
sS'uppS'
p657
S'e_0079'
p658
sS'Hydroxymethylbilane'
p659
S's_0998'
p660
sS'UDP-N-acetylmuramoyl-L-alanyl-D-gamma-glutamyl-meso-2,6-diaminopimelate'
p661
S's_1752'
p662
sS'Phosphoenolpyruvate'
p663
S's_1484'
p664
sS'accD'
p665
S'e_0730'
p666
sS'pflD'
p667
S'e_1238'
p668
sS'accA'
p669
S'e_0085'
p670
sS'pflC'
p671
S'e_1239'
p672
sS'accC'
p673
S'e_1006'
p674
sS'3,4-dihydroxy-2-butanone 4-phosphate'
p675
S's_0255'
p676
sS'D-Alanine'
p677
S's_0600'
p678
sS'L-Cysteine'
p679
S's_1083'
p680
sS'Oxaloacetate'
p681
S's_1399'
p682
sS'phosphatidylserine (dihexadecanoyl, n-C16:0)'
p683
S's_1477'
p684
sS'Dodecanoyl-CoA (n-C12:0CoA)'
p685
S's_0790'
p686
sS'ubiX'
p687
S'e_0727'
p688
sS'Molybdate'
p689
S's_1263'
p690
sS'puuA'
p691
S'e_0439'
p692
sS'Glycolaldehyde'
p693
S's_0936'
p694
sS'Pimeloyl-[acyl-carrier protein]'
p695
S's_1491'
p696
sS'Calcium'
p697
S's_0499'
p698
sS'malonyl-CoA methyl ester'
p699
S's_1218'
p700
sS'3-Methyl-2-oxobutanoate'
p701
S's_0282'
p702
sS'serB'
p703
S'e_1369'
p704
sS'serC'
p705
S'e_0326'
p706
sS'serA'
p707
S'e_0918'
p708
sS'3-Phospho-D-glycerate'
p709
S's_0306'
p710
sS'ubiD'
p711
S'e_1200'
p712
sS'Undecaprenyl-diphospho-N-acetylmuramoyl-L-alanyl-D-glutamyl-meso-2,6-diaminopimeloyl-D-alanyl-D-alanine'
p713
S's_1777'
p714
sS'ubiC'
p715
S'e_1271'
p716
sS'N1-(5-Phospho-D-ribosyl)glycinamide'
p717
S's_1318'
p718
sS'aroA'
p719
S'e_0327'
p720
sS'6,7-Dimethyl-8-(1-D-ribityl)lumazine'
p721
S's_0364'
p722
sS'dATP'
p723
S's_0726'
p724
sS'L-Citrulline'
p725
S's_1081'
p726
sS'Ornithine'
p727
S's_1391'
p728
sS'4-Hydroxybenzoate'
p729
S's_0325'
p730
sS'3-Phospho-D-glyceroyl phosphate'
p731
S's_0307'
p732
sS'magnesium'
p733
S's_1214'
p734
sS'Zinc'
p735
S's_1806'
p736
sS'L-Proline'
p737
S's_1155'
p738
sS'nifU'
p739
S'e_0804'
p740
sS'Cu2+'
p741
S's_0581'
p742
sS'aroF'
p743
S'e_0827'
p744
sS'(R)-2,3-Dihydroxy-3-methylbutanoate'
p745
S's_0017'
p746
sS'2-Amino-4-hydroxy-6-(erythro-1,2,3-trihydroxypropyl)dihydropteridine triphosphate'
p747
S's_0191'
p748
sS'Thiamin monophosphate'
p749
S's_1643'
p750
sS"5'-deoxyribose"
p751
S's_1835'
p752
sS'prs'
p753
S'e_0403'
p754
sS'L-Threonine'
p755
S's_1179'
p756
sS'rsgA'
p757
S'e_1313'
p758
sS'L-Histidinol'
p759
S's_1109'
p760
sS'3-Deoxy-D-manno-2-octulosonate'
p761
S's_0271'
p762
sS'aroK'
p763
S'e_1028'
p764
sS'L-2-Amino-3-oxobutanoate'
p765
S's_1040'
p766
sS'Menaquinol 8'
p767
S's_1239'
p768
sS'trpB'
p769
S'e_0426'
p770
sS'alpha-D-Ribose 1-phosphate'
p771
S's_0445'
p772
sS'Malonyl-[acyl-carrier protein]'
p773
S's_1216'
p774
sS'trpA'
p775
S'e_0425'
p776
sS'D-Glucosamine 1-phosphate'
p777
S's_0653'
p778
sS'trpD'
p779
S'e_0428'
p780
sS'Nicotinamide adenine dinucleotide phosphate - reduced'
p781
S's_1336'
p782
sS'L-Glutamate 1-semialdehyde'
p783
S's_1098'
p784
sS'6-hydroxymethyl dihydropterin'
p785
S's_0367'
p786
sS'5-Formamido-1-(5-phospho-D-ribosyl)imidazole-4-carboxamide'
p787
S's_0352'
p788
sS'adhE'
p789
S'e_0416'
p790
sS'L-Homoserine'
p791
S's_1113'
p792
sS'D-Glucosamine 6-phosphate'
p793
S's_0654'
p794
sS'sgcE'
p795
S'e_1355'
p796
sS'Uroporphyrinogen III'
p797
S's_1791'
p798
sS'Dodecanoyl-ACP (n-C12:0ACP)'
p799
S's_0789'
p800
sS'D-Fructose'
p801
S's_0622'
p802
sS'yfdZ'
p803
S'e_0742'
p804
sS'3-Oxo-pimeloyl-[acyl-carrier protein] methyl ester'
p805
S's_0290'
p806
sS'yhfW'
p807
S'e_1023'
p808
sS'GTP'
p809
S's_0945'
p810
sS'N-Carbamoyl-L-aspartate'
p811
S's_1312'
p812
sS'Glycine'
p813
S's_0929'
p814
sS'IMP'
p815
S's_1006'
p816
sS'bioH'
p817
S'e_1034'
p818
sS'L-Glutamate 5-phosphate'
p819
S's_1099'
p820
sS'(S)-2-Acetolactate'
p821
S's_0042'
p822
sS'IscS with bound sulfur'
p823
S's_1018'
p824
sS'IscS sulfur acceptor protein'
p825
S's_1017'
p826
sS'Acetyl phosphate'
p827
S's_0393'
p828
sS'Deamino-NAD+'
p829
S's_0732'
p830
sS'acnB'
p831
S'e_0054'
p832
sS'3-Oxodecanoyl-CoA'
p833
S's_0293'
p834
sS'acnA'
p835
S'e_0431'
p836
sS'moeB'
p837
S'e_0291'
p838
sS'moeA'
p839
S'e_0292'
p840
sS'Lipid A Disaccharide'
p841
S's_1204'
p842
sS'aldA'
p843
S'e_0466'
p844
sS'MoaD Protein with carboxylate'
p845
S's_1259'
p846
sS"C'-(3-Indolyl)-glycerol 3-phosphate"
p847
S's_0493'
p848
sS'L-Glutamyl-tRNA(Glu)'
p849
S's_1105'
p850
sS'Ammonium'
p851
S's_0453'
p852
sS'Farnesyl diphosphate'
p853
S's_0826'
p854
sS'aroL'
p855
S'e_0138'
p856
sS'Prephenate'
p857
S's_1497'
p858
sS'ubiA'
p859
S'e_1272'
p860
sS'Enoylglutaryl-[acyl-carrier protein] methyl ester'
p861
S's_0812'
p862
sS'leuD'
p863
S'e_0030'
p864
sS'L-Glutamate'
p865
S's_1095'
p866
sS'leuC'
p867
S'e_0031'
p868
sS'rpe'
p869
S'e_1026'
p870
sS'leuA'
p871
S'e_0033'
p872
sS'3-Oxotetradecanoyl-[acyl-carrier protein]'
p873
S's_0304'
p874
sS'D-Erythrose 4-phosphate'
p875
S's_0621'
p876
sS'plsC'
p877
S'e_0953'
p878
sS'plsB'
p879
S'e_1273'
p880
sS'rpiA'
p881
S'e_0919'
p882
sS'rpiB'
p883
S'e_1291'
p884
sS'Flavin adenine dinucleotide reduced'
p885
S's_0860'
p886
sS'Iminoaspartate'
p887
S's_1005'
p888
sS'asnA'
p889
S'e_1160'
p890
sS'Malonyl-CoA'
p891
S's_1217'
p892
sS'ydbK'
p893
S'e_0451'
p894
sS'L-Homocysteine'
p895
S's_1112'
p896
sS'3-Carboxy-3-hydroxy-4-methylpentanoate'
p897
S's_0266'
p898
sS'L-Leucine'
p899
S's_1127'
p900
sS'(2R,4S)-2-methyl-2,4-dihydroxydihydrofuran-3-one'
p901
S's_0004'
p902
sS'(S)-3-Hydroxytetradecanoyl-CoA'
p903
S's_0050'
p904
sS'CMP-3-deoxy-D-manno-octulosonate'
p905
S's_0542'
p906
sS'folK'
p907
S'e_0064'
p908
sS"Pyridoxal 5'-phosphate"
p909
S's_1522'
p910
sS'hisD'
p911
S'e_0606'
p912
sS'hisF'
p913
S'e_0611'
p914
sS'hisG'
p915
S'e_0605'
p916
sS'hisA'
p917
S'e_0610'
p918
sS'hisB'
p919
S'e_0608'
p920
sS'hisC'
p921
S'e_0607'
p922
sS'thiH'
p923
S'e_1250'
p924
sS'hisH'
p925
S'e_0609'
p926
sS'hisI'
p927
S'e_0612'
p928
sS'6-Phospho-D-gluconate'
p929
S's_0369'
p930
sS'1-hexadec-9-enoyl-sn-glycerol 3-phosphate'
p931
S's_0119'
p932
sS'3-(Imidazol-4-yl)-2-oxopropyl phosphate'
p933
S's_0263'
p934
sS'aroC'
p935
S'e_0734'
p936
sS'aroD'
p937
S'e_0541'
p938
sS'aroE'
p939
S'e_1010'
p940
sS'Acetyl-CoA'
p941
S's_0395'
p942
sS'aroG'
p943
S'e_0263'
p944
sS'aroH'
p945
S'e_0544'
p946
sS'cysI'
p947
S'e_0872'
p948
sS'Crotonoyl-CoA'
p949
S's_0574'
p950
sS'D-Glutamate'
p951
S's_0671'
p952
sS'2-Oxobutanoate'
p953
S's_0232'
p954
sS'IscU with two bound [2Fe-2S] clusters'
p955
S's_1022'
p956
sS'thyA'
p957
S'e_0894'
p958
sS'Hexadecanoate (n-C16:0)'
p959
S's_0971'
p960
sS'N-Acetyl-L-glutamate'
p961
S's_1302'
p962
sS'Isopentenyl diphosphate'
p963
S's_1028'
p964
sS'Biotin'
p965
S's_0476'
p966
sS'(S)-3-Hydroxybutanoyl-CoA'
p967
S's_0043'
p968
sS'Glycerol 3-phosphate'
p969
S's_0920'
p970
sS'beta-Alanine'
p971
S's_0470'
p972
sS'MoaD Protein with bound AMP'
p973
S's_1258'
p974
sS'3-Phosphohydroxypyruvate'
p975
S's_0308'
p976
sS'aas'
p977
S'e_0896'
p978
sS'Adenine'
p979
S's_0405'
p980
sS'murA'
p981
S'e_0991'
p982
sS'dTDP'
p983
S's_0795'
p984
sS'cysC'
p985
S'e_0868'
p986
sS'Undecaprenyl diphosphate'
p987
S's_1765'
p988
sS'L-Histidinol phosphate'
p989
S's_1110'
p990
sS'Flavin adenine dinucleotide oxidized'
p991
S's_0859'
p992
sS'Citrate'
p993
S's_0536'
p994
sS'L-Alanine'
p995
S's_1041'
p996
sS'lpxH'
p997
S'e_0186'
p998
sS'lpxK'
p999
S'e_0330'
p1000
sS'ppnK'
p1001
S'e_0828'
p1002
sS'lpxA'
p1003
S'e_0083'
p1004
sS'lpxB'
p1005
S'e_0084'
p1006
sS'lpxC'
p1007
S'e_0044'
p1008
sS"2,5-Diamino-6-(ribosylamino)-4-(3H)-pyrimidinone 5'-phosphate"
p1009
S's_0160'
p1010
sS'mhpF'
p1011
S'e_0125'
p1012
sS'glcD'
p1013
S'e_0941'
p1014
sS'glcE'
p1015
S'e_1377'
p1016
sS'glcF'
p1017
S'e_1376'
p1018
sS'dTMP'
p1019
S's_0802'
p1020
sS'2-Dehydro-3-deoxy-D-arabino-heptonate 7-phosphate'
p1021
S's_0195'
p1022
sS'1-hexadecanoyl-sn-glycerol 3-phosphate'
p1023
S's_0121'
p1024
sS'Octanoyl-CoA (n-C8:0CoA)'
p1025
S's_1390'
p1026
sS'can'
p1027
S'e_0060'
p1028
sS'Dihydroxyacetone phosphate'
p1029
S's_0772'
p1030
sS'3-Hydroxyglutaryl-[acyl-carrier protein] methyl ester'
p1031
S's_0276'
p1032
sS'5-phosphoribosyl-5-carboxyaminoimidazole'
p1033
S's_0362'
p1034
sS'2,3-Dihydrodipicolinate'
p1035
S's_0155'
p1036
sS'UDP-N-acetylmuramoyl-L-alanyl-D-glutamyl-meso-2,6-diaminopimeloyl-D-alanyl-D-alanine'
p1037
S's_1755'
p1038
sS'(S)-3-Hydroxydecanoyl-CoA'
p1039
S's_0044'
p1040
sS'cysQ'
p1041
S'e_1326'
p1042
sS'L-Phenylalanine'
p1043
S's_1151'
p1044
sS'1-(5-Phosphoribosyl)-5-[(5-phosphoribosylamino)methylideneamino]imidazole-4-carboxamide'
p1045
S's_0097'
p1046
sS'dut'
p1047
S'e_1128'
p1048
sS'N-(5-Phospho-D-ribosyl)anthranilate'
p1049
S's_1278'
p1050
sS'O-Succinyl-L-homoserine'
p1051
S's_1367'
p1052
sS'nickel'
p1053
S's_1331'
p1054
sS"5'-Deoxyadenosine"
p1055
S's_0333'
p1056
sS'(R)-Pantoate'
p1057
S's_0032'
p1058
sS'Shikimate'
p1059
S's_1571'
p1060
sS'lysC'
p1061
S'e_1263'
p1062
sS'2-Oxoglutarate'
p1063
S's_0233'
p1064
sS'glk'
p1065
S'e_0743'
p1066
sS'L-Cystathionine'
p1067
S's_1082'
p1068
sS'2-Hydroxy-3-oxopropanoate'
p1069
S's_0214'
p1070
sS'xylA'
p1071
S'e_1086'
p1072
sS'tdcE'
p1073
S'e_0974'
p1074
sS'tdcD'
p1075
S'e_0975'
p1076
sS'CO2'
p1077
S's_0545'
p1078
sS'5,10-Methenyltetrahydrofolate'
p1079
S's_0335'
p1080
sS'L-Methionine'
p1081
S's_1141'
p1082
sS'CDP'
p1083
S's_0510'
p1084
sS'(S)-3-Methyl-2-oxopentanoate'
p1085
S's_0051'
p1086
sS'Dihydropteroate'
p1087
S's_0767'
p1088
sS'[4Fe-4S] iron-sulfur cluster'
p1089
S's_0380'
p1090
sS'UMP'
p1091
S's_1762'
p1092
sS'3-Carboxy-2-hydroxy-4-methylpentanoate'
p1093
S's_0265'
p1094
sS'lpxD'
p1095
S'e_0081'
p1096
sS'fabZ'
p1097
S'e_0082'
p1098
sS'fabD'
p1099
S'e_0373'
p1100
sS'fabG'
p1101
S'e_0374'
p1102
sS'fabF'
p1103
S'e_0376'
p1104
sS'fabB'
p1105
S'e_0732'
p1106
sS'two linked disacharide pentapeptide murein units (uncrosslinked, middle of chain)'
p1107
S's_1725'
p1108
sS'fabI'
p1109
S'e_0436'
p1110
sS'fabH'
p1111
S'e_0372'
p1112
sS'gpmB'
p1113
S'e_1373'
p1114
sS'gpmA'
p1115
S'e_0264'
p1116
sS'4,5-dihydroxy-2,3-pentanedione'
p1117
S's_0310'
p1118
sS'glnA'
p1119
S'e_1210'
p1120
sS'4-(1-D-Ribitylamino)-5-aminouracil'
p1121
S's_0311'
p1122
sS'1-(5-Phosphoribosyl)-ATP'
p1123
S's_0099'
p1124
sS'7,8-Dihydrofolate'
p1125
S's_0372'
p1126
sS'8-Amino-7-oxononanoate'
p1127
S's_0376'
p1128
sS'ackA'
p1129
S'e_0719'
p1130
sS'Hexadecenoyl-CoA (n-C16:1CoA)'
p1131
S's_0979'
p1132
sS'L-Aspartate 4-semialdehyde'
p1133
S's_1075'
p1134
sS'sirohydrochlorin'
p1135
S's_1578'
p1136
sS'pssA'
p1137
S'e_0823'
p1138
sS'glxR'
p1139
S'e_0177'
p1140
sS'UTP'
p1141
S's_1792'
p1142
sS'dadX'
p1143
S'e_0395'
p1144
sS'UDP-N-acetylmuramoyl-L-alanyl-D-glutamate'
p1145
S's_1754'
p1146
sS'ilvE'
p1147
S'e_1167'
p1148
sS'iscS'
p1149
S'e_0805'
p1150
sS"5-Amino-6-(5'-phosphoribosylamino)uracil"
p1151
S's_0347'
p1152
sS'iscA'
p1153
S'e_0803'
p1154
sS'4-Phospho-L-aspartate'
p1155
S's_0332'
p1156
sS'trpC'
p1157
S'e_0427'
p1158
sS'epd'
p1159
S'e_0926'
p1160
sS'Decanoyl-CoA (n-C10:0CoA)'
p1161
S's_0737'
p1162
sS'fadJ'
p1163
S'e_0735'
p1164
sS'D-Glucose 6-phosphate'
p1165
S's_0663'
p1166
sS'Siroheme'
p1167
S's_1577'
p1168
sS'gutQ'
p1169
S'e_0848'
p1170
sS'6-phospho-D-glucono-1,5-lactone'
p1171
S's_0370'
p1172
sS'aceF'
p1173
S'e_0052'
p1174
sS'Flavodoxin reduced'
p1175
S's_0861'
p1176
sS'trpE'
p1177
S'e_0429'
p1178
sS'O2'
p1179
S's_1374'
p1180
sS'Glyceraldehyde 3-phosphate'
p1181
S's_0913'
p1182
sS'dCTP'
p1183
S's_0731'
p1184
sS'gmk'
p1185
S'e_1130'
p1186
sS'fumA'
p1187
S'e_0516'
p1188
sS'fumB'
p1189
S'e_1298'
p1190
sS'fumC'
p1191
S'e_0515'
p1192
sS'(R)-Glycerate'
p1193
S's_0029'
p1194
sS'Acetaldehyde'
p1195
S's_0381'
p1196
sS'adenylated molybdopterin'
p1197
S's_0420'
p1198
sS'adk'
p1199
S'e_0167'
p1200
sS'Enoylpimeloyl-[acyl-carrier protein] methyl ester'
p1201
S's_0813'
p1202
sS'nudI'
p1203
S'e_0691'
p1204
sS'3-Dehydroquinate'
p1205
S's_0269'
p1206
sS'2-Dehydropantoate'
p1207
S's_0203'
p1208
sS'(S)-2-[5-Amino-1-(5-phospho-D-ribosyl)imidazole-4-carboxamido]succinate'
p1209
S's_0040'
p1210
sS'nudB'
p1211
S'e_0586'
p1212
sS'psd'
p1213
S'e_1312'
p1214
sS'Riboflavin'
p1215
S's_1546'
p1216
sS'Shikimate 5-phosphate'
p1217
S's_1574'
p1218
sS'Adenosine'
p1219
S's_0408'
p1220
sS'N-Acetyl-L-glutamate 5-semialdehyde'
p1221
S's_1303'
p1222
sS'thrA'
p1223
S'e_0001'
p1224
sS'mog'
p1225
S'e_0006'
p1226
sS'5-amino-1-(5-phospho-D-ribosyl)imidazole-4-carboxylate'
p1227
S's_0344'
p1228
sS'Ubiquinone-8'
p1229
S's_1732'
p1230
sS'D-Xylulose 5-phosphate'
p1231
S's_0721'
p1232
sS'mrdA'
p1233
S'e_0221'
p1234
sS'3-Oxohexanoyl-CoA'
p1235
S's_0299'
p1236
sS'Undecaprenyl-diphospho-N-acetylmuramoyl-(N-acetylglucosamine)-L-ala-D-glu-meso-2,6-diaminopimeloyl-D-ala-D-ala'
p1237
S's_1776'
p1238
sS'O-Acetyl-L-serine'
p1239
S's_1358'
p1240
sS'Ubiquinol-8'
p1241
S's_1731'
p1242
sS'mobA'
p1243
S'e_1207'
p1244
sS'S-Ribosyl-L-homocysteine'
p1245
S's_1558'
p1246
sS'Glutaryl-[acyl-carrier protein] methyl ester'
p1247
S's_0910'
p1248
sS'Protoheme'
p1249
S's_1508'
p1250
sS'Dethiobiotin'
p1251
S's_0755'
p1252
sS'nadE'
p1253
S'e_0554'
p1254
sS"5-Amino-6-(5'-phosphoribitylamino)uracil"
p1255
S's_0346'
p1256
sS'1,2-dihexadecanoyl-sn-glycerol 3-phosphate'
p1257
S's_0075'
p1258
sS'5,6,7,8-Tetrahydrofolate'
p1259
S's_0337'
p1260
sS'nadD'
p1261
S'e_0223'
p1262
sS'proC'
p1263
S'e_0137'
p1264
sS'proB'
p1265
S'e_0099'
p1266
sS'proA'
p1267
S'e_0100'
p1268
sS'murI'
p1269
S'e_1247'
p1270
sS"Orotidine 5'-phosphate"
p1271
S's_1397'
p1272
sS'N6-(1,2-Dicarboxyethyl)-AMP'
p1273
S's_1327'
p1274
sS'murB'
p1275
S'e_1248'
p1276
sS'murC'
p1277
S'e_0042'
p1278
sS'murD'
p1279
S'e_0040'
p1280
sS'murE'
p1281
S'e_0037'
p1282
sS'murF'
p1283
S'e_0038'
p1284
sS'murG'
p1285
S'e_0041'
p1286
sS'N2-Formyl-N1-(5-phospho-D-ribosyl)glycinamide'
p1287
S's_1322'
p1288
sS'N-((R)-4-Phosphopantothenoyl)-L-cysteine'
p1289
S's_1277'
p1290
sS'Protoporphyrinogen IX'
p1291
S's_1512'
p1292
sS'AMP'
p1293
S's_0454'
p1294
sS'tmk'
p1295
S'e_0378'
p1296
sS'trxC'
p1297
S'e_0822'
p1298
sS'tdh'
p1299
S'e_1109'
p1300
sS'yqeA'
p1301
S'e_0903'
p1302
sS'D-Glucose'
p1303
S's_0659'
p1304
sS'ribH'
p1305
S'e_0145'
p1306
sS'ribA'
p1307
S'e_0432'
p1308
sS'ribB'
p1309
S'e_0960'
p1310
sS'ribE'
p1311
S'e_0531'
p1312
sS'ribD'
p1313
S'e_0144'
p1314
sS'ribF'
p1315
S'e_0008'
p1316
sS'accB'
p1317
S'e_1005'
p1318
sS'ndk'
p1319
S'e_0799'
p1320
sS'fre'
p1321
S'e_1201'
p1322
sS'D-Alanyl-D-alanine'
p1323
S's_0603'
p1324
sS'N-Acetyl-D-glucosamine 1-phosphate'
p1325
S's_1287'
p1326
sS'panE'
p1327
S'e_0152'
p1328
sS'Thiamine diphosphate'
p1329
S's_1644'
p1330
sS'UDP-N-acetylmuramoyl-L-alanine'
p1331
S's_1751'
p1332
sS'5-amino-1-(5-phospho-D-ribosyl)imidazole'
p1333
S's_0342'
p1334
sS"2,3,2'3'-Tetrakis(beta-hydroxymyristoyl)-D-glucosaminyl-1,6-beta-D-glucosamine 1,4'-bisphosphate"
p1335
S's_0147'
p1336
sS'4-Aminobenzoate'
p1337
S's_0318'
p1338
sS'bioB'
p1339
S'e_0275'
p1340
sS'bioC'
p1341
S'e_0277'
p1342
sS'bioA'
p1343
S'e_0274'
p1344
sS'bioF'
p1345
S'e_0276'
p1346
sS'ppk'
p1347
S'e_0793'
p1348
sS'2-(Formamido)-N1-(5-phospho-D-ribosyl)acetamidine'
p1349
S's_0162'
p1350
sS'waaA'
p1351
S'e_1125'
p1352
sS'dapB'
p1353
S'e_0012'
p1354
sS'pabC'
p1355
S'e_0377'
p1356
sS'N-Acetyl-L-glutamyl 5-phosphate'
p1357
S's_1304'
p1358
sS'2-Methyl-4-amino-5-hydroxymethylpyrimidine diphosphate'
p1359
S's_0218'
p1360
sS'pyrF'
p1361
S'e_0435'
p1362
sS'S-Adenosyl-L-homocysteine'
p1363
S's_1551'
p1364
sS'Palmitoyl-ACP (n-C16:0ACP)'
p1365
S's_1411'
p1366
sS'dehydroglycine'
p1367
S's_0738'
p1368
sS'mobB'
p1369
S'e_1206'
p1370
sS'garK'
p1371
S'e_0978'
p1372
sS'mraY'
p1373
S'e_0039'
p1374
sS'Pimeloyl-[acyl-carrier protein] methyl ester'
p1375
S's_1492'
p1376
sS'L-Histidine'
p1377
S's_1106'
p1378
sS'Isocitrate'
p1379
S's_1027'
p1380
sS'5-Amino-1-(5-Phospho-D-ribosyl)imidazole-4-carboxamide'
p1381
S's_0343'
p1382
sS'garR'
p1383
S'e_0979'
p1384
sS"4-(cytidine 5'-diphospho)-2-C-methyl-D-erythritol"
p1385
S's_0312'
p1386
sS'Formate'
p1387
S's_0867'
p1388
sS'ADP'
p1389
S's_0421'
p1390
sS'S-Adenosyl-L-methionine'
p1391
S's_1552'
p1392
sS'potassium'
p1393
S's_1496'
p1394
sS'(R)-Pantothenate'
p1395
S's_0033'
p1396
sS'2-Dehydro-3-deoxy-D-gluconate 6-phosphate'
p1397
S's_0201'
p1398
sS'ltaE'
p1399
S'e_0313'
p1400
sS'Phosphate'
p1401
S's_1432'
p1402
sS'gdhA'
p1403
S'e_0561'
p1404
sS'GMP'
p1405
S's_0942'
p1406
sS'GDP'
p1407
S's_0896'
p1408
sS'Nicotinamide adenine dinucleotide'
p1409
S's_1333'
p1410
sS'kdsB'
p1411
S'e_0331'
p1412
sS'dUMP'
p1413
S's_0807'
p1414
sS"Xanthosine 5'-phosphate"
p1415
S's_1799'
p1416
sS'Glycolate'
p1417
S's_0937'
p1418
sS'two disacharide linked murein units, pentapeptide crosslinked tetrapeptide (A2pm->D-ala) (middle of chain)'
p1419
S's_1719'
p1420
sS'pdxA'
p1421
S'e_0022'
p1422
sS'atoB'
p1423
S'e_0682'
p1424
sS'cyaY'
p1425
S'e_1188'
p1426
sS'3-Oxohexadecanoyl-CoA'
p1427
S's_0297'
p1428
sS'D-erythro-1-(Imidazol-4-yl)glycerol 3-phosphate'
p1429
S's_0620'
p1430
sS'1,2-dihexadec-9-enoyl-sn-glycerol 3-phosphate'
p1431
S's_0073'
p1432
sS'luxS'
p1433
S'e_0839'
p1434
sS'Undecaprenyl phosphate'
p1435
S's_1768'
p1436
sS'meso-2,6-Diaminoheptanedioate'
p1437
S's_1242'
p1438
sS'tesB'
p1439
S'e_0162'
p1440
sS'(R)-2,3-Dihydroxy-3-methylpentanoate'
p1441
S's_0018'
p1442
sS'fadB'
p1443
S'e_1203'
p1444
sS'Glyoxylate'
p1445
S's_0941'
p1446
sS'L-Valine'
p1447
S's_1193'
p1448
sS'Anthranilate'
p1449
S's_0457'
p1450
sS'tktA'
p1451
S'e_0928'
p1452
sS'Pyruvate'
p1453
S's_1531'
p1454
sS'Fe3+'
p1455
S's_0843'
p1456
sS'aceE'
p1457
S'e_0051'
p1458
sS'N(omega)-(L-Arginino)succinate'
p1459
S's_1274'
p1460
sS'2-C-methyl-D-erythritol 2,4-cyclodiphosphate'
p1461
S's_0193'
p1462
sS'UDP-N-acetylmuramate'
p1463
S's_1750'
p1464
sS'pheA'
p1465
S'e_0825'
p1466
sS'molybdopterin'
p1467
S's_1265'
p1468
sS'fldB'
p1469
S'e_0911'
p1470
sS'fldA'
p1471
S'e_0238'
p1472
sS'O-Phospho-L-homoserine'
p1473
S's_1363'
p1474
sS'Nicotinamide adenine dinucleotide - reduced'
p1475
S's_1334'
p1476
sS'lysA'
p1477
S'e_0897'
p1478
sS'D-Fructose 6-phosphate'
p1479
S's_0627'
p1480
sS'Dimethylallyl diphosphate'
p1481
S's_0779'
p1482
sS'5-Phospho-beta-D-ribosylamine'
p1483
S's_0361'
p1484
sS'pyrI'
p1485
S'e_1339'
p1486
sS'pyrH'
p1487
S'e_0077'
p1488
sS'pyrG'
p1489
S'e_0876'
p1490
sS'L-Isoleucine'
p1491
S's_1119'
p1492
sS'pyrE'
p1493
S'e_1129'
p1494
sS'pyrD'
p1495
S'e_0342'
p1496
sS'pyrC'
p1497
S'e_0368'
p1498
sS'pyrB'
p1499
S'e_1340'
p1500
sS'trans-Hex-2-enoyl-CoA'
p1501
S's_1672'
p1502
sS'Fumarate'
p1503
S's_0875'
p1504
sS'dUTP'
p1505
S's_0810'
p1506
sS'pdxB'
p1507
S'e_0731'
p1508
sS'Dephospho-CoA'
p1509
S's_0754'
p1510
sS'D-Ribulose 5-phosphate'
p1511
S's_0704'
p1512
sS'IscU with bound [4Fe-4S] cluster'
p1513
S's_1021'
p1514
sS'Hexanoyl-CoA (n-C6:0CoA)'
p1515
S's_0984'
p1516
sS'L-Glutamate 5-semialdehyde'
p1517
S's_1100'
p1518
sS'L-Tryptophan'
p1519
S's_1185'
p1520
sS'KDO(2)-lipid IV(A)'
p1521
S's_1033'
p1522
sS'Oxidized thioredoxin'
p1523
S's_1406'
p1524
sS'acyl carrier protein'
p1525
S's_0397'
p1526
s.