(dp0
S'ERKP'
p1
S'ERKP'
p2
sS'internalization'
p3
S'internalization'
p4
sS'P_I'
p5
S'P_I'
p6
sS'RPI3K'
p7
S'RPI3K'
p8
sS'RHRG2'
p9
S'RHRG2'
p10
sS'ShGS'
p11
S'ShGS'
p12
sS'RPI3Kstar'
p13
S'RPI3Kstar'
p14
sS'Shc'
p15
S'Shc'
p16
sS'ShP'
p17
S'ShP'
p18
sS'HRG'
p19
S'HRG'
p20
sS'ERK'
p21
S'ERK'
p22
sS'RShGS'
p23
S'RShGS'
p24
sS'RP'
p25
S'RP'
p26
sS'PP2A'
p27
S'PP2A'
p28
sS'PI3Kstar'
p29
S'PI3Kstar'
p30
sS'AktPIP3'
p31
S'AktPIP3'
p32
sS'E'
p33
g33
sS'RShP'
p34
S'RShP'
p35
sS'MKP3'
p36
S'MKP3'
p37
sS'GS'
p38
S'GS'
p39
sS'PIP3'
p40
S'PIP3'
p41
sS'PI3K'
p42
S'PI3K'
p43
sS'Akt'
p44
S'Akt'
p45
sS'R'
p46
g46
sS'RasGDP'
p47
S'RasGDP'
p48
sS'Rafstar'
p49
S'Rafstar'
p50
sS'ERKPP'
p51
S'ERKPP'
p52
sS'AktPIPP'
p53
S'AktPIPP'
p54
sS'Raf'
p55
S'Raf'
p56
sS'MEKPP'
p57
S'MEKPP'
p58
sS'RasGTP'
p59
S'RasGTP'
p60
sS'AktPIP'
p61
S'AktPIP'
p62
sS'MEK'
p63
S'MEK'
p64
sS'RShc'
p65
S'RShc'
p66
sS'MEKP'
p67
S'MEKP'
p68
sS'RHRG'
p69
S'RHRG'
p70
s.