(dp0
S'GDP'
p1
S's125'
p2
sS'EGFR'
p3
S's129'
p4
sS'ERK1_minus_2'
p5
S's28'
p6
sS'Mitogenesis_br_Differentiation'
p7
S's34'
p8
sS'RKIP'
p9
S's30'
p10
sS'Akt'
p11
S's22'
p12
sS'GTP'
p13
S's126'
p14
sS'PKC'
p15
S's127'
p16
sS'PP2A'
p17
S's31'
p18
sS'Ras'
p19
S's124'
p20
sS'Complex(Grb2/../PLC)'
p21
S's147'
p22
sS'MEK1_minus_2'
p23
S's26'
p24
sS'Raf_minus_1'
p25
S's24'
p26
sS'Complex_br_(EGFR/../_br_GAP)'
p27
S's144'
p28
sS'EGF'
p29
S's3'
p30
sS'14_minus_3_minus_3'
p31
S's33'
p32
sS'erlotinib'
p33
S's142'
p34
s.