(dp0
S'pERK_DUSPn'
p1
S'pERK_DUSPn'
p2
sS'pERK_ppMEKc'
p3
S'pERK_ppMEKc'
p4
sS'ppERK_STYXn'
p5
S'ppERK_STYXn'
p6
sS'pERK_DUSPc'
p7
S'pERK_DUSPc'
p8
sS'ppERKc'
p9
S'ppERKc'
p10
sS'ERKc_obs'
p11
S'ERKc_obs'
p12
sS'ERK_ppMEKc'
p13
S'ERK_ppMEKc'
p14
sS'ppERKn'
p15
S'ppERKn'
p16
sS'u_ppMEKc_tot'
p17
S'u_ppMEKc_tot'
p18
sS'pERKc_obs'
p19
S'pERKc_obs'
p20
sS'STYXn'
p21
S'STYXn'
p22
sS'ERKc'
p23
S'ERKc'
p24
sS'ppERKc_obs'
p25
S'ppERKc_obs'
p26
sS'pERK_STYXn'
p27
S'pERK_STYXn'
p28
sS'ERKn'
p29
S'ERKn'
p30
sS'pERKc'
p31
S'pERKc'
p32
sS'pERKn'
p33
S'pERKn'
p34
sS'DUSPn'
p35
S'DUSPn'
p36
sS'ERK_ppMEKc_obs'
p37
S'ERK_ppMEKc_obs'
p38
sS'duspn'
p39
S'duspn'
p40
sS'ppMEKc_tot'
p41
S'ppMEKc_tot'
p42
sS'ERK_STYXn'
p43
S'ERK_STYXn'
p44
sS'DUSPc'
p45
S'DUSPc'
p46
sS'ppERK_DUSPn'
p47
S'ppERK_DUSPn'
p48
sS'ppERK_DUSPc'
p49
S'ppERK_DUSPc'
p50
s.