(dp0
S'R-Smad-P-Smad4_nuc'
p1
S'R_smad_P_smad4_nuc'
p2
sS'Pi'
p3
S'Pi'
p4
sS'R-Smad-P_cyt'
p5
S'R_smad_P_cyt'
p6
sS'R-Smad-P_nuc'
p7
S'R_smad_P_nuc'
p8
sS'receptors'
p9
S'receptor'
p10
sS'R-Smad-P-Smad4_cyt'
p11
S'R_smad_P_smad4_cyt'
p12
sS'Smad4_cyt'
p13
S'smad4_cyt'
p14
sS'R-Smad_nuc'
p15
S'R_smad_nuc'
p16
sS'R-Smad_cyt'
p17
S'R_smad_cyt'
p18
sS'Smad4_nuc'
p19
S'smad4_nuc'
p20
s.