(dp0
S'camR_ca2_BC'
p1
S'species_9'
p2
sS'camR_ca2_BD'
p3
S'species_10'
p4
sS'camR_ca2_AB_CaMKII'
p5
S'species_39'
p6
sS'camR_ca2_AD_PP2B'
p7
S'species_58'
p8
sS'ca'
p9
S'species_1'
p10
sS'camR_ca1_A_CaMKII'
p11
S'species_35'
p12
sS'camR_ca3_ABC_CaMKII'
p13
S'species_45'
p14
sS'camR_ca3_BCD_CaMKII'
p15
S'species_48'
p16
sS'camR_ca3_BCD_PP2B'
p17
S'species_65'
p18
sS'CaMKII'
p19
S'species_33'
p20
sS'camR_ca3_BCD'
p21
S'species_15'
p22
sS'camR_ca2_AB_PP2B'
p23
S'species_56'
p24
sS'camR_ca4_ABCD_PP2B'
p25
S'species_66'
p26
sS'camT_ca2_CD'
p27
S'species_27'
p28
sS'camT_ca2_AC'
p29
S'species_23'
p30
sS'camT_ca2_AB'
p31
S'species_22'
p32
sS'camT_ca2_AD'
p33
S'species_24'
p34
sS'PP2B'
p35
S'species_50'
p36
sS'camR_ca3_ABD_CaMKII'
p37
S'species_46'
p38
sS'camT_ca3_ABD'
p39
S'species_29'
p40
sS'camT_ca3_ABC'
p41
S'species_28'
p42
sS'camR_ca3_ACD'
p43
S'species_14'
p44
sS'camR_ca1_C_CaMKII'
p45
S'species_37'
p46
sS'camR_ca2_CD'
p47
S'species_11'
p48
sS'camR_ca4_ABCD'
p49
S'species_16'
p50
sS'camR_ca2_BC_CaMKII'
p51
S'species_42'
p52
sS'camR_ca2_AD_CaMKII'
p53
S'species_41'
p54
sS'camR_ca2_BD_CaMKII'
p55
S'species_43'
p56
sS'camR_ca4_ABCD_CaMKII'
p57
S'species_49'
p58
sS'camR_ca1_B_CaMKII'
p59
S'species_36'
p60
sS'camR_ca2_BC_PP2B'
p61
S'species_59'
p62
sS'camR_ca2_AD'
p63
S'species_8'
p64
sS'camR_ca2_AC_PP2B'
p65
S'species_57'
p66
sS'camR_CaMKII'
p67
S'species_34'
p68
sS'camR_ca2_AC'
p69
S'species_7'
p70
sS'camR_ca2_AB'
p71
S'species_6'
p72
sS'camR'
p73
S'species_0'
p74
sS'camR_ca1_A_PP2B'
p75
S'species_52'
p76
sS'camR_ca2_BD_PP2B'
p77
S'species_60'
p78
sS'camT'
p79
S'species_17'
p80
sS'camT_ca2_BC'
p81
S'species_25'
p82
sS'camR_ca3_ACD_CaMKII'
p83
S'species_47'
p84
sS'camT_ca2_BD'
p85
S'species_26'
p86
sS'camR_ca1_C_PP2B'
p87
S'species_54'
p88
sS'camT_ca1_D'
p89
S'species_21'
p90
sS'camR_ca1_D_CaMKII'
p91
S'species_38'
p92
sS'camR_ca2_AC_CaMKII'
p93
S'species_40'
p94
sS'camT_ca1_A'
p95
S'species_18'
p96
sS'camT_ca1_B'
p97
S'species_19'
p98
sS'camT_ca1_C'
p99
S'species_20'
p100
sS'camT_ca3_ACD'
p101
S'species_30'
p102
sS'camT_ca4_ABCD'
p103
S'species_32'
p104
sS'camR_ca3_ABD_PP2B'
p105
S'species_63'
p106
sS'camR_ca1_D_PP2B'
p107
S'species_55'
p108
sS'camR_ca1_D'
p109
S'species_5'
p110
sS'camR_ca1_B'
p111
S'species_3'
p112
sS'camR_ca1_C'
p113
S'species_4'
p114
sS'camR_ca1_A'
p115
S'species_2'
p116
sS'camR_ca3_ABC_PP2B'
p117
S'species_62'
p118
sS'camR_ca3_ACD_PP2B'
p119
S'species_64'
p120
sS'camR_ca2_CD_PP2B'
p121
S'species_61'
p122
sS'camR_ca2_CD_CaMKII'
p123
S'species_44'
p124
sS'camR_ca3_ABD'
p125
S'species_13'
p126
sS'camR_PP2B'
p127
S'species_51'
p128
sS'camR_ca1_B_PP2B'
p129
S'species_53'
p130
sS'camR_ca3_ABC'
p131
S'species_12'
p132
sS'camT_ca3_BCD'
p133
S'species_31'
p134
s.