(dp0
S'P2'
p1
S'species_10'
p2
sS'MKKK'
p3
S'species_1'
p4
sS'MKK_P'
p5
S'species_4'
p6
sS'MKK_PP'
p7
S'species_5'
p8
sS'MK_P'
p9
S'species_7'
p10
sS'MKK'
p11
S'species_3'
p12
sS'MK'
p13
S'species_6'
p14
sS'MKKK_P'
p15
S'species_2'
p16
sS'P1'
p17
S'species_9'
p18
sS'Sig'
p19
S'species_11'
p20
sS'MK_PP'
p21
S'species_8'
p22
s.