(dp0
S'p-FAK:p-Shc:Grb2:Sos'
p1
S's113'
p2
sS'Shear Stress'
p3
S's119'
p4
sS'eNOS-Cav-1'
p5
S's51'
p6
sS'p-MEKK1'
p7
S's101'
p8
sS'p-Shc:Grb2:Sos'
p9
S's114'
p10
sS'eNOS'
p11
S's115'
p12
sS'AP-1'
p13
S's42'
p14
sS'p-Shc'
p15
S's98'
p16
sS'Ras:GDP'
p17
S's103'
p18
sS'FAK'
p19
S's95'
p20
sS'KLF2'
p21
S's105'
p22
sS'pre_time'
p23
S's38'
p24
sS'p-FAK'
p25
S's93'
p26
sS'pp-JNKK'
p27
S's43'
p28
sS'Src'
p29
S's94'
p30
sS's35'
p31
S's35'
p32
sS's37'
p33
S's37'
p34
sS'MEKK1'
p35
S's97'
p36
sS'Shc'
p37
S's91'
p38
sS'pp-JNK'
p39
S's44'
p40
sS'Time'
p41
S's39'
p42
sS'aAP-1'
p43
S's107'
p44
sS'p-JNK'
p45
S's104'
p46
sS'p-Src'
p47
S's92'
p48
sS'p-JNKK'
p49
S's100'
p50
sS'p-FAK:p-Shc'
p51
S's112'
p52
sS'Grb2:Sos'
p53
S's111'
p54
sS'p-FAK:Shc'
p55
S's110'
p56
sS'JNK'
p57
S's99'
p58
sS'Ras:GTP'
p59
S's102'
p60
sS'JNKK'
p61
S's96'
p62
s.