(dp0
S'measdosR'
p1
S'measdosR'
p2
sS'measIRp'
p3
S'measIRp'
p4
sS'measdoublestep'
p5
S'measdoublestep'
p6
sS'IRip'
p7
S'IRip'
p8
sS'IRSip'
p9
S'IRSip'
p10
sS'measanna'
p11
S'measanna'
p12
sS'V2'
p13
S'V2'
p14
sS'V3'
p15
S'V3'
p16
sS'simXp'
p17
S'simXP'
p18
sS'V1c'
p19
S'V1c'
p20
sS'V1a'
p21
S'V1a'
p22
sS'Vm2'
p23
S'Vm2'
p24
sS'Vm3'
p25
S'Vm3'
p26
sS'V1d'
p27
S'V1d'
p28
sS'V1e'
p29
S'V1e'
p30
sS'IR'
p31
S'IR'
p32
sS'v1r'
p33
S'V1r'
p34
sS'IRS'
p35
S'IRS'
p36
sS'V1b'
p37
S'V1b'
p38
sS'X'
p39
g39
sS'IRins'
p40
S'IRins'
p41
sS'intamount'
p42
S'intamount'
p43
sS'IRp'
p44
S'IRp'
p45
sS'V1g'
p46
S'V1g'
p47
sS'IRi'
p48
S'IRi'
p49
sS'Xp'
p50
S'Xp'
p51
s.