(dp0
S'PDK1_cyto'
p1
S's25'
p2
sS'PIP2'
p3
S's19'
p4
sS's3'
p5
S's21'
p6
sS'p-AKT:PI3P'
p7
S's26'
p8
sS'PI3K'
p9
S's22'
p10
sS'PDK2'
p11
S's24'
p12
sS'AKT'
p13
S's16'
p14
sS'PDK1'
p15
S's14'
p16
sS'PTEN'
p17
S's18'
p18
sS'PP2A'
p19
S's15'
p20
sS'pp-AKT:PI3P'
p21
S's27'
p22
sS'Time'
p23
S's23'
p24
sS'p-PI3K'
p25
S's20'
p26
sS'AKT:PI3P'
p27
S's28'
p28
sS'PI3P'
p29
S's17'
p30
sS'Shear Stress'
p31
S's119'
p32
s.