(dp0
S'A'
p1
g1
sS'NANOG_Gene'
p2
S'NANOG_Gene'
p3
sS'CDX2'
p4
S'CDX2'
p5
sS'NANOG'
p6
S'NANOG'
p7
sS'GCNF'
p8
S'GCNF'
p9
sS'targetGene'
p10
S'targetGene'
p11
sS'CDX2_Gene'
p12
S'CDX2_Gene'
p13
sS'OCT4'
p14
S'OCT4'
p15
sS'GCNF_Gene'
p16
S'GCNF_Gene'
p17
sS'SOX2_Gene'
p18
S'SOX2_Gene'
p19
sS'degradation'
p20
S'degradation'
p21
sS'OCT4_SOX2'
p22
S'OCT4_SOX2'
p23
sS'GATA6'
p24
S'GATA6'
p25
sS'OCT4_Gene'
p26
S'OCT4_Gene'
p27
sS'SOX2'
p28
S'SOX2'
p29
sS'Protein'
p30
S'Protein'
p31
sS'GATA6_Gene'
p32
S'GATA6_Gene'
p33
sS'p53'
p34
S'p53'
p35
s.