(dp0
S'CGB_Cytosol'
p1
S'CGB_Cytosol'
p2
sS'h_ERM'
p3
S'h_ERM'
p4
sS'CGB_D_Cytosol'
p5
S'CGB_D_Cytosol'
p6
sS'IP3_Cytosol'
p7
S'IP3_Cytosol'
p8
sS'D28k_D_Cytosol'
p9
S'D28k_D_Cytosol'
p10
sS'CG_D_Cytosol'
p11
S'CG_D_Cytosol'
p12
sS'h_D_ERM'
p13
S'h_D_ERM'
p14
sS'Mg_Cytosol'
p15
S'Mg_Cytosol'
p16
sS'Ca_Extracellular'
p17
S'Ca_Extracellular'
p18
sS'ERDensity_ERM'
p19
S'ERDensity_ERM'
p20
sS'D28kB_Cytosol'
p21
S'D28kB_Cytosol'
p22
sS'D28kB_high_Cytosol'
p23
S'D28kB_high_Cytosol'
p24
sS'Ca_D_ER'
p25
S'Ca_D_ER'
p26
sS'Mg_D_Cytosol'
p27
S'Mg_D_Cytosol'
p28
sS'PA_D_Cytosol'
p29
S'PA_D_Cytosol'
p30
sS'D28k_Cytosol'
p31
S'D28k_Cytosol'
p32
sS'D28kB_D_Cytosol'
p33
S'D28kB_D_Cytosol'
p34
sS'Ca_Cytosol'
p35
S'Ca_Cytosol'
p36
sS'Ca_ER'
p37
S'Ca_ER'
p38
sS'PA_Cytosol'
p39
S'PA_Cytosol'
p40
sS'D28k_high_D_Cytosol'
p41
S'D28k_high_D_Cytosol'
p42
sS'ERDensity_D_ERM'
p43
S'ERDensity_D_ERM'
p44
sS'Ca_D_Cytosol'
p45
S'Ca_D_Cytosol'
p46
sS'PABCa_Cytosol'
p47
S'PABCa_Cytosol'
p48
sS'IP3_D_Cytosol'
p49
S'IP3_D_Cytosol'
p50
sS'PABMg_D_Cytosol'
p51
S'PABMg_D_Cytosol'
p52
sS'PABMg_Cytosol'
p53
S'PABMg_Cytosol'
p54
sS'Ca_D_Extracellular'
p55
S'Ca_D_Extracellular'
p56
sS'CG_Cytosol'
p57
S'CG_Cytosol'
p58
sS'D28kB_high_D_Cytosol'
p59
S'D28kB_high_D_Cytosol'
p60
sS'PABCa_D_Cytosol'
p61
S'PABCa_D_Cytosol'
p62
sS'D28k_high_Cytosol'
p63
S'D28k_high_Cytosol'
p64
s.