(dp0
S'EtOH'
p1
S'EtOH'
p2
sS'ACA'
p3
S'ACA'
p4
sS'FBP'
p5
S'FBP'
p6
sS'NAD'
p7
S'NAD'
p8
sS'ADP'
p9
S'ADP'
p10
sS'PYR'
p11
S'PYR'
p12
sS'GLC'
p13
S'GLC'
p14
sS'PEP'
p15
S'PEP'
p16
sS'GAP'
p17
S'GAP'
p18
sS'DPG'
p19
S'DPG'
p20
sS'P'
p21
g21
sS'NADH'
p22
S'NADH'
p23
sS'ATP'
p24
S'ATP'
p25
sS'AMP'
p26
S'AMP'
p27
sS'F6P'
p28
S'F6P'
p29
s.