(dp0
S'M-phasePromotingFactor'
p1
S'MPF'
p2
sS'BoundIntermediaryEnzyme'
p3
S'IEB'
p4
sS'Cdc13_P-Cdc2_Rum1'
p5
S'PG2R'
p6
sS'S-phasePromotingFactor'
p7
S'SPF'
p8
sS'TotalRum1'
p9
S'Rum1Total'
p10
sS'TotalCdc13'
p11
S'Cdc13Total'
p12
sS'Cdc13_Cdc2'
p13
S'G2K'
p14
sS'Cig2_Cdc2'
p15
S'G1K'
p16
sS'IntermediaryEnzyme'
p17
S'IE'
p18
sS'FreeRum1'
p19
S'R'
p20
sS'BoundCdc25'
p21
S'Cdc25B'
p22
sS'ubiquitinProtease2'
p23
S'UbE2'
p24
sS'ubiquitinProtease1'
p25
S'UbE'
p26
sS'TotalCig2'
p27
S'Cig2Total'
p28
sS'Cdc13_P-Cdc2'
p29
S'PG2'
p30
sS'Cdc13_Cdc2_Rum1'
p31
S'G2R'
p32
sS'Cig2_Cdc2_Rum1'
p33
S'G1R'
p34
sS'BoundUbiquitinProtease2'
p35
S'UbE2B'
p36
sS'Cdc25'
p37
S'Cdc25'
p38
sS'BoundUbiquitinProtease1'
p39
S'UbEB'
p40
sS'BoundWee1'
p41
S'Wee1B'
p42
sS'Wee1'
p43
S'Wee1'
p44
s.