(dp0
S'A20'
p1
S's128'
p2
sS'sa97_degraded'
p3
S's154'
p4
sS'IKKn'
p5
S's133'
p6
sS'IkB_alpha'
p7
S's167'
p8
sS'sa96_degraded'
p9
S's153'
p10
sS'mRNAIKBA'
p11
S's125'
p12
sS'sa20_degraded'
p13
S's134'
p14
sS'NFkB'
p15
S's164'
p16
sS'IKKi'
p17
S's130'
p18
sS'NFkB/Ikb_alpha/IKKa'
p19
S's152'
p20
sS'mRNAA20'
p21
S's127'
p22
sS'IKBA'
p23
S's121'
p24
sS'IKKa'
p25
S's132'
p26
sS'sa19_degraded'
p27
S's131'
p28
sS'IKK'
p29
S's150'
p30
sS'NFkB:IkB_alpha'
p31
S's135'
p32
sS'sa12_degraded'
p33
S's124'
p34
sS'sa13_degraded'
p35
S's122'
p36
sS'IKKa/IKBa'
p37
S's139'
p38
sS'sa444_degraded'
p39
S's129'
p40
sS'NFkB/IkB_alpha'
p41
S's159'
p42
s.