(dp0
S'STUS'
p1
S'STUS'
p2
sS'SUSTU'
p3
S'SUSTU'
p4
sS'SUST'
p5
S'SUST'
p6
sS'SU'
p7
S'SU'
p8
sS'ST'
p9
S'ST'
p10
sS'STU'
p11
S'STU'
p12
sS'S'
p13
g13
sS'U'
p14
g14
sS'T'
p15
g15
sS'STUST'
p16
S'STUST'
p17
sS'STUSU'
p18
S'STUSU'
p19
s.