(dp0
S'NADH'
p1
S'N2'
p2
sS'EtOH_ex'
p3
S'eth_ex'
p4
sS'NAD'
p5
S'N1'
p6
sS'S2'
p7
S'S2'
p8
sS'PPi'
p9
S'PPi'
p10
sS'OAH'
p11
S'oah'
p12
sS'ATP'
p13
S'A3c'
p14
sS'O2'
p15
S'oxy'
p16
sS'PAPS'
p17
S'pap'
p18
sS'CYS'
p19
S'cys'
p20
sS'Ho'
p21
S'Ho'
p22
sS'EtOH'
p23
S'eth'
p24
sS'ADP_mit'
p25
S'A2m'
p26
sS'C2'
p27
S'C2'
p28
sS'C1'
p29
S'C1'
p30
sS'S1'
p31
S'S1'
p32
sS'ADP'
p33
S'A2c'
p34
sS'Hm'
p35
S'Hm'
p36
sS'O2_ex'
p37
S'oxy_ex'
p38
sS'SO4'
p39
S'sul'
p40
sS'AcCoA'
p41
S'aco'
p42
sS'ATP_mit'
p43
S'A3m'
p44
sS'SO4_ex'
p45
S'sul_ex'
p46
sS'APS'
p47
S'aps'
p48
sS'H2S'
p49
S'hyd'
p50
sS'H2O'
p51
S'H2O'
p52
s.