(dp0
S'BIR12-SMAC'
p1
S'BIR12_SMAC'
p2
sS'XIAP'
p3
S'XIAP'
p4
sS'Casp9(p35-p12)'
p5
S'C9'
p6
sS'BIR3R-SMAC'
p7
S'BIR3R_SMAC'
p8
sS'Casp9(p35-p10)'
p9
S'C9P'
p10
sS'Casp3 Substrate'
p11
S'Substrate'
p12
sS'XIAP-p2 fragment'
p13
S'XIAP_p2frag'
p14
sS'BIR12-Casp3'
p15
S'BIR12_C3'
p16
sS'C3'
p17
S'C3'
p18
sS'XIAP-p2frag-2*SMAC'
p19
S'XIAP_p2frag_2SMAC'
p20
sS'BIR3R'
p21
S'BIR3R'
p22
sS'APAF1'
p23
S'APAF1'
p24
sS'cytosolic Cytochrome C'
p25
S'CytC_cell'
p26
sS'Clevage Products'
p27
S'ClvgPrds'
p28
sS'XIAP-2*SMAC'
p29
S'XIAP_2SMAC'
p30
sS'Cytochrome C in mitochondrium'
p31
S'CytC_mit'
p32
sS'SMAC'
p33
S'SMAC'
p34
sS'BIR3R-p2frag'
p35
S'BIR3R_p2frag'
p36
sS'XIAP-Casp9-Casp3'
p37
S'XIAP_C9_C3'
p38
sS'XIAP-Casp9'
p39
S'XIAP_C9'
p40
sS'ProCasp3'
p41
S'PC3'
p42
sS'SMAC in mitochondrium'
p43
S'SMAC_mito'
p44
sS'ProCasp9'
p45
S'PC9'
p46
sS'XIAP-Casp3'
p47
S'XIAP_C3'
p48
sS'XIAP-p2frag-Casp3'
p49
S'XIAP_p2frag_C3'
p50
sS'BIR12'
p51
S'BIR12'
p52
sS'BIR3R-Casp9'
p53
S'BIR3R_C9'
p54
s.