(dp0
S'D34:137_CDK5'
p1
S'D34_137_CDK5'
p2
sS'cAMP2_R2C2'
p3
S'cAMP2_R2C2'
p4
sS'D34_CK1'
p5
S'D34_CK1'
p6
sS'cAMP4_R2'
p7
S'cAMP4_R2'
p8
sS'D75'
p9
S'D75'
p10
sS'D34'
p11
S'D34'
p12
sS'cAMP'
p13
S'cAMP'
p14
sS'cAMP_PDEP'
p15
S'cAMP_PDEP'
p16
sS'cAMP_PDE'
p17
S'cAMP_PDE'
p18
sS'D34:75:137_PP2B'
p19
S'D34_75_137_PP2B'
p20
sS'D34:75:137_PP2C'
p21
S'D34_75_137_PP2C'
p22
sS'D34:75:137_PP2A'
p23
S'D34_75_137_PP2A'
p24
sS'D_PKA'
p25
S'D_PKA'
p26
sS'D75:137_PP2C'
p27
S'D75_137_PP2C'
p28
sS'D75:137_PP2A'
p29
S'D75_137_PP2A'
p30
sS'D75_CK1'
p31
S'D75CK1'
p32
sS'PP2A_PKA'
p33
S'PP2A_PKA'
p34
sS'Empty'
p35
S'Empty'
p36
sS'PDEP'
p37
S'PDEP'
p38
sS'PP2AP'
p39
S'PP2AP'
p40
sS'cAMP4_R2C'
p41
S'cAMP4_R2C'
p42
sS'R2C2'
p43
S'R2C2'
p44
sS'PDE_PKA'
p45
S'PDE_PKA'
p46
sS'D_CDK5'
p47
S'D_CDK5'
p48
sS'D34_CDK5'
p49
S'D34_CDK5'
p50
sS'D75:137_PP2APCa'
p51
S'D75_137_PP2APCa'
p52
sS'D34:75_PP2APCa'
p53
S'D34_75_PP2APCa'
p54
sS'D34_PP2B'
p55
S'D34_PP2B'
p56
sS'PP2C'
p57
S'PP2C'
p58
sS'D137_PP2C'
p59
S'D137_PP2C'
p60
sS'PP2A'
p61
S'PP2A'
p62
sS'CK1'
p63
S'CK1'
p64
sS'D34:75_PP2ACa'
p65
S'D34_75_PP2ACa'
p66
sS'cAMP3_R2C2'
p67
S'cAMP3_R2C2'
p68
sS'D34:137'
p69
S'D34_137'
p70
sS'PP2Binactive'
p71
S'PP2Binactive'
p72
sS'D'
p73
g73
sS'D137_PKA'
p74
S'D137_PKA'
p75
sS'D34:75_CK1'
p76
S'D34_75_CK1'
p77
sS'D75_PP2ACa'
p78
S'D75_PP2ACa'
p79
sS'D75_PP2APCa'
p80
S'D75_PP2APCa'
p81
sS'D75:137_PP2AP'
p82
S'D75_137_PP2AP'
p83
sS'D34:75'
p84
S'D34_75'
p85
sS'D75_PP2A'
p86
S'D75_PP2A'
p87
sS'D75_PP2AP'
p88
S'D75_PP2AP'
p89
sS'D34:137_PP2C'
p90
S'D34_137_PP2C'
p91
sS'D34:137_PP2B'
p92
S'D34_137_PP2B'
p93
sS'PKA'
p94
S'PKA'
p95
sS'D75_PKA'
p96
S'D75_PKA'
p97
sS'cAMP4_R2C2'
p98
S'cAMP4_R2C2'
p99
sS'PDE'
p100
S'PDE'
p101
sS'D_CK1'
p102
S'D_CK1'
p103
sS'D34:75:137_PP2APCa'
p104
S'D34_75_137_PP2APCa'
p105
sS'cAMP_R2C2'
p106
S'cAMP_R2C2'
p107
sS'PP2APCa'
p108
S'PP2APCa'
p109
sS'AMP'
p110
S'AMP'
p111
sS'Ca'
p112
S'Ca'
p113
sS'D34:75:137_PP2ACa'
p114
S'D34_75_137_PP2ACa'
p115
sS'D34:75_PP2AP'
p116
S'D34_75_PP2AP'
p117
sS'D75:137'
p118
S'D75_137'
p119
sS'D34:75_PP2A'
p120
S'D34_75_PP2A'
p121
sS'CK1P'
p122
S'CK1P'
p123
sS'D34:75:137'
p124
S'D34_75_137'
p125
sS'D34:75_PP2B'
p126
S'D34_75_PP2B'
p127
sS'PP2B'
p128
S'PP2B'
p129
sS'CDK5'
p130
S'CDK5'
p131
sS'PP2ACa_PKA'
p132
S'PP2ACa_PKA'
p133
sS'D75:137_PKA'
p134
S'D75_137_PKA'
p135
sS'D75:137_PP2ACa'
p136
S'D75_137_PP2ACa'
p137
sS'D34:75:137_PP2AP'
p138
S'D34_75_137_PP2AP'
p139
sS'D137'
p140
S'D137'
p141
sS'PP2BinactiveCa2'
p142
S'PP2BinactiveCa2'
p143
sS'CK1P_PP2B'
p144
S'CK1P_PP2B'
p145
sS'D137_CDK5'
p146
S'D137_CDK5'
p147
sS'PP2ACa'
p148
S'PP2ACa'
p149
s.