(dp0
S'NADH'
p1
S'NADH'
p2
sS'ATP'
p3
S'ATP'
p4
sS'ADP'
p5
S'ADP'
p6
sS'pyruvate'
p7
S'Pyr'
p8
sS'oxygen'
p9
S'O2'
p10
sS'water'
p11
S'H2O'
p12
sS'H+'
p13
S'He'
p14
sS'phosphate'
p15
S'iP'
p16
sS'NAD(+)'
p17
S'NAD'
p18
sS'acetyl-CoA'
p19
S'AcCoA'
p20
sS'alpha-ketoglutarate'
p21
S'KG'
p22
sS'citrate'
p23
S'Cit'
p24
sS'oxaloacetate'
p25
S'OAA'
p26
s.