(dp0
S'cAMP_Pde1f'
p1
S'cAMP_Pde1f'
p2
sS'Ras2_GTP'
p3
S'Ras2_GTP'
p4
sS'cAMP'
p5
S'cAMP'
p6
sS'C'
p7
g7
sS'PPA2'
p8
S'PPA2'
p9
sS'ATP'
p10
S'ATP'
p11
sS'IVcAMP_PKA'
p12
S'IVcAMP_PKA'
p13
sS'IIIcAMP_PKA'
p14
S'IIIcAMP_PKA'
p15
sS'Ira2P'
p16
S'Ira2P'
p17
sS'Ras2_GTP_CYR1'
p18
S'Ras2_GTP_CYR1'
p19
sS'cAMP_Pde2'
p20
S'cAMP_Pde2'
p21
sS'PKA'
p22
S'PKA'
p23
sS'AMP'
p24
S'AMP'
p25
sS'Ras2_GTP_Cdc25'
p26
S'Ras2_GTP_Cdc25'
p27
sS'Ras2_GTP_Ira2P'
p28
S'Ras2_GTP_Ira2P'
p29
sS'cAMP_PKA'
p30
S'cAMP_PKA'
p31
sS'Ras2_Cdc25'
p32
S'Ras2_Cdc25'
p33
sS'Pde1f'
p34
S'Pde1f'
p35
sS'GTP'
p36
S'GTP'
p37
sS'R'
p38
g38
sS'Ras2_GDP'
p39
S'Ras2_GDP'
p40
sS'GDP'
p41
S'GDP'
p42
sS'Cdc25'
p43
S'Cdc25'
p44
sS'Ras2_GTP_Ira2'
p45
S'Ras2_GTP_Ira2'
p46
sS'Cdc25f'
p47
S'Cdc25f'
p48
sS'Pde2'
p49
S'Pde2'
p50
sS'CYR1'
p51
S'CYR1'
p52
sS'R_2cAMP'
p53
S'R_2cAMP'
p54
sS'Ira2'
p55
S'Ira2'
p56
sS'IIcAMP_PKA'
p57
S'IIcAMP_PKA'
p58
sS'R_C'
p59
S'R_C'
p60
sS'Ras2_GDP_Cdc25'
p61
S'Ras2_GDP_Cdc25'
p62
sS'Pde1'
p63
S'Pde1'
p64
s.