(dp0
S'Acetyl-CoA synthase'
p1
S'Acs'
p2
sS'Acetyl-CoA'
p3
S'AcCoA'
p4
sS'Acetyl phosphate'
p5
S'AcP'
p6
sS'protonated acetate'
p7
S'HOAc'
p8
sS'Phosphate acetyl transferase'
p9
S'Pta'
p10
sS'Acetate'
p11
S'OAc'
p12
sS'acetate export'
p13
S'HOAc_E'
p14
sS'lac repressor'
p15
S'LacI'
p16
s.