(dp0
S'Hsf1'
p1
S'Hsf1'
p2
sS'HSEHsp70_Hsf1_Hsf1_Hsf1_P'
p3
S'HSEHsp70_Hsf1_Hsf1_Hsf1_P'
p4
sS'HSEHsp90'
p5
S'HSEHsp90'
p6
sS'Akt_CHIP_Hsp90'
p7
S'Akt_CHIP_Hsp90'
p8
sS'Hsp70_MisP'
p9
S'Hsp70_MisP'
p10
sS'Akt_Proteasome'
p11
S'Akt_Proteasome'
p12
sS'Mkp1'
p13
S'Mkp1'
p14
sS'CHIP'
p15
S'CHIP'
p16
sS'Hsp90'
p17
S'Hsp90'
p18
sS'Hsp90_MisP'
p19
S'Hsp90_MisP'
p20
sS'Hsp70_Ppx'
p21
S'Hsp70_Ppx'
p22
sS'Hsp90_dam'
p23
S'Hsp90_dam'
p24
sS'ATP'
p25
S'ATP'
p26
sS'Hsp70'
p27
S'Hsp70'
p28
sS'Mkp1_Proteasome'
p29
S'Mkp1_Proteasome'
p30
sS'PIDeath'
p31
S'PIDeath'
p32
sS'Jnk_P'
p33
S'Jnk_P'
p34
sS'Hsp90_Proteasome'
p35
S'Hsp90_Proteasome'
p36
sS'Hsf1_Hsp90'
p37
S'Hsf1_Hsp90'
p38
sS'ADP'
p39
S'ADP'
p40
sS'AggP_Proteasome'
p41
S'AggP_Proteasome'
p42
sS'Proteasome'
p43
S'Proteasome'
p44
sS'HSEHsp70'
p45
S'HSEHsp70'
p46
sS'NatP'
p47
S'NatP'
p48
sS'MisP_Proteasome'
p49
S'MisP_Proteasome'
p50
sS'Sink'
p51
S'Sink'
p52
sS'Hsp90_Hsp90Client'
p53
S'Hsp90_Hsp90Client'
p54
sS'HSEHsp90_Hsf1_Hsf1_Hsf1'
p55
S'HSEHsp90_Hsf1_Hsf1_Hsf1'
p56
sS'Hsp70Client'
p57
S'Hsp70Client'
p58
sS'ROS'
p59
S'ROS'
p60
sS'Hsf1_Hsf1_Hsf1'
p61
S'Hsf1_Hsf1_Hsf1'
p62
sS'Hsp70_Proteasome'
p63
S'Hsp70_Proteasome'
p64
sS'Hsp70_Hsp70Client'
p65
S'Hsp70_Hsp70Client'
p66
sS'Akt_Hsp90'
p67
S'Akt_Hsp90'
p68
sS'Akt'
p69
S'Akt'
p70
sS'p38'
p71
S'p38'
p72
sS'CellDeath'
p73
S'CellDeath'
p74
sS'Hsp90Client'
p75
S'Hsp90Client'
p76
sS'Hsf1_Hsf1_Hsf1_P'
p77
S'Hsf1_Hsf1_Hsf1_P'
p78
sS'HSEHsp70_Hsf1_Hsf1_Hsf1'
p79
S'HSEHsp70_Hsf1_Hsf1_Hsf1'
p80
sS'MisP'
p81
S'MisP'
p82
sS'p38_P'
p83
S'p38_P'
p84
sS'Source'
p85
S'Source'
p86
sS'Hsf1_Hsf1'
p87
S'Hsf1_Hsf1'
p88
sS'JNKDeath'
p89
S'JNKDeath'
p90
sS'p38Death'
p91
S'p38Death'
p92
sS'Hsp70_dam'
p93
S'Hsp70_dam'
p94
sS'Pkc'
p95
S'Pkc'
p96
sS'AggP'
p97
S'AggP'
p98
sS'SeqAggP'
p99
S'SeqAggP'
p100
sS'Jnk'
p101
S'Jnk'
p102
sS'Ppx'
p103
S'Ppx'
p104
sS'Mkp1_P'
p105
S'Mkp1_P'
p106
sS'HSEHsp90_Hsf1_Hsf1_Hsf1_P'
p107
S'HSEHsp90_Hsf1_Hsf1_Hsf1_P'
p108
s.