(dp0
S'ClosedState_3'
p1
S'c3'
p2
sS'ClosedState_2'
p3
S'c2'
p4
sS'ClosedState_1'
p5
S'c1'
p6
sS'InactivationState'
p7
S'i'
p8
sS'OpenState'
p9
S'o'
p10
sS'cardiac delayed rectifier current'
p11
S'ik'
p12
s.