(dp0
S'Fru_e'
p1
S'Fru_e'
p2
sS'_2PGA_c'
p3
S'_2PGA_c'
p4
sS'Fru_g'
p5
S'Fru_g'
p6
sS'ATP_c'
p7
S'ATP_c'
p8
sS'DHAP_c'
p9
S'DHAP_c'
p10
sS'ATP_g'
p11
S'ATP_g'
p12
sS'DHAP_g'
p13
S'DHAP_g'
p14
sS'ADP_g'
p15
S'ADP_g'
p16
sS'Glc6P_g'
p17
S'Glc6P_g'
p18
sS'ADP_c'
p19
S'ADP_c'
p20
sS'_3PGA_c'
p21
S'_3PGA_c'
p22
sS'Fru6P_g'
p23
S'Fru6P_g'
p24
sS'Fru6P_c'
p25
S'Fru6P_c'
p26
sS'Pi_g'
p27
S'Pi_g'
p28
sS'O2_c'
p29
S'O2_c'
p30
sS'NADP_c'
p31
S'NADP_c'
p32
sS'Fru_c'
p33
S'Fru_c'
p34
sS'NADP_g'
p35
S'NADP_g'
p36
sS'_6PG_g'
p37
S'_6PG_g'
p38
sS'Rul5P_c'
p39
S'Rul5P_c'
p40
sS'_6PG_c'
p41
S'_6PG_c'
p42
sS'Rul5P_g'
p43
S'Rul5P_g'
p44
sS'Glc6P_c'
p45
S'Glc6P_c'
p46
sS'Rib5P_c'
p47
S'Rib5P_c'
p48
sS'_13BPGA_g'
p49
S'_13BPGA_g'
p50
sS'Glc_c'
p51
S'Glc_c'
p52
sS'Rib5P_g'
p53
S'Rib5P_g'
p54
sS'Glc_g'
p55
S'Glc_g'
p56
sS'Glc_e'
p57
S'Glc_e'
p58
sS'NADPH_g'
p59
S'NADPH_g'
p60
sS'NADPH_c'
p61
S'NADPH_c'
p62
sS'Pyr_c'
p63
S'Pyr_c'
p64
sS'Pyr_e'
p65
S'Pyr_e'
p66
sS'NAD_g'
p67
S'NAD_g'
p68
sS'Fru16BP_g'
p69
S'Fru16BP_g'
p70
sS'GA3P_g'
p71
S'GA3P_g'
p72
sS'Gly_e'
p73
S'Gly_e'
p74
sS'CO2_c'
p75
S'CO2_c'
p76
sS'TSH2_c'
p77
S'TSH2_c'
p78
sS'CO2_g'
p79
S'CO2_g'
p80
sS'Gly3P_c'
p81
S'Gly3P_c'
p82
sS'Gly3P_g'
p83
S'Gly3P_g'
p84
sS'_6PGL_c'
p85
S'_6PGL_c'
p86
sS'TS2_c'
p87
S'TS2_c'
p88
sS'_6PGL_g'
p89
S'_6PGL_g'
p90
sS'PEP_c'
p91
S'PEP_c'
p92
sS'AMP_g'
p93
S'AMP_g'
p94
sS'_3PGA_g'
p95
S'_3PGA_g'
p96
sS'AMP_c'
p97
S'AMP_c'
p98
sS'NADH_g'
p99
S'NADH_g'
p100
s.