(dp0
S'RanGAP_Cytosol'
p1
S'RanGAP_Cytosol'
p2
sS'RanGDP_Cytosol'
p3
S'RanGDP_Cytosol'
p4
sS'NTF2_Cytosol'
p5
S'NTF2_Cytosol'
p6
sS'RanBP1_Cytosol'
p7
S'RanBP1_Cytosol'
p8
sS'FRanGTP_Nucleus'
p9
S'FRanGTP_Nucleus'
p10
sS'Carrier_Nucleus'
p11
S'Carrier_Nucleus'
p12
sS'FRanGDP_Cytosol'
p13
S'FRanGDP_Cytosol'
p14
sS'Carrier_RanGTP_Nucleus'
p15
S'Carrier_RanGTP_Nucleus'
p16
sS'RanGDP_Nucleus'
p17
S'RanGDP_Nucleus'
p18
sS'RanBP1_Carrier_RanGTP_Cytosol'
p19
S'RanBP1_Carrier_RanGTP_Cytosol'
p20
sS'FCarrier_RanGTP_Nucleus'
p21
S'FCarrier_RanGTP_Nucleus'
p22
sS'Carrier_RanGTP_Cytosol'
p23
S'Carrier_RanGTP_Cytosol'
p24
sS'RCC1_Nucleus'
p25
S'RCC1_Nucleus'
p26
sS'FNTF2_RanGDP_Cytosol'
p27
S'FNTF2_RanGDP_Cytosol'
p28
sS'Carrier_Cytosol'
p29
S'Carrier_Cytosol'
p30
sS'NTF2_RanGDP_Nucleus'
p31
S'NTF2_RanGDP_Nucleus'
p32
sS'FRanGDP_Nucleus'
p33
S'FRanGDP_Nucleus'
p34
sS'FRanBP1_Carrier_RanGTP_Cytosol'
p35
S'FRanBP1_Carrier_RanGTP_Cytosol'
p36
sS'FRanGTP_Cytosol'
p37
S'FRanGTP_Cytosol'
p38
sS'RanGTP_Nucleus'
p39
S'RanGTP_Nucleus'
p40
sS'FNTF2_RanGDP_Nucleus'
p41
S'FNTF2_RanGDP_Nucleus'
p42
sS'NTF2_Nucleus'
p43
S'NTF2_Nucleus'
p44
sS'FCarrier_RanGTP_Cytosol'
p45
S'FCarrier_RanGTP_Cytosol'
p46
sS'Pipet_Cytosol'
p47
S'Pipet_Cytosol'
p48
sS'NTF2_RanGDP_Cytosol'
p49
S'NTF2_RanGDP_Cytosol'
p50
sS'RanGTP_Cytosol'
p51
S'RanGTP_Cytosol'
p52
s.