(dp0
S'Dusp6 protein'
p1
S'Dusp'
p2
sS'nuclear beta-catenin'
p3
S'BN'
p4
sS'active Ras'
p5
S'Rasa'
p6
sS'Lunatic fringe mRNA'
p7
S'MF'
p8
sS'nuclear NicD'
p9
S'Nan'
p10
sS'Dusp6 mRNA'
p11
S'MDusp'
p12
sS'beta-catenin'
p13
S'B'
p14
sS'inactive Ras'
p15
S'Rasi'
p16
sS'Lunatic Fringe protein'
p17
S'F'
p18
sS'inactive TF X'
p19
S'Xi'
p20
sS'Dsh protein'
p21
S'D'
p22
sS'Axin2 protein'
p23
S'A'
p24
sS'ERK total'
p25
S'ERKt'
p26
sS'Axin2 mRNA'
p27
S'MAx'
p28
sS'Fgf'
p29
S'Fgf'
p30
sS'phosph. beta-catenin'
p31
S'Bp'
p32
sS'Notch protein'
p33
S'N'
p34
sS'Ras total'
p35
S'Rast'
p36
sS'cytosolic NicD'
p37
S'Na'
p38
sS'Kt'
p39
S'Kt'
p40
sS'active TF X'
p41
S'Xa'
p42
sS'Axin2/Gsk3 destruction complex'
p43
S'AK'
p44
sS'X total'
p45
S'Xt'
p46
sS'inactive ERK'
p47
S'ERKi'
p48
sS'active ERK'
p49
S'ERKa'
p50
sS'Gsk3'
p51
S'K'
p52
s.