(dp0
S'Ru5P'
p1
S'Ru5P'
p2
sS'RuBisCo'
p3
S'E_RuBisCO'
p4
sS'TPc'
p5
S'TPc'
p6
sS'ADP'
p7
S'ADP'
p8
sS'PGA'
p9
S'PGA'
p10
sS'Pic'
p11
S'Pic'
p12
sS'TP'
p13
S'TP'
p14
sS'totRuBP'
p15
S'totRuBP'
p16
sS'RuBP'
p17
S'RuBP'
p18
sS'ATP'
p19
S'ATP'
p20
sS'Pi'
p21
S'Pi'
p22
s.