(dp0
S'P_ii'
p1
S'P_ii'
p2
sS'ADPi'
p3
S'ADPi'
p4
sS'ADP'
p5
S'ADP'
p6
sS'P_i'
p7
S'P_i'
p8
sS'PCr'
p9
S'PCr'
p10
sS'PCri'
p11
S'PCri'
p12
sS'ATPi'
p13
S'ATPi'
p14
sS'ATP'
p15
S'ATP'
p16
sS'Cr'
p17
S'Cr'
p18
sS'Cri'
p19
S'Cri'
p20
s.