(dp0
S'LasR'
p1
S's19'
p2
sS'sa3_degraded'
p3
S's3'
p4
sS'pLuxR'
p5
S's16'
p6
sS'GFP'
p7
S's45'
p8
sS'sa6_degraded'
p9
S's5'
p10
sS'Ptet-LasR'
p11
S's1'
p12
sS'mRNA(LasR)'
p13
S's2'
p14
sS'3OC12HSL'
p15
S's4'
p16
sS'LasR/AHL'
p17
S's42'
p18
sS'A pLux'
p19
S's17'
p20
s.