(dp0
S'Ag'
p1
S'Ag'
p2
sS'Rec_Prot'
p3
S'Rec_Prot'
p4
sS'Tbet_Prot'
p5
S'Tbet_Prot'
p6
sS'Rec_mRNA'
p7
S'Rec_mRNA'
p8
sS'Ifn_mRNA'
p9
S'Ifn_mRNA'
p10
sS'Ifn_Prot'
p11
S'Ifn_Prot'
p12
sS'Tbet_mRNA'
p13
S'Tbet_mRNA'
p14
s.