(dp0
S'Raf'
p1
S'Raf'
p2
sS'RasGapActive'
p3
S'RasGapActive'
p4
sS'D_SOS'
p5
S'D_SOS'
p6
sS'Mek'
p7
S'Mek'
p8
sS'ERK_active'
p9
S'ERK_active'
p10
sS'Mek_active'
p11
S'Mek_active'
p12
sS'PI3KCA_active'
p13
S'PI3KCA_active'
p14
sS'EGFR_active'
p15
S'EGFR_active'
p16
sS'AKT'
p17
S'AKT'
p18
sS'P90Rsk_Active'
p19
S'P90Rsk_Active'
p20
sS'IGFR_active'
p21
S'IGFR_active'
p22
sS'PP2A'
p23
S'PP2A'
p24
sS'Ras'
p25
S'Ras'
p26
sS'Raf_active'
p27
S'Raf_active'
p28
sS'PI3KCA'
p29
S'PI3KCA'
p30
sS'A_SOS'
p31
S'A_SOS'
p32
sS'Ras_active'
p33
S'Ras_active'
p34
sS'AKT_active'
p35
S'AKT_active'
p36
sS'P90RskInactive'
p37
S'P90RskInactive'
p38
sS'RafPP'
p39
S'RafPP'
p40
sS'ERK'
p41
S'ERK'
p42
s.