(dp0
S'Smad4_Smad2_n'
p1
S'species_19'
p2
sS'Smad4_Smad3_n'
p3
S'species_27'
p4
sS'pSmad2_n'
p5
S'_19'
p6
sS'pSmad3_Smad4_n'
p7
S'species_18'
p8
sS'TGFbeta_TGF_RII'
p9
S'_79'
p10
sS'pSmad2_Smad4_SnoN_n'
p11
S'_13'
p12
sS'Smad2_SARA'
p13
S'_105'
p14
sS'Ski_c'
p15
S'species_7'
p16
sS'pSmad2_c'
p17
S'_129'
p18
sS'pSmad2_Smad4_Ski_n'
p19
S'species_11'
p20
sS'Smad4_SnoN_n'
p21
S'species_16'
p22
sS'Smad4_c'
p23
S'_147'
p24
sS'Ski_n'
p25
S'species_22'
p26
sS'SnoN_c'
p27
S'species_2'
p28
sS'Smad2_n'
p29
S'_21'
p30
sS'Smad2_Ski_c'
p31
S'species_12'
p32
sS'pSmad3_n'
p33
S'species_20'
p34
sS'Smad7_Smurf2_n'
p35
S'_27'
p36
sS'geneProduct'
p37
S'species_30'
p38
sS'pSmad3_c'
p39
S'species_4'
p40
sS'TGF_RII'
p41
S'_75'
p42
sS'TGF_RI'
p43
S'_84'
p44
sS'pSmad2_SnoN_n'
p45
S'species_13'
p46
sS'pSmad3_Smad4_SnoN_n'
p47
S'species_21'
p48
sS'Smad2_c'
p49
S'_99'
p50
sS'Smad4_n'
p51
S'_5'
p52
sS'pSmad2_Smad4_n'
p53
S'_9'
p54
sS'SnoN_n'
p55
S'_11'
p56
sS'Smad3_c'
p57
S'species_3'
p58
sS'Smad7_Smurf2_c'
p59
S'_181'
p60
sS'Smad3_n'
p61
S'species_17'
p62
sS'pSmad2_Smad4_c'
p63
S'_153'
p64
sS'Smad7_n'
p65
S'_25'
p66
sS'pSmad3_SnoN_n'
p67
S'species_14'
p68
sS'pSmad3_Smad4_c'
p69
S'species_6'
p70
sS'Smad7_c'
p71
S'_174'
p72
sS'Rec_Smad7'
p73
S'_198'
p74
sS'Smurf1_n'
p75
S'species_24'
p76
sS'Smad4_Ski_n'
p77
S'species_23'
p78
sS'Rec_active'
p79
S'_96'
p80
sS'Smad7_Smurf1_c'
p81
S'species_10'
p82
sS'Smad3_SARA'
p83
S'species_5'
p84
sS'Smad7_Smurf1_n'
p85
S'species_25'
p86
sS'SARA'
p87
S'_101'
p88
sS'Smurf1_c'
p89
S'species_9'
p90
sS'Smad3_Ski_c'
p91
S'species_8'
p92
sS'pSmad3_Smad4_Ski_n'
p93
S'species_26'
p94
sS'Arkadia_c'
p95
S'species_15'
p96
sS'freePromoters'
p97
S'species_28'
p98
sS'Smurf2_n'
p99
S'_15'
p100
sS'Smurf2_c'
p101
S'species_1'
p102
sS'inactivePromoters'
p103
S'species_29'
p104
sS'Arkadia_n'
p105
S'species_31'
p106
s.