(dp0
S'miRNA_1'
p1
S'species_2'
p2
sS'duplex_2'
p3
S'species_5'
p4
sS'duplex_1'
p5
S'species_4'
p6
sS'miRNA_2'
p7
S'species_3'
p8
sS'TF_miRNA_2'
p9
S'species_9'
p10
sS'TF_miRNA_1'
p11
S'species_8'
p12
sS'triplex'
p13
S'species_6'
p14
sS'mRNA'
p15
S'species_1'
p16
sS'TF_mRNA'
p17
S'species_7'
p18
sS'protein'
p19
S'species_10'
p20
s.