(dp0
S'(EGF_EGFR)2'
p1
S'R2'
p2
sS'Shc-P'
p3
S'ShP'
p4
sS'(EGF_EGFR)2_Shc_Grb2'
p5
S'RShG'
p6
sS'EGFR'
p7
S'R'
p8
sS'(EGF_EGFR)2-P'
p9
S'RP'
p10
sS'(EGF_EGFR)2_PLCg'
p11
S'RPLCg'
p12
sS'(EGF_EGFR)2_PLCg-P'
p13
S'RPLCgP'
p14
sS'Epidermal_Growth_Factor'
p15
S'EGF'
p16
sS'(EGF_EGFR)2_Grb2_SOS'
p17
S'RGS'
p18
sS'Shc_Grb2'
p19
S'ShG'
p20
sS'SOS'
p21
S'SOS'
p22
sS'Grb2_SOS'
p23
S'GS'
p24
sS'EGF_EGFR'
p25
S'Ra'
p26
sS'PLCgP-I'
p27
S'PLCgl'
p28
sS'PLCg'
p29
S'PLCg'
p30
sS'(EGF_EGFR)_Shc-P'
p31
S'RShP'
p32
sS'Shc'
p33
S'Shc'
p34
sS'PLCg-P'
p35
S'PLCgP'
p36
sS'(EGF_EGFR)2_Shc_Grb2_SOS'
p37
S'RShGS'
p38
sS'Grb2'
p39
S'Grb'
p40
sS'Shc_Grb2_SOS'
p41
S'ShGS'
p42
sS'(EGF_EGFR)2_Shc'
p43
S'RSh'
p44
sS'(EGF_EGFR)2_Grb2'
p45
S'RG'
p46
s.