(dp0
S'Tim_cyt'
p1
S'Timc'
p2
sS'Per_mRNA'
p3
S'Perm'
p4
sS'Clk-Cyc_nuc'
p5
S'CCn'
p6
sS'Clk_mRNA'
p7
S'Clkm'
p8
sS'Cyc_cyt'
p9
S'species_0000012'
p10
sS'Clk-Cyc_cyt'
p11
S'CCc'
p12
sS'Tim_mRNA'
p13
S'Timm'
p14
sS'EmptySet'
p15
S'EmptySet'
p16
sS'Clk_cyt'
p17
S'Clkc'
p18
sS'Per-Tim_cyt'
p19
S'PTc'
p20
sS'Per-Tim_nuc'
p21
S'PTn'
p22
sS'Per_cyt'
p23
S'Perc'
p24
sS'Dbt_cyt'
p25
S'species_0000013'
p26
s.