(dp0
S'IkBbeta_nuc_NFkB_nuc'
p1
S'IkBbeta_nuc_NFkB_nuc'
p2
sS'IkBbeta_NFkB'
p3
S'IkBbeta_NFkB'
p4
sS'IkBbeta_transcript'
p5
S'IkBbeta_transcript'
p6
sS'IkBeps_transcript'
p7
S'IkBeps_transcript'
p8
sS'IKK_IkBalpha_NFkB'
p9
S'IKK_IkBalpha_NFkB'
p10
sS'IkBeps_nuc_NFkB_nuc'
p11
S'IkBeps_nuc_NFkB_nuc'
p12
sS'IKK_IkBbeta_NFkB'
p13
S'IKK_IkBbeta_NFkB'
p14
sS'IKK_IkBalpha'
p15
S'IKK_IkBalpha'
p16
sS'IkBalpha_nuc_NFkB_nuc'
p17
S'IkBalpha_nuc_NFkB_nuc'
p18
sS'IKK'
p19
S'IKK'
p20
sS'NFkB_nuc'
p21
S'NFkB_nuc'
p22
sS'IkBeps_nuc'
p23
S'IkBeps_nuc'
p24
sS'IkBalpha_NFkB'
p25
S'IkBalpha_NFkB'
p26
sS'NFkB'
p27
S'NFkB'
p28
sS'IKK_IkBeps_NFkB'
p29
S'IKK_IkBeps_NFkB'
p30
sS'IkBbeta'
p31
S'IkBbeta'
p32
sS'IkBbeta_nuc'
p33
S'IkBbeta_nuc'
p34
sS'IKK_IkBbeta'
p35
S'IKK_IkBbeta'
p36
sS'IkBeps_NFkB'
p37
S'IkBeps_NFkB'
p38
sS'IkBalpha_nuc'
p39
S'IkBalpha_nuc'
p40
sS'IkBeps'
p41
S'IkBeps'
p42
sS'IkBalpha'
p43
S'IkBalpha'
p44
sS'IkBalpha_transcript'
p45
S'IkBalpha_transcript'
p46
sS'IKK_IkBeps'
p47
S'IKK_IkBeps'
p48
s.