(dp0
S'slp1T'
p1
S'slp1T'
p2
sS'rum1T'
p3
S'rum1T'
p4
sS'IEP'
p5
S'IEP'
p6
sS'M-phase promoting factor'
p7
S'MPF'
p8
sS'SK'
p9
S'SK'
p10
sS'preMPF'
p11
S'preMPF'
p12
sS'Total cdc13'
p13
S'cdc13T'
p14
sS'slp1'
p15
S'slp1'
p16
sS'ste9'
p17
S'ste9'
p18
sS'Cell Mass'
p19
S'M'
p20
s.