(dp0
S'TWA'
p1
S'TWA'
p2
sS'WA'
p3
S'WA'
p4
sS'MYp'
p5
S'MYp'
p6
sS'Y'
p7
g7
sS'B'
p8
g8
sS'ATP'
p9
S'species_1'
p10
sS'ni'
p11
S'ni'
p12
sS'Tasp_WA'
p13
S'Tasp_WA'
p14
sS'TW'
p15
S'TW'
p16
sS'Bp'
p17
S'Bp'
p18
sS'Yp'
p19
S'Yp'
p20
sS'TA'
p21
S'TA'
p22
sS'A'
p23
g23
sS'Tni_A'
p24
S'Tni_A'
p25
sS'asp'
p26
S'asp'
p27
sS'MYpYpYpYp'
p28
S'MYpYpYpYp'
p29
sS'M'
p30
g30
sS'Tni_W'
p31
S'Tni_W'
p32
sS'T'
p33
g33
sS'W'
p34
g34
sS'Tasp'
p35
S'Tasp'
p36
sS'Z'
p37
g37
sS'Tni'
p38
S'Tni'
p39
sS'MYpYp'
p40
S'MYpYp'
p41
sS'Tasp_A'
p42
S'Tasp_A'
p43
sS'Tasp_W'
p44
S'Tasp_W'
p45
sS'Ap'
p46
S'Ap'
p47
sS'Tni_WA'
p48
S'Tni_WA'
p49
sS'MYpYpYp'
p50
S'MYpYpYp'
p51
s.