(dp0
S'ActivePRaseonp65'
p1
S's165'
p2
sS'p65'
p3
S's119'
p4
sS'Promp105:RNAP1:p50p65'
p5
S's196'
p6
sS'p105'
p7
S's110'
p8
sS'sa4_degraded'
p9
S's109'
p10
sS'mRNAIKB_alpha'
p11
S's178'
p12
sS'NFkB:IKKa:Ikb_alpha'
p13
S's189'
p14
sS'InactivePRaseonp65'
p15
S's160'
p16
sS'InactivePRaseonIkB_alpha'
p17
S's209'
p18
sS'IKKa'
p19
S's132'
p20
sS'IkB_alpha'
p21
S's123'
p22
sS'ActivePRaseonp105'
p23
S's173'
p24
sS'PromIkBa:RNAP3:FTAz:p50p65:IkB_alpha'
p25
S's215'
p26
sS'IKKn'
p27
S's133'
p28
sS'IKKi'
p29
S's130'
p30
sS'IkBa:RNAP3:FTAz:p50p65'
p31
S's214'
p32
sS'Promp105:RNAP:FTAX'
p33
S's199'
p34
sS'csa21_degraded'
p35
S's156'
p36
sS'sa3_degraded'
p37
S's112'
p38
sS'PromIkBa:RNAP3:p50p65'
p39
S's212'
p40
sS'Promp105:RNAP1:FTAx:p50p65:IkBa'
p41
S's201'
p42
sS'Promp65:RNAP2:FTAy'
p43
S's194'
p44
sS'InactivePRaseonp105'
p45
S's170'
p46
sS'csa9_degraded'
p47
S's158'
p48
sS'csa18_degraded'
p49
S's157'
p50
sS'csa17_degraded'
p51
S's108'
p52
sS'mRNAp105'
p53
S's113'
p54
sS'PromIkBa:RNAP3:FTAz'
p55
S's206'
p56
sS'IKK'
p57
S's150'
p58
sS'Promp105:RNAP'
p59
S's198'
p60
sS'sa13_degraded'
p61
S's122'
p62
sS'ActivePRaseonIkB_alpha'
p63
S's185'
p64
sS'sa97_degraded'
p65
S's154'
p66
sS'FTAy'
p67
S's36'
p68
sS'FTAx'
p69
S's22'
p70
sS'FTAz'
p71
S's65'
p72
sS'NFkB'
p73
S's195'
p74
sS'sa96_degraded'
p75
S's153'
p76
sS'PromIkBa:RNAP3:p50p65:IkBa'
p77
S's213'
p78
sS'sa444_degraded'
p79
S's129'
p80
sS'Promp65:RNAP2'
p81
S's193'
p82
sS'IKKa:IKB_alpha'
p83
S's191'
p84
sS'sa438_degraded'
p85
S's111'
p86
sS'sa12_degraded'
p87
S's124'
p88
sS'p50'
p89
S's114'
p90
sS'mRNAp65'
p91
S's117'
p92
sS'A20'
p93
S's128'
p94
sS'sa9_degraded'
p95
S's120'
p96
sS'sa8_degraded'
p97
S's118'
p98
sS'sa20_degraded'
p99
S's134'
p100
sS'Promp105:RNAP1:p50p65:IkBa'
p101
S's197'
p102
sS'mRNAA20'
p103
S's127'
p104
sS'NFkB:IkB_alpha'
p105
S's192'
p106
sS'sa19_degraded'
p107
S's131'
p108
sS'PromIkBa:RNAP3'
p109
S's205'
p110
sS'Promp105:RNAP1:FTAx:p50p65'
p111
S's200'
p112
s.