(dp0
S'ERK-PT'
p1
S'MpT'
p2
sS'ERK_MEK_Y'
p3
S'M_MEK_Y'
p4
sS'ERK-PY_MEK'
p5
S'MpY_MEK'
p6
sS'ERK-PP'
p7
S'Mpp'
p8
sS'ERK_MEK_T'
p9
S'M_MEK_T'
p10
sS'ERK_MKP3_T'
p11
S'M_MKP3_T'
p12
sS'ERK_MKP3_Y'
p13
S'M_MKP3_Y'
p14
sS'MKP3'
p15
S'MKP3'
p16
sS'MEK'
p17
S'MEK'
p18
sS'ERK-PP_MKP3'
p19
S'Mpp_MKP3'
p20
sS'ERK-PT_MKP3_Y'
p21
S'MpT_MKP3_Y'
p22
sS'ERK-PY_MKP3'
p23
S'MpY_MKP3'
p24
sS'ERK-PY'
p25
S'MpY'
p26
sS'ERK-PT_MEK'
p27
S'MpT_MEK'
p28
sS'ERK-PT_MKP3_T'
p29
S'MpT_MKP3_T'
p30
sS'ERK'
p31
S'M'
p32
s.