(dp0
S'Ca_s'
p1
S's2'
p2
sS's8'
p3
S's8'
p4
sS'Shear Stress'
p5
S's119'
p6
sS'TimeT'
p7
S's12'
p8
sS's11'
p9
S's11'
p10
sS's10'
p11
S's10'
p12
sS's7'
p13
S's7'
p14
sS'Ca_ex'
p15
S's1'
p16
sS's5'
p17
S's5'
p18
sS's9'
p19
S's9'
p20
sS'IP3'
p21
S's6'
p22
sS'Ca_c'
p23
S's3'
p24
sS'Ca_B'
p25
S's4'
p26
sS's13'
p27
S's13'
p28
s.