(dp0
S'vvd_gene'
p1
S'vvd_gene'
p2
sS'degraded_WC1c'
p3
S'degraded_WC1c'
p4
sS'total_FRQ'
p5
S'total_FRQ'
p6
sS'frq_level_A'
p7
S'frq_level_A'
p8
sS'degraded_VVDn'
p9
S'degraded_VVDn'
p10
sS'WC2c'
p11
S'WC2c'
p12
sS'degraded_VVDc'
p13
S'degraded_VVDc'
p14
sS'total_WCCn'
p15
S'total_WCCn'
p16
sS'line2'
p17
S'line2'
p18
sS'Y'
p19
g19
sS'frq_gene'
p20
S'frq_gene'
p21
sS'L_WCC'
p22
S'L_WCC'
p23
sS'degraded_hyperFRQc'
p24
S'degraded_hyperFRQc'
p25
sS'total_VVD'
p26
S'total_VVD'
p27
sS'wc1_gene'
p28
S'wc1_gene'
p29
sS'degraded_active_hypoWCCn'
p30
S'degraded_active_hypoWCCn'
p31
sS'line'
p32
S'line'
p33
sS'degraded_frq_mRNA'
p34
S'degraded_frq_mRNA'
p35
sS'line3'
p36
S'line3'
p37
sS'degraded_vvd_mRNA'
p38
S'degraded_vvd_mRNA'
p39
sS'degraded_L_WCCCVVDn'
p40
S'degraded_L_WCCCVVDn'
p41
sS'wc2_mRNA'
p42
S'wc2_mRNA'
p43
sS'degraded_wc1_mRNA'
p44
S'degraded_wc1_mRNA'
p45
sS'hyperFRQn'
p46
S'hyperFRQn'
p47
sS'L_WCCVVDn'
p48
S'L_WCCVVDn'
p49
sS'c_hypoFRQ_to_hyperFRQ'
p50
S'c_hypoFRQ_to_hyperFRQ'
p51
sS'hyper_hypo_WCC'
p52
S's61'
p53
sS'VVDn'
p54
S'VVDn'
p55
sS'total_hyper_FRQ'
p56
S'total_hyper_FRQ'
p57
sS'total_FRQc'
p58
S'total_FRQc'
p59
sS'total_hypoWCC'
p60
S'total_hypoWCC'
p61
sS'WC1c'
p62
S'WC1c'
p63
sS'VVDc'
p64
S'VVDc'
p65
sS'wc1_mRNA'
p66
S'wc1_mRNA'
p67
sS'hyperWCCn'
p68
S'hyperWCCn'
p69
sS'hypoWCCn'
p70
S'hypoWCCn'
p71
sS'T'
p72
g72
sS'degraded_hyperFFCn'
p73
S'degraded_hyperFFCn'
p74
sS'X'
p75
g75
sS'total_WC2'
p76
S'total_WC2'
p77
sS'degraded_WC2c'
p78
S'degraded_WC2c'
p79
sS'total_WC1'
p80
S'total_WC1'
p81
sS'cycle'
p82
S'cycle'
p83
sS'wc2_gene'
p84
S'wc2_gene'
p85
sS'n_hypoFRQ_to_hyperFRQ'
p86
S'n_hypoFRQ_to_hyperFRQ'
p87
sS'hyperWCCc'
p88
S'hyperWCCc'
p89
sS'hyperFRQc'
p90
S'hyperFRQc'
p91
sS'hypoFRQn'
p92
S'hypoFRQn'
p93
sS'total_hyperWCC'
p94
S'total_hyperWCC'
p95
sS'active_hypoWCCn'
p96
S'active_hypoWCCn'
p97
sS'hypoFRQc'
p98
S'hypoFRQc'
p99
sS'Period'
p100
S'Period'
p101
sS'hypoWCCc'
p102
S'hypoWCCc'
p103
sS'degraded_hyperWCCn'
p104
S'degraded_hyperWCCn'
p105
sS'total_hypo_FRQ'
p106
S'total_hypo_FRQ'
p107
sS'frq_mRNA'
p108
S'frq_mRNA'
p109
sS'time'
p110
S'time'
p111
sS'vvd_mRNA'
p112
S'vvd_mRNA'
p113
sS'total_FRQn'
p114
S'total_FRQn'
p115
sS'degraded_wc2_mRNA'
p116
S'degraded_wc2_mRNA'
p117
sS'degraded_hyperWCCc'
p118
S'degraded_hyperWCCc'
p119
s.