(dp0
S'MAPK_MAPKK_T'
p1
S'M_MAPKK_T'
p2
sS'MAPK-PY_MKP_T'
p3
S'MpY_MKP_T'
p4
sS'MAPK'
p5
S'M'
p6
sS'MAPK-PT_MAPKK'
p7
S'MpT_MAPKK'
p8
sS'MAPK-PT_MKP_T'
p9
S'MpT_MKP_T'
p10
sS'MAPK_MAPKK_Y'
p11
S'M_MAPKK_Y'
p12
sS'MAPKK'
p13
S'MAPKK'
p14
sS'MAPK-PY_MKP_Y'
p15
S'MpY_MKP_Y'
p16
sS'MAPK_MKP_Y'
p17
S'M_MKP_Y'
p18
sS'MAPK-PY_MAPKK'
p19
S'MpY_MAPKK'
p20
sS'MAPK-PY'
p21
S'MpY'
p22
sS'MAPK-PP_MKP_Y'
p23
S'Mpp_MKP_T'
p24
sS'MKP'
p25
S'MKP'
p26
sS'MAPK-PT'
p27
S'MpT'
p28
sS'MAPK-PT_MKP_Y'
p29
S'MpT_MKP_Y'
p30
sS'MAPK-PP_MKP_T'
p31
S'Mpp_MKP_Y'
p32
sS'MAPK-PP'
p33
S'Mpp'
p34
sS'MAPK_MKP_T'
p35
S'M_MKP_T'
p36
s.