(dp0
S'IP3_Cyt'
p1
S'IP3_Cyt'
p2
sS'Ca_Cyt'
p3
S'Ca_Cyt'
p4
sS'Ca_ER'
p5
S'Ca_ER'
p6
sS'S2'
p7
S'S2'
p8
sS'Orai1'
p9
S'Orai1'
p10
sS'Oc'
p11
S'Oc'
p12
sS'S4'
p13
S'S4'
p14
sS'S2a'
p15
S'S2a'
p16
sS'O_o'
p17
S'O_o'
p18
s.