(dp0
S'Inactive phosphatase'
p1
S'phosphatase_inactive'
p2
sS'Active phosphatase'
p3
S'phosphatase_active'
p4
sS'Inactive lck'
p5
S'lck_inactive'
p6
sS'Active lck'
p7
S'lck_active'
p8
sS'Total kinase'
p9
S'lck_total'
p10
s.