(dp0
S'T2R_Cave'
p1
S'T2R_Cave'
p2
sS'Smad4c'
p3
S'Smad4c'
p4
sS'T2R_EE'
p5
S'T2R_EE'
p6
sS'Smad2c'
p7
S'Smad2c'
p8
sS'T1R_Cave'
p9
S'T1R_Cave'
p10
sS'Smad2n'
p11
S'Smad2n'
p12
sS'T2R_Surf'
p13
S'T2R_Surf'
p14
sS'T1R_Surf'
p15
S'T1R_Surf'
p16
sS'T1R_EE'
p17
S'T1R_EE'
p18
sS'Smad4n'
p19
S'Smad4n'
p20
sS'LRC_EE'
p21
S'LRC_EE'
p22
sS'LRC_Cave'
p23
S'LRC_Cave'
p24
sS'Smads_Complex_c'
p25
S'Smads_Complex_c'
p26
sS'LRC_Surf'
p27
S'LRC_Surf'
p28
sS'TGF_beta'
p29
S'TGF_beta'
p30
sS'Smads_Complex_n'
p31
S'Smads_Complex_n'
p32
s.