(dp0
S'fwd_step1'
p1
S'fwd_step1'
p2
sS'fwd_step2'
p3
S'fwd_step2'
p4
sS'back_step1'
p5
S'back_step1'
p6
sS'ADP'
p7
S'ADP'
p8
sS'back_step2'
p9
S'back_step2'
p10
sS'S1'
p11
S'S1'
p12
sS'S0'
p13
S'S0'
p14
sS'ATP'
p15
S'ATP'
p16
sS'Pi_'
p17
S'Pi_'
p18
s.