(dp0
S'STAT4-P'
p1
S's21'
p2
sS'Tbet'
p3
S's80'
p4
sS'IL21'
p5
S's52'
p6
sS'IFNgR'
p7
S's24'
p8
sS'pIL10'
p9
S'species_27'
p10
sS'TGFb-TGFbR'
p11
S's45'
p12
sS'IRAK1'
p13
S's65'
p14
sS'p19'
p15
S'species_8'
p16
sS'IRAK1-P'
p17
S's10'
p18
sS'p40/p19 dimer'
p19
S's57'
p20
sS'GATA3'
p21
S's81'
p22
sS'pIL17'
p23
S'species_7'
p24
sS'SOCS1'
p25
S's79'
p26
sS'IFNg'
p27
S's68'
p28
sS'IL17-IL17R'
p29
S'species_3'
p30
sS'IL2R'
p31
S's37'
p32
sS'STAT3-P'
p33
S's49'
p34
sS'FOXP3'
p35
S's78'
p36
sS'TGFb'
p37
S's43'
p38
sS'Ligand'
p39
S's86'
p40
sS'IFNg-IFNgR'
p41
S's25'
p42
sS'eIFNg'
p43
S's22'
p44
sS'p50/p65 dimer'
p45
S's20'
p46
sS'pIFNg'
p47
S'species_5'
p48
sS'IL12_pool'
p49
S'species_17'
p50
sS'IL18-IL18R'
p51
S's3'
p52
sS'Tbet-P'
p53
S's27'
p54
sS'JAK1'
p55
S's69'
p56
sS'IL2_pool'
p57
S'species_24'
p58
sS'p40'
p59
S'species_9'
p60
sS'anti-IL4'
p61
S'species_13'
p62
sS'IFNg_pool'
p63
S'species_18'
p64
sS'IL4R'
p65
S's32'
p66
sS'IL23_pool'
p67
S'species_20'
p68
sS'eTGFb'
p69
S's87'
p70
sS'RORgt-ligand'
p71
S's50'
p72
sS'IL18_pool'
p73
S'species_16'
p74
sS'TGFb_pool'
p75
S'species_25'
p76
sS'PPARg'
p77
S's85'
p78
sS'acetylated FOXP3'
p79
S's40'
p80
sS'IL23-IL23R'
p81
S's59'
p82
sS'GATA3-P'
p83
S's35'
p84
sS'IL10-IL10R'
p85
S's63'
p86
sS'pIL21'
p87
S'species_6'
p88
sS'TGFbR'
p89
S's44'
p90
sS'eIL6'
p91
S's90'
p92
sS'eIL4'
p93
S's30'
p94
sS'eIL2'
p95
S's89'
p96
sS'IL10R'
p97
S's62'
p98
sS'STAT5-P'
p99
S's39'
p100
sS'STAT6'
p101
S's82'
p102
sS'STAT5'
p103
S's77'
p104
sS'STAT4'
p105
S's67'
p106
sS'STAT3'
p107
S's76'
p108
sS'pIL4'
p109
S'species_15'
p110
sS'STAT1'
p111
S's70'
p112
sS'eIL21'
p113
S's51'
p114
sS'eIL23'
p115
S's55'
p116
sS'IL4-IL4R'
p117
S's33'
p118
sS'IL6R'
p119
S's47'
p120
sS'STAT6-P'
p121
S's34'
p122
sS'RORgt'
p123
S's75'
p124
sS'IL17R'
p125
S'species_4'
p126
sS'STAT1-P'
p127
S's26'
p128
sS'p50'
p129
S'species_10'
p130
sS'IL18'
p131
S's1'
p132
sS'IL4_pool'
p133
S'species_26'
p134
sS'IL10'
p135
S's74'
p136
sS'IL12'
p137
S's12'
p138
sS'IL21R'
p139
S's53'
p140
sS'IL17'
p141
S's73'
p142
sS'IL6'
p143
S's46'
p144
sS'IL17_pool'
p145
S'species_21'
p146
sS'IL4'
p147
S's31'
p148
sS'IL12-IL12R'
p149
S's14'
p150
sS'IL2'
p151
S's36'
p152
sS'IL6_pool'
p153
S'species_23'
p154
sS'IL18R'
p155
S's2'
p156
sS'p65'
p157
S'species_11'
p158
sS'JAK1-P'
p159
S's28'
p160
sS'L-PPARg'
p161
S's83'
p162
sS'IL23R'
p163
S's58'
p164
sS'IL6-IL6R'
p165
S's48'
p166
sS'IL12R'
p167
S's13'
p168
sS'IL2-IL2R'
p169
S's38'
p170
sS'IL21-IL21R'
p171
S's54'
p172
sS'SOCS1-JAKs'
p173
S's29'
p174
sS'IL10_pool'
p175
S'species_22'
p176
sS'eIL17'
p177
S'species_1'
p178
sS'eIL10'
p179
S'species_2'
p180
sS'eIL12'
p181
S's11'
p182
sS'eIL18'
p183
S'species_12'
p184
sS'anti-IFNg'
p185
S'species_14'
p186
sS'IL21_pool'
p187
S'species_19'
p188
s.