(dp0
S'BE'
p1
S'BE'
p2
sS'Cdc20 activated'
p3
S'Cdc20a'
p4
sS'Mcm'
p5
S'Mcm'
p6
sS'Swe1 modified'
p7
S'Swe1M'
p8
sS'Swe1'
p9
S'Swe1'
p10
sS'Phosphorylated Swe1'
p11
S'PSwe1'
p12
sS'Sic1'
p13
S'Sic'
p14
sS'CDC28_Clb2_Sic1_Complex'
p15
S'Trim'
p16
sS'Cdc20'
p17
S'Cdc20'
p18
sS'Intermediary Enzyme'
p19
S'IE'
p20
sS'Clb2'
p21
S'Clb'
p22
sS'Cln'
p23
S'Cln'
p24
sS'SBF'
p25
S'SBF'
p26
sS'Phosphorylated Swe1M'
p27
S'PSwe1M'
p28
sS'Cdh1'
p29
S'Cdh1'
p30
sS'mass'
p31
S'mass'
p32
sS'Mih1a'
p33
S'Mih1a'
p34
sS'Phosphorylated Clb2'
p35
S'PClb'
p36
sS'Phosphorylated Cdc28_Clb2_Sic1 Complex'
p37
S'PTrim'
p38
s.