(dp0
S'Casp6'
p1
S'Casp6'
p2
sS'BAR'
p3
S'BAR'
p4
sS'Casp3'
p5
S'Casp3'
p6
sS'IkBa_N'
p7
S'IkBa_N'
p8
sS'IkBa'
p9
S'IkBa'
p10
sS'TNF_E'
p11
S'TNF_E'
p12
sS'Casp8'
p13
S'Casp8'
p14
sS'XIAP'
p15
S'XIAP'
p16
sS'TNFRC2:FLIP:pCasp8'
p17
S'TNFRC2_FLIP_pCasp8'
p18
sS'IKKa'
p19
S'IKKa'
p20
sS'RIP'
p21
S'RIP'
p22
sS'PARP'
p23
S'PARP'
p24
sS'TNFRC1'
p25
S'TNFRC1'
p26
sS'TNFRC2'
p27
S'TNFRC2'
p28
sS'NFkB_N'
p29
S'NFkB_N'
p30
sS'TNF:TNFR_E'
p31
S'TNF_TNFR_E'
p32
sS'FLIP_mRNA'
p33
S'FLIP_mRNA'
p34
sS'TNFR'
p35
S'TNFR'
p36
sS'TNFR_E'
p37
S'TNFR_E'
p38
sS'TNF:TNFR:TRADD'
p39
S'TNF_TNFR_TRADD'
p40
sS'FLIP'
p41
S'FLIP'
p42
sS'TRADD'
p43
S'TRADD'
p44
sS'pCasp6'
p45
S'pCasp6'
p46
sS'NFkB'
p47
S'NFkB'
p48
sS'TNFRC2:FLIP'
p49
S'TNFRC2_FLIP'
p50
sS'IKK'
p51
S'IKK'
p52
sS'TRAF2'
p53
S'TRAF2'
p54
sS'TNFRC2:pCasp8:pCasp8'
p55
S'TNFRC2_pCasp8_pCasp8'
p56
sS'FADD'
p57
S'FADD'
p58
sS'PIkBa'
p59
S'PIkBa'
p60
sS'A20_mRNA'
p61
S'A20_mRNA'
p62
sS'IkBa:NFkB_N'
p63
S'IkBa_NFkB_N'
p64
sS'TNFRC2:FLIP:pCasp8:RIP:TRAF2'
p65
S'TNFRC2_FLIP_pCasp8_RIP_TRAF2'
p66
sS'A20'
p67
S'A20'
p68
sS'XIAP:Casp3'
p69
S'XIAP_Casp3'
p70
sS'BAR:Casp8'
p71
S'BAR_Casp8'
p72
sS'XIAP_mRNA'
p73
S'XIAP_mRNA'
p74
sS'cPARP'
p75
S'cPARP'
p76
sS'IkBa:NFkB'
p77
S'IkBa_NFkB'
p78
sS'TNFRC2:FLIP:FLIP'
p79
S'TNFRC2_FLIP_FLIP'
p80
sS'IkBa_mRNA'
p81
S'IkBa_mRNA'
p82
sS'pCasp3'
p83
S'pCasp3'
p84
sS'TNFRCint1'
p85
S'TNFRCint1'
p86
sS'TNFRCint3'
p87
S'TNFRCint3'
p88
sS'TNFRCint2'
p89
S'TNFRCint2'
p90
sS'pCasp8'
p91
S'pCasp8'
p92
sS'TNFRC2:pCasp8'
p93
S'TNFRC2_pCasp8'
p94
s.