(dp0
S'ppMEK-Pase2'
p1
S'mwcb572fe2_c3ac_40e7_8141_da7d55fce18a'
p2
sS'pAkt_total'
p3
S'mwa6994523_5d45_4000_af0c_3e94073bf183'
p4
sS'EGF-EGFR'
p5
S'mw7eacabf9_d68c_491a_aba2_ec0809a8ecc8'
p6
sS'Takt'
p7
S'mw11a8b702_b8ac_4513_b4aa_063e51089812'
p8
sS'pAktm-Takt'
p9
S'mw1a0cb97a_b657_430b_963c_92217f643081'
p10
sS'Aktm'
p11
S'mw62bf5275_ce02_4e86_b3b6_3f87a335e1de'
p12
sS'pMEK-Pase2'
p13
S'mwa0acc0ac_5fac_4a42_a3be_e36db44994b0'
p14
sS'pEGF-EGFR2-Grb2-SOS-Ras-GDP'
p15
S'mw28464aad_8013_4a23_ae09_a406954859a6'
p16
sS'pEGF-EGFR2-pShc-Grb2-SOS-cbl'
p17
S'mwb1bc2058_e6d8_4680_9e6c_d27bb366cde0'
p18
sS'EGF'
p19
S'mwe2fff28d_182c_4a1c_9882_f17774c0958a'
p20
sS'ppERK-pEGF-EGFR2-pShc-Grb2-SOS'
p21
S'mw5babe3d5_a9af_4dfd_ac01_35474ef64af2'
p22
sS'pSTAT3c-pSTAT3c-PP1'
p23
S'mw472d5cb9_120e_4f60_bbae_1ae2552837dd'
p24
sS'EPn'
p25
S'mwb2366216_0b3c_4f28_8303_fec92c68dd57'
p26
sS'pEGF-EGFR2-Shc'
p27
S'mw5198d3c2_879c_4f0d_b4f8_cd40efe0b1cf'
p28
sS'TP4'
p29
S'mwfc4a9c3d_3ebb_4033_8b7d_f4d7613d2078'
p30
sS'pPI3K'
p31
S'mw78e207c4_4faf_4b48_8e22_1ee666e9cc4c'
p32
sS'Ras-GDP'
p33
S'mw8f5a7b5c_ca4c_4a4c_85b1_e5d640c426bf'
p34
sS'pEGF-EGFR2-Ras-GAP'
p35
S'mwd39388fd_4f85_4d1c_b2a3_37857c595a2d'
p36
sS'pEGF-EGFR2-pShc-Grb2-SHP2'
p37
S'mw45ab688a_6467_4a3e_a779_2118fa84d69e'
p38
sS'pSOS'
p39
S'mw31ac308f_da36_4f73_830f_67f3e5b945d9'
p40
sS'ProEGFR'
p41
S'mw0a0ca6ba_cb28_44c7_a0c0_1593cb720966'
p42
sS'ppMEK'
p43
S'mwf816df4c_4593_4d23_990f_0d7c15ddde5d'
p44
sS'pEGF-EGFR2-STAT3c-cbl-EPn'
p45
S'mw142e6dc4_ec15_459d_a184_6b20be04f08d'
p46
sS'pERK-Pase3'
p47
S'mw35f5adaa_d1c0_433c_817d_76e317f4cb15'
p48
sS'Shc'
p49
S'mw3c2e1b43_29ca_491a_93e9_c723a993d6fb'
p50
sS'Aktm-PDK1-Takt'
p51
S'mwd746a5d5_5e65_4a4c_9f84_0e4a3cb7d2fc'
p52
sS'pEGF-EGFR2-pShc-Grb2-SOS'
p53
S'mwfbda4e09_0cbb_49bc_ae69_f88b7a79ed21'
p54
sS'pSTAT3n'
p55
S'mwe3fd7f65_b0d1_44d9_b6f3_d2f7d332f664'
p56
sS'Ras-GTP-Ras-GAP'
p57
S'mwdf82303e_323f_4c51_a858_56a59233cd98'
p58
sS'ppERK-pEGF-EGFR2-Grb2-SOS'
p59
S'mw31261227_9cd6_4059_a0bb_04dbf4888080'
p60
sS'ppMEK-pERK'
p61
S'mw6cb74b27_ffef_49bb_8ffb_622d552caa9e'
p62
sS'pEGF-EGFR2-Grb2-SOS-cbl-EPn'
p63
S'mw1d5948e7_5504_4224_9d71_227911b4f1ee'
p64
sS'PP2'
p65
S'mw0e1be972_fded_4bff_a93d_091ec942485f'
p66
sS'Raf1active-pMEK'
p67
S'mw12ba4000_d452_420c_be63_96d2848aca32'
p68
sS'Ras-GTP'
p69
S'mwa54a9c38_c98b_45e5_8432_4119fb777e44'
p70
sS'ppERK'
p71
S'mwd784228d_0cb5_468a_ac70_02d8f04b3d9c'
p72
sS'pPI3K-PIP2'
p73
S'mw014cc419_b720_4b90_9192_2ec6e706c87d'
p74
sS'pEGF-EGFR2-Ras-GAP-SHP2'
p75
S'mwbf5cb039_b830_4282_aa22_a3dda6272ec1'
p76
sS'pEGF-EGFR2-PI3K-cbl-EPn'
p77
S'mwd32d108b_49c2_4df2_9b67_d6c6b84f54b9'
p78
sS'STAT3c-pSTAT3c'
p79
S'mwd2c465fb_eea7_499a_8ea4_f318a64cb9ee'
p80
sS'pEGF-EGFR2-Grb2-SHP2'
p81
S'mw925b938a_fe73_4664_ba6f_e72e57780891'
p82
sS'pSTAT3c-pSTAT3c'
p83
S'mw4f575c55_7dff_45d7_94ad_cda9621d5b63'
p84
sS'pSTAT3c'
p85
S'mwb6a9aa2c_62e7_410f_9c33_dbe36dfcc4af'
p86
sS'pMEK'
p87
S'mw9b25f809_18a1_4c14_8f4b_cf18e6d93c28'
p88
sS'Raf1active-MEK'
p89
S'mw4628f984_eb87_4922_9760_4975095ce6eb'
p90
sS'pAktm-PDK1'
p91
S'mwc1935afc_56b1_4a87_923c_ae6d82455d80'
p92
sS'pRaf1active'
p93
S'mwdf92bdc0_f426_45b0_9ad0_876521f41312'
p94
sS'SHP'
p95
S'mwe57c3282_5935_405c_8c0b_7fadb7a5de17'
p96
sS'EGF-EGFR2'
p97
S'mwa8f2e7b2_0927_4ab4_a817_dddc43bb4fa3'
p98
sS'pEGF-EGFR2-STAT3c-cbl'
p99
S'mw548c81c2_c626_4df8_9177_a1a6fc3d4ce8'
p100
sS'pAktm'
p101
S'mw3d81860d_d786_4fcc_b8bb_64f1a2d7739d'
p102
sS'pShc-SHP2'
p103
S'mwf9999977_6f0e_4e35_9b73_75587f3448e9'
p104
sS'Pase'
p105
S'mwbaaeb210_4806_4076_9d60_219f4ed945b6'
p106
sS'pAktm-PDK1-Takt'
p107
S'mw57a44eb0_ace7_4294_905a_219e87d3c281'
p108
sS'pEGF-EGFR2-pShc-Grb2-SOS-Ras-GDP'
p109
S'mwf40d6176_abfc_4a30_886f_83a19fcffc48'
p110
sS'Raf1active-Pase'
p111
S'mw19a33ad5_5ba4_46c7_84eb_c1287f02bcd5'
p112
sS'pEGF-EGFR2-Grb2'
p113
S'mwd9462e5b_a272_4b66_ab66_fde9266b1a43'
p114
sS'pEGF-EGFR2-SHP2'
p115
S'mw954e8fcb_ac0a_459d_8878_f19080208a17'
p116
sS'pEGF-EGFR2-Ras-GAP-Ras-GTP'
p117
S'mwd7bf31ba_b05c_4c45_bb2f_6a2468a2a507'
p118
sS'pSTAT3n-pSTAT3n-PP2'
p119
S'mw0facb8f2_95cf_4ddf_a959_b24ba64f320b'
p120
sS'pEGF-EGFR2-PI3K-cbl'
p121
S'mw2c47ae3f_06d9_40ec_a252_535db0ae5caa'
p122
sS'pEGF-EGFR2-pShc-Grb2-SOS-cbl-EPn'
p123
S'mw06b8aada_c92a_48eb_8ee7_af3778cfe62f'
p124
sS'pEGF-EGFR2'
p125
S'mwbfcf6773_1915_432c_b1d2_1f246094cc74'
p126
sS'pAkt'
p127
S'mw16796ffe_4764_4a9f_942e_149f42c1cd28'
p128
sS'pEGF-EGFR2-pShc'
p129
S'mwa98802cb_c977_4fe0_9e67_5000904c2c36'
p130
sS'pEGF-EGFR2-pShc-Grb2'
p131
S'mw504578d8_96c3_471f_8a7e_8c14e7535d3d'
p132
sS'pShc'
p133
S'mwa0349407_8187_48fc_9e94_5698ccc4e06d'
p134
sS'PIP3'
p135
S'mwd7f41594_8377_4e2e_9528_45d5a82ffdb4'
p136
sS'PIP2'
p137
S'mwb561d9f3_a9ed_4bdb_8d40_87be5cc3237a'
p138
sS'Aktm-PDK1'
p139
S'mw6353aa36_d4a4_4254_8a1f_1f7f571d4233'
p140
sS'pEGF-EGFR2-pSTAT3c'
p141
S'mw341082a0_8017_4cc7_9d00_b1211a196072'
p142
sS'pSTAT3n-PP2'
p143
S'mw8c85ff7f_6368_4b11_a2ed_ce83481b55e6'
p144
sS'pEGF-EGFR2-PI3K'
p145
S'mw0dc4e5eb_4366_4799_bebc_cfcffe5c06f5'
p146
sS'MEK'
p147
S'mw0834731b_0477_4217_a53b_30cef851191b'
p148
sS'pEGF-EGFR2-cbl'
p149
S'mwec1b368b_8f73_47eb_9636_9956389836eb'
p150
sS'Raf1'
p151
S'mw66ac98c4_7e7b_4071_954d_43eb17584220'
p152
sS'pERK'
p153
S'mwcc894c94_0ddf_42cc_913e_cdcc4d471d94'
p154
sS'ppMEK-ERK'
p155
S'mwcedf8ecd_67bd_4b91_aa04_d58782dec2a4'
p156
sS'EGFR'
p157
S'mw93907b2d_53db_4080_9e3f_3eb304441ab9'
p158
sS'cbl'
p159
S'mw19122f7d_f92e_4dc0_922f_6b681db65b0b'
p160
sS'pEGF-EGFR2-pPI3K'
p161
S'mw1e591998_65c0_484e_8a3b_537a38d94de1'
p162
sS'Akt-Takt'
p163
S'mw236a3250_4c96_4f6e_b94c_ab3d12852801'
p164
sS'pEGF-EGFR2-Grb2-SOS-cbl'
p165
S'mw481cd12b_61ba_44e5_93bf_8b88c6c4a4e7'
p166
sS'pEGF-EGFR2-STAT3c'
p167
S'mw2fd710a6_7fe2_4484_bca6_59c187bade8b'
p168
sS'ERK'
p169
S'mw7e23b961_186b_47a0_a8b5_5e9957766792'
p170
sS'pAkt-Takt'
p171
S'mwa6e82fc9_a0ce_461c_93c8_17f3c807c1a1'
p172
sS'PI3K'
p173
S'mw2ba1db9a_4483_44fa_a3a2_b4a5ea66898c'
p174
sS'SOS'
p175
S'mw9dcaa655_a755_426e_a3fa_1ad7c3c45575'
p176
sS'Grb2'
p177
S'mwf430a579_ecbf_48ba_80c2_06e455808f2a'
p178
sS'Raf1-Ras-GTP'
p179
S'mw83de7813_4941_45a6_a320_a551165bf22a'
p180
sS'pEGF-EGFR2-Grb2-SOS'
p181
S'mwf8cc7834_bf4f_4ccd_8235_d0890badf0f6'
p182
sS'STAT3n-pSTAT3n'
p183
S'mw9686f53e_d343_45fd_b441_9c992219546a'
p184
sS'STAT3c'
p185
S'mw13abe2a6_9905_40e5_8c23_3fc8834b572a'
p186
sS'pSTAT3n-pSTAT3n'
p187
S'mw4110f531_7513_4786_8896_7c9d969ff558'
p188
sS'STAT3n'
p189
S'mw960bddeb_e567_46dd_b2f3_ed5e6a5c7972'
p190
sS'Raf1active'
p191
S'mwaff92910_ed3d_40b9_a29c_e4866167e828'
p192
sS'Akt'
p193
S'mwcef73e0e_d195_4077_ae71_723664ee1602'
p194
sS'Grb2-SOS'
p195
S'mw1093b3af_1864_4ba3_a541_6009a9921282'
p196
sS'PP1'
p197
S'mwcea1f1c1_2f85_4af1_98ea_ef14cf580c09'
p198
sS'pSTAT3c-PP1'
p199
S'mwdc34472c_a6f9_4002_951d_e0e8da64eb42'
p200
sS'TP4-PI3K'
p201
S'mw7033dfd6_53c5_433b_a132_f8cb34dea20f'
p202
sS'Pase2'
p203
S'mwf9e2a044_7774_400b_a74e_a111b4a21f30'
p204
sS'Pase3'
p205
S'mwd087f76b_65dc_47f1_ba21_c43774457686'
p206
sS'Aktm-Takt'
p207
S'mw9b937ca3_0d82_46d5_8f5a_0f9701002797'
p208
sS'ppERK-Pase3'
p209
S'mwa7e3103a_6394_472c_b0f4_8ed527f68604'
p210
sS'TP4-pPI3K'
p211
S'mwbd6bb050_89bd_41df_8cea_d2e1fb77bafe'
p212
sS'Ras-GAP'
p213
S'mw7cff9a0e_094d_498e_bf7f_7b162c61d63a'
p214
sS'pEGF-EGFR2-cbl-EPn'
p215
S'mwa455ec7e_1a12_4659_95a2_a5695d09ca60'
p216
sS'PDK1'
p217
S'mw6e01967b_3e2a_433d_bec6_9f9cf3ba243c'
p218
s.