(dp0
S'LTA4'
p1
S'x12'
p2
sS'5-HPETE'
p3
S'x10'
p4
sS'TXAS'
p5
S'x20'
p6
sS'12-HPETE'
p7
S'x4'
p8
sS'LTA4H'
p9
S'x22'
p10
sS'CYP4F3'
p11
S'x23'
p12
sS'w-LTB4'
p13
S'x14'
p14
sS'5-LOX'
p15
S'x21'
p16
sS'TXA2'
p17
S'x8'
p18
sS'PLA2'
p19
S'x15'
p20
sS'15-LOX'
p21
S'x16'
p22
sS'PGES'
p23
S'x19'
p24
sS'TXB2'
p25
S'x9'
p26
sS'AA'
p27
S'x1'
p28
sS'LTB4'
p29
S'x13'
p30
sS'PGE2'
p31
S'x7'
p32
sS'5-HETE'
p33
S'x11'
p34
sS'15-HPETE'
p35
S'x2'
p36
sS'15-HETE'
p37
S'x3'
p38
sS'COX-2'
p39
S'x18'
p40
sS'exo-AA'
p41
S'x25'
p42
sS'PGH2'
p43
S'x6'
p44
sS'12-HETE'
p45
S'x5'
p46
sS'12-LOX'
p47
S'x17'
p48
sS'PHGPx'
p49
S'x24'
p50
s.