(dp0
S'CK'
p1
S'CK'
p2
sS'PLSp'
p3
S'PLSp'
p4
sS'ACC'
p5
S'ACC'
p6
sS'CTR1_total'
p7
S'CTR1T'
p8
sS'Ra_total'
p9
S'RaT'
p10
sS'Re_total'
p11
S'ReT'
p12
sS'Ra*'
p13
S'Ra_star'
p14
sS'IAA'
p15
S'IAA'
p16
sS'Re*'
p17
S'Re_star'
p18
sS'Re'
p19
S'Re'
p20
sS'Ra'
p21
S'Ra'
p22
sS'ET'
p23
S'ET'
p24
sS'X'
p25
g25
sS'CTR1'
p26
S'CTR1'
p27
sS'Cytokinin_ext'
p28
S'CK_ex'
p29
sS'PLSm'
p30
S'PLSm'
p31
sS'Auxin'
p32
S'Auxin'
p33
sS'CTR1*'
p34
S'CTR1_star'
p35
s.