(dp0
S'Pr'
p1
S'Pr'
p2
sS'Yi'
p3
S'Yi'
p4
sS'Xi'
p5
S'Xi'
p6
sS'Ya'
p7
S'Ya'
p8
sS'Xa'
p9
S'Xa'
p10
sS'S'
p11
g11
sS'Pfr'
p12
S'Pfr'
p13
sS'prepreS'
p14
S'prepreS'
p15
sS'V'
p16
g16
sS'Pi'
p17
S'Pi'
p18
sS'Gluc'
p19
S'Gluc'
p20
sS'preS'
p21
S'preS'
p22
s.