(dp0
S'Gt'
p1
S'Gt'
p2
sS'P'
p3
g3
sS'Pc'
p4
S'Pc'
p5
sS'Gd'
p6
S'Gd'
p7
sS'Rlg'
p8
S'Rlg'
p9
sS'Ca'
p10
S'Ca'
p11
sS'Rlgp'
p12
S'Rlgp'
p13
sS'Rg'
p14
S'Rg'
p15
sS'IP3'
p16
S'IP3'
p17
sS'R'
p18
g18
sS'Pg'
p19
S'Pg'
p20
sS'Rl'
p21
S'Rl'
p22
sS'Pcg'
p23
S'Pcg'
p24
s.