(dp0
S'ca_buffer_cyt'
p1
S'ca_buffer_cyt'
p2
sS'CAPRI_cyt'
p3
S'CAPRI_cyt'
p4
sS'Ca_RasGRP_GM_GM'
p5
S'Ca_RasGRP_GM_GM'
p6
sS'RasGTP_Golgi_GM'
p7
S'RasGTP_Golgi_GM'
p8
sS'DAG_PM'
p9
S'DAG_PM'
p10
sS'IP3'
p11
S'IP3'
p12
sS'RactCa'
p13
S'RactCa'
p14
sS'RinhCa'
p15
S'RinhCa'
p16
sS'Ca_PLCe_cyt'
p17
S'Ca_PLCe_cyt'
p18
sS'PLC_act_PM'
p19
S'PLC_act_PM'
p20
sS'EGFR_PM'
p21
S'EGFR_PM'
p22
sS'Shc_star_PM'
p23
S'Shc_star_PM'
p24
sS'Activated_EGFR_PM'
p25
S'Activated_EGFR_PM'
p26
sS'RasGDP_depal_cyt'
p27
S'RasGDP_depal_cyt'
p28
sS'RasGDP_pal_cyt'
p29
S'RasGDP_pal_cyt'
p30
sS'DAG_GM_GM'
p31
S'DAG_GM_GM'
p32
sS'PI_PM'
p33
S'PI_PM'
p34
sS'Ras_CaPLCe_GM'
p35
S'Ras_CaPLCe_GM'
p36
sS'CaCAPRI_PM_PM'
p37
S'CaCAPRI_PM_PM'
p38
sS'RasGRP_cyt'
p39
S'RasGRP_cyt'
p40
sS'RasGTP_depal_cyt'
p41
S'RasGTP_depal_cyt'
p42
sS'ER_erMembrane'
p43
S'ER_erMembrane'
p44
sS'PIP2_PM'
p45
S'PIP2_PM'
p46
sS'PLCe_cyt'
p47
S'PLCe_cyt'
p48
sS'Ract'
p49
S'Ract'
p50
sS'CaRasGRP1_cyt'
p51
S'CaRasGRP1_cyt'
p52
sS'PIP_PM'
p53
S'PIP_PM'
p54
sS'Ca_ER'
p55
S'Ca_ER'
p56
sS'RasGRP_DAG_GM'
p57
S'RasGRP_DAG_GM'
p58
sS'Sos_cyt'
p59
S'Sos_cyt'
p60
sS'RasGTP_pal_cyt'
p61
S'RasGTP_pal_cyt'
p62
sS'PIP2_GM_GM'
p63
S'PIP2_GM_GM'
p64
sS'SosGrb2_cyt'
p65
S'SosGrb2_cyt'
p66
sS'buffer_cyt'
p67
S'buffer_cyt'
p68
sS'RasGDP_Golgi_GM'
p69
S'RasGDP_Golgi_GM'
p70
sS'EGF_EC'
p71
S'EGF_EC'
p72
sS'Shc_PM'
p73
S'Shc_PM'
p74
sS'CaCAPRI_cyt'
p75
S'CaCAPRI_cyt'
p76
sS'Grb2_cyt'
p77
S'Grb2_cyt'
p78
sS'RasGTP_PM'
p79
S'RasGTP_PM'
p80
sS'Ca'
p81
S'Ca'
p82
sS'PLC_PM'
p83
S'PLC_PM'
p84
sS'Rinh'
p85
S'Rinh'
p86
sS'serca'
p87
S'serca'
p88
sS'RasGDP_PM'
p89
S'RasGDP_PM'
p90
sS'SGS_PM'
p91
S'SGS_PM'
p92
s.