(dp0
S'I_N'
p1
S'I_N'
p2
sS'B_CP'
p3
S'B_CP'
p4
sS'P_C'
p5
S'P_C'
p6
sS'K_in'
p7
S'K_in'
p8
sS'Na_ex'
p9
S'Na_ex'
p10
sS'GABA_o'
p11
S'GABA_o'
p12
sS'M_C'
p13
S'M_C'
p14
sS'M_B'
p15
S'M_B'
p16
sS'M_P'
p17
S'M_P'
p18
sS'Ca_in'
p19
S'Ca_in'
p20
sS'PC_NP'
p21
S'PC_NP'
p22
sS'Ca_store'
p23
S'Ca_store'
p24
sS'B_N'
p25
S'B_N'
p26
sS'CB'
p27
S'CB'
p28
sS'B_C'
p29
S'B_C'
p30
sS'Ca_ex'
p31
S'Ca_ex'
p32
sS'C_C'
p33
S'C_C'
p34
sS'Na_in'
p35
S'Na_in'
p36
sS'PC_C'
p37
S'PC_C'
p38
sS'C_CP'
p39
S'C_CP'
p40
sS'PC_N'
p41
S'PC_N'
p42
sS'B_NP'
p43
S'B_NP'
p44
sS'K_ex'
p45
S'K_ex'
p46
sS'Cl_ex'
p47
S'Cl_ex'
p48
sS'PC_CP'
p49
S'PC_CP'
p50
sS'VIP'
p51
S'VIP'
p52
sS'Cl_o'
p53
S'Cl_o'
p54
sS'P_CP'
p55
S'P_CP'
p56
sS'GABA'
p57
S'GABA'
p58
s.