(dp0
S'GDP'
p1
S'GDP'
p2
sS'D'
p3
g3
sS'G_GTP'
p4
S'G_GTP'
p5
sS'DR'
p6
S'DR'
p7
sS'DRG_GTP'
p8
S'DRG_GTP'
p9
sS'GTP'
p10
S'GTP'
p11
sS'R'
p12
g12
sS'G_GDP'
p13
S'G_GDP'
p14
sS'DRG_GDP'
p15
S'DRG_GDP'
p16
sS'DRG'
p17
S'DRG'
p18
s.