(dp0
S'STIM'
p1
S'mw7cb2644a_384a_4bbb_93fd_fd686e01d7cb'
p2
sS'g'
p3
g3
sS'CaS'
p4
S'CaS'
p5
sS'IP3'
p6
S'IP3'
p7
sS'CaI'
p8
S'CaI'
p9
sS'CaO'
p10
S'mwd6b792d8_c983_42c1_b3bc_2494d6a3363e'
p11
sS'CaM'
p12
S'mw013a7c64_a9ec_483c_b3b8_ed658337ee95'
p13
sS'SERCA'
p14
S'mw0ebc76ad_49d7_4845_8f88_04d443fbe7f3'
p15
sS'PMCA'
p16
S'mwaf195932_a72c_4552_8cf2_b349b15d39c4'
p17
s.