(dp0
S'T2_beta'
p1
S'T2_beta'
p2
sS'alpha_T2_beta'
p3
S'alpha_T2_beta'
p4
sS'alpha_T2'
p5
S'alpha_T2'
p6
sS'alpha_T1'
p7
S'alpha_T1'
p8
sS'T2'
p9
S'T2'
p10
sS'T3_Inh'
p11
S'T3_Inh'
p12
sS'T1_alpha'
p13
S'T1_alpha'
p14
sS'T3'
p15
S'T3'
p16
sS'T1'
p17
S'T1'
p18
sS'beta'
p19
S'beta'
p20
sS'beta_T3_Inh'
p21
S'beta_T3_Inh'
p22
sS'Inh'
p23
S'Inh'
p24
sS'alpha_T1_alpha'
p25
S'alpha_T1_alpha'
p26
sS'Inh_T1'
p27
S'Inh_T1'
p28
sS'alpha_beta_T2'
p29
S'alpha_beta_T2'
p30
sS'alpha'
p31
S'alpha'
p32
sS'alpha_alpha_T1'
p33
S'alpha_alpha_T1'
p34
sS'beta_T3'
p35
S'beta_T3'
p36
sS'empty'
p37
S'empty'
p38
sS'beta_Inh_T3'
p39
S'beta_Inh_T3'
p40
s.