(dp0
S'S2c'
p1
S'species_6'
p2
sS'S24'
p3
S'species_2'
p4
sS'S4c'
p5
S'species_19'
p6
sS'S4n'
p7
S'species_12'
p8
sS'Rtot'
p9
S'species_23'
p10
sS'S2n'
p11
S'species_10'
p12
sS'RT'
p13
S'species_24'
p14
sS'pS2fc'
p15
S'species_20'
p16
sS'S4fc'
p17
S'species_18'
p18
sS'S4fn'
p19
S'species_21'
p20
sS'pS2fn'
p21
S'species_15'
p22
sS'TGF'
p23
S'species_4'
p24
sS'Ract'
p25
S'species_26'
p26
sS'Rcom_S'
p27
S'species_9'
p28
sS'S22'
p29
S'species_1'
p30
sS'pS2tot'
p31
S'species_3'
p32
sS'S22n'
p33
S'species_11'
p34
sS'S24n'
p35
S'species_16'
p36
sS'pS2c'
p37
S'species_8'
p38
sS'Rcom_I'
p39
S'species_25'
p40
sS'S24c'
p41
S'species_17'
p42
sS'Rcom'
p43
S'species_7'
p44
sS'pS2n'
p45
S'species_14'
p46
sS'S22c'
p47
S'species_13'
p48
sS'R'
p49
S'species_5'
p50
sS'SBI'
p51
S'species_22'
p52
s.