(dp0
S'HCHO'
p1
S'HCHO'
p2
sS'MTX4b'
p3
S'MTX4b'
p4
sS'glycine'
p5
S'glycine'
p6
sS'tetrahydrofolate'
p7
S'FH4'
p8
sS'dihydrofolate reductase total'
p9
S'DHFRtot'
p10
sS'dihydrofolate free'
p11
S'FH2f'
p12
sS'ATP'
p13
S'ATP'
p14
sS'NADP'
p15
S'NADP'
p16
sS'MTX5b'
p17
S'MTX5b'
p18
sS'homocysteine'
p19
S'homocysteine'
p20
sS'GAR'
p21
S'GAR'
p22
sS'MTX5'
p23
S'MTX5'
p24
sS'MTX4'
p25
S'MTX4'
p26
sS'MTX2b'
p27
S'MTX2b'
p28
sS'MTX2'
p29
S'MTX2'
p30
sS'MTX1'
p31
S'MTX1'
p32
sS'dihydrofolate bound'
p33
S'FH2b'
p34
sS'MTX3'
p35
S'MTX3'
p36
sS'serine'
p37
S'serine'
p38
sS'10-formyl-dihydrofolate'
p39
S'FFH2'
p40
sS'glutamine'
p41
S'glutamine'
p42
sS'5,10-methylene-tetrahydrofolate'
p43
S'CH2FH4'
p44
sS'NADPH'
p45
S'NADPH'
p46
sS'AICAR'
p47
S'AICAR'
p48
sS'10-formyl-tetrahydrofolate'
p49
S'CHOFH4'
p50
sS'formate'
p51
S'formate'
p52
sS'dUMP'
p53
S'dUMP'
p54
sS'dihydrofolate reductase free'
p55
S'DHFRf'
p56
sS'EMTX'
p57
S'EMTX'
p58
sS'FGAR'
p59
S'FGAR'
p60
sS'MTX1b'
p61
S'MTX1b'
p62
sS'5-methyl-tetrahydrofolate'
p63
S'CH3FH4'
p64
sS'MTX3b'
p65
S'MTX3b'
p66
s.