(dp0
S'c_10-formyl-THF'
p1
S'c_10f'
p2
sS'Homocysteine'
p3
S'hcy'
p4
sS'Acetylspermidine'
p5
S'species_6'
p6
sS'b_Cysteine'
p7
S'b_cys'
p8
sS'Glutamyl-Cysteine'
p9
S'glc'
p10
sS'm_THF'
p11
S'm_thf'
p12
sS'GAR'
p13
S'GAR'
p14
sS'c_Glutamate'
p15
S'c_glu'
p16
sS'c_Cysteine'
p17
S'c_cys'
p18
sS'Sarcosine'
p19
S'src'
p20
sS'Acetyl-CoA'
p21
S'species_8'
p22
sS'Formaldehyde'
p23
S'HCHO'
p24
sS'm_Glycine'
p25
S'm_gly'
p26
sS'SAH'
p27
S'sah'
p28
sS'c_5-10-methylene-THF'
p29
S'c_2cf'
p30
sS'H2O2'
p31
S'H2O2'
p32
sS'SAM'
p33
S'sam'
p34
sS'c_5-methyl-THF'
p35
S'c_5mf'
p36
sS'm_Formate'
p37
S'm_coo'
p38
sS'c_DHF'
p39
S'c_dhf'
p40
sS'Spermidine'
p41
S'species_4'
p42
sS'b_Glycine'
p43
S'b_gly'
p44
sS'b_Glutamate'
p45
S'b_glu'
p46
sS'c_GSSG'
p47
S'c_gsg'
p48
sS'b_Methionine'
p49
S'b_met'
p50
sS'c_THF'
p51
S'c_thf'
p52
sS'c_Serine'
p53
S'c_ser'
p54
sS'b_GSSG'
p55
S'b_gsg'
p56
sS'c_Methionine'
p57
S'met'
p58
sS'm_5-10-methylene-THF'
p59
S'm_2cf'
p60
sS'Cystathionine'
p61
S'cyt'
p62
sS'b_GSH'
p63
S'b_gsh'
p64
sS'Spermine'
p65
S'species_3'
p66
sS'Betaine'
p67
S'BET'
p68
sS'NADPH'
p69
S'NADPH'
p70
sS'CO2'
p71
S'CO'
p72
sS'AICAR'
p73
S'aic'
p74
sS'c_Glycine'
p75
S'c_gly'
p76
sS'dcSAM'
p77
S'species_1'
p78
sS'Folate'
p79
S'Fol'
p80
sS'Acetylspermine'
p81
S'species_5'
p82
sS'dUMP'
p83
S'DUMP'
p84
sS'm_5-10-methenyl-THF'
p85
S'm_1cf'
p86
sS'b_Serine'
p87
S'b_ser'
p88
sS'm_10-formyl-THF'
p89
S'm_10f'
p90
sS'c_Formate'
p91
S'c_coo'
p92
sS'c_5-10-methenyl-THF'
p93
S'c_1cf'
p94
sS'Ornithine'
p95
S'species_7'
p96
sS'CoA'
p97
S'species_9'
p98
sS'Putrescine'
p99
S'species_2'
p100
sS'Dimethylglycine'
p101
S'dmg'
p102
sS'm_Serine'
p103
S'm_ser'
p104
sS'c_GSH'
p105
S'c_gsh'
p106
s.