(dp0
S'_2PGA_c'
p1
S'_2PGA_c'
p2
sS'TS2_c'
p3
S'TS2_c'
p4
sS'ATP_g'
p5
S'ATP_g'
p6
sS'ATP_c'
p7
S'ATP_c'
p8
sS'DHAP_c'
p9
S'DHAP_c'
p10
sS'DHAP_g'
p11
S'DHAP_g'
p12
sS'ADP_g'
p13
S'ADP_g'
p14
sS'Glc6P_g'
p15
S'Glc6P_g'
p16
sS'_3PGA_c'
p17
S'_3PGA_c'
p18
sS'ADP_c'
p19
S'ADP_c'
p20
sS'Glc6P_c'
p21
S'Glc6P_c'
p22
sS'Fru6P_g'
p23
S'Fru6P_g'
p24
sS'Pi_g'
p25
S'Pi_g'
p26
sS'O2_c'
p27
S'O2_c'
p28
sS'NADP_c'
p29
S'NADP_c'
p30
sS'NADP_g'
p31
S'NADP_g'
p32
sS'_6PG_g'
p33
S'_6PG_g'
p34
sS'Rul5P_c'
p35
S'Rul5P_c'
p36
sS'_6PG_c'
p37
S'_6PG_c'
p38
sS'Rul5P_g'
p39
S'Rul5P_g'
p40
sS'Rib5P_c'
p41
S'Rib5P_c'
p42
sS'_13BPGA_g'
p43
S'_13BPGA_g'
p44
sS'Glc_c'
p45
S'Glc_c'
p46
sS'Rib5P_g'
p47
S'Rib5P_g'
p48
sS'Glc_g'
p49
S'Glc_g'
p50
sS'Glc_e'
p51
S'Glc_e'
p52
sS'NADPH_g'
p53
S'NADPH_g'
p54
sS'NADPH_c'
p55
S'NADPH_c'
p56
sS'Pyr_c'
p57
S'Pyr_c'
p58
sS'Pyr_e'
p59
S'Pyr_e'
p60
sS'NAD_g'
p61
S'NAD_g'
p62
sS'Fru16BP_g'
p63
S'Fru16BP_g'
p64
sS'GA3P_g'
p65
S'GA3P_g'
p66
sS'Gly_e'
p67
S'Gly_e'
p68
sS'CO2_c'
p69
S'CO2_c'
p70
sS'TSH2_c'
p71
S'TSH2_c'
p72
sS'CO2_g'
p73
S'CO2_g'
p74
sS'Gly3P_c'
p75
S'Gly3P_c'
p76
sS'Gly3P_g'
p77
S'Gly3P_g'
p78
sS'_6PGL_c'
p79
S'_6PGL_c'
p80
sS'_6PGL_g'
p81
S'_6PGL_g'
p82
sS'PEP_c'
p83
S'PEP_c'
p84
sS'AMP_g'
p85
S'AMP_g'
p86
sS'_3PGA_g'
p87
S'_3PGA_g'
p88
sS'AMP_c'
p89
S'AMP_c'
p90
sS'NADH_g'
p91
S'NADH_g'
p92
s.