(dp0
S'HRG-Erb4-ErbB2'
p1
S'E24'
p2
sS'E23_p'
p3
S'E23P'
p4
sS'fint'
p5
S'fint'
p6
sS'Gab1'
p7
S'A'
p8
sS'HRG-ErbB4'
p9
S'H_E4'
p10
sS'E12-RasGAP'
p11
S'E12R'
p12
sS'E34-RasGAP'
p13
S'E34R'
p14
sS'Aktstar'
p15
S'Aktstar'
p16
sS'E14-PI-3K'
p17
S'E14I'
p18
sS'E13-PI-3K'
p19
S'E13I'
p20
sS'Sum SOS'
p21
S'SigO'
p22
sS'E23-PTP-1B'
p23
S'E23T'
p24
sS'Sum Gab1_p-RasGAP'
p25
S'SigAP_R'
p26
sS'E12_p'
p27
S'E12P'
p28
sS'PIP3-Gab1'
p29
S'P3_A'
p30
sS'Sig-PTP-1B'
p31
S'SigT'
p32
sS'SOS_p'
p33
S'OP'
p34
sS'Shc'
p35
S'S'
p36
sS'Sum Gab1_p-PI-3K'
p37
S'SigAP_I'
p38
sS'E24-PTP-1B'
p39
S'E24T'
p40
sS'Sum PIP3-Gab1-Grb2'
p41
S'SigA_G'
p42
sS'Raf'
p43
S'Raf'
p44
sS'E11-Grb2'
p45
S'E11G'
p46
sS'ERK*-ERKpase'
p47
S'ERKstar_ERKpase'
p48
sS'ERK-MEK*'
p49
S'ERK_MEKstar'
p50
sS'EGF-ErbB1-ErbB2'
p51
S'E12'
p52
sS'Sum Shc_p'
p53
S'SigSP'
p54
sS'E24_p'
p55
S'E24P'
p56
sS'E13-PTP-1B'
p57
S'E13T'
p58
sS'HRG-ErbB3-ErbB2'
p59
S'E23'
p60
sS'ErbB2'
p61
S'E2'
p62
sS'ErbB3'
p63
S'E3'
p64
sS'Sum Grb2-SOS'
p65
S'SigG_O'
p66
sS'ErbB1'
p67
S'E1'
p68
sS'ErbB4'
p69
S'E4'
p70
sS'Gab1_SumGrb2-SOS'
p71
S'A_SigG_O'
p72
sS'E13-Shc'
p73
S'E13S'
p74
sS'E1_p-PTP-1B'
p75
S'E1_PT'
p76
sS'Sum Shc_p-Grb2'
p77
S'SigSP_G'
p78
sS'EGF'
p79
S'E'
p80
sS'Sum Gab1_p-Shc'
p81
S'SigAP_S'
p82
sS'E11-RasGAP'
p83
S'E11R'
p84
sS'E14-PTP-1B'
p85
S'E14T'
p86
sS'HRG-ErbB3'
p87
S'H_E3'
p88
sS'p_ERK-MEK*'
p89
S'pERK_MEKstar'
p90
sS'E14-RasGAP'
p91
S'E14R'
p92
sS'E24-Grb2'
p93
S'E24G'
p94
sS'Sum PIP3-Gab1-Grb2_SOS'
p95
S'SigA_G_O'
p96
sS'E12-PTP-1B'
p97
S'E12T'
p98
sS'(EGF-ErbB1)2'
p99
S'E11'
p100
sS'Sum Grb2-Gab1'
p101
S'SigG_A'
p102
sS'Sum Gab1'
p103
S'SigA'
p104
sS'E4_p-PTP-1B'
p105
S'E4_PT'
p106
sS'E44_p'
p107
S'E44P'
p108
sS'E44-PTP-1B'
p109
S'E44T'
p110
sS'ErbB1-ErbB3_p'
p111
S'E14P'
p112
sS'E23-Shc'
p113
S'E23S'
p114
sS'Sum Shc'
p115
S'SigS'
p116
sS'Sum Gab1_p'
p117
S'SigAP'
p118
sS'E34-Shc'
p119
S'E34S'
p120
sS'Empty'
p121
S'Empty'
p122
sS'PI-3K'
p123
S'I'
p124
sS'E23-PI-3K'
p125
S'E23I'
p126
sS'p_ERK'
p127
S'pERK'
p128
sS'ERKpase'
p129
S'ERKpase'
p130
sS'E34-PI-3K'
p131
S'E34I'
p132
sS'H_E4_p-PTP-1B'
p133
S'H_E4_PT'
p134
sS'EGF-ErbB1'
p135
S'E_E1'
p136
sS'PIP3'
p137
S'P3'
p138
sS'PIP2'
p139
S'P2'
p140
sS'Sum Grb2'
p141
S'SigG'
p142
sS'E11_p'
p143
S'E11P'
p144
sS'Sum RasGAP_p'
p145
S'SigRP'
p146
sS'SumGab1_p-PTP-1B'
p147
S'SigAP_T'
p148
sS'RasGDP'
p149
S'RsD'
p150
sS'Sum PI-3K'
p151
S'SigI'
p152
sS'E44-RasGAP'
p153
S'E44R'
p154
sS'E13-Grb2'
p155
S'E13G'
p156
sS'E2_p-PTP-1B'
p157
S'E2_PT'
p158
sS'RasGTP'
p159
S'RsT'
p160
sS'MEK'
p161
S'MEK'
p162
sS'(HRG-Erb4)2'
p163
S'E44'
p164
sS'normalized Erk*'
p165
S'norm_Erk_star'
p166
sS'(HRG-ErbB3/4)2'
p167
S'E34'
p168
sS'E34-PTP-1B'
p169
S'E34T'
p170
sS'E12-Shc'
p171
S'E12S'
p172
sS'E44-Shc'
p173
S'E44S'
p174
sS'E11-PTP-1B'
p175
S'E11T'
p176
sS'E11-Shc'
p177
S'E11S'
p178
sS'E44-Grb2'
p179
S'E44G'
p180
sS'E14-Shc'
p181
S'E14S'
p182
sS'E23-Grb2'
p183
S'E23G'
p184
sS'E24-Shc'
p185
S'E24S'
p186
sS'RasGAP'
p187
S'R'
p188
sS'ERK'
p189
S'ERK'
p190
sS'E_E1_p-PTP-1B'
p191
S'E_E1_PT'
p192
sS'Sum RasGAP'
p193
S'SigR'
p194
sS'E13-RasGAP'
p195
S'E13R'
p196
sS'E34-Grb2'
p197
S'E34G'
p198
sS'E44-PI-3K'
p199
S'E44I'
p200
sS'E34_p'
p201
S'E34P'
p202
sS'MEK*'
p203
S'MEKstar'
p204
sS'ErbB1-ErbB3'
p205
S'E13'
p206
sS'ErbB1-ErbB4'
p207
S'E14'
p208
sS'E14-Grb2'
p209
S'E14G'
p210
sS'E23-RasGAP'
p211
S'E23R'
p212
sS'SOS'
p213
S'O'
p214
sS'Grb2'
p215
S'G'
p216
sS'Raf*'
p217
S'Rafstar'
p218
sS'Gab1_p'
p219
S'AP'
p220
sS'Akt'
p221
S'Akt'
p222
sS'E12-Grb2'
p223
S'E12G'
p224
sS'HRG'
p225
S'H'
p226
sS'normalized Akt*'
p227
S'norm_Akt_star'
p228
sS'PTP-1B'
p229
S'T'
p230
sS'E24-PI-3K'
p231
S'E24I'
p232
sS'ERK*'
p233
S'ERKstar'
p234
sS'E24-RasGAP'
p235
S'E24R'
p236
sS'p_ERK-ERKpase'
p237
S'pERK_ERKpase'
p238
s.