(dp0
S'PER2_CRY_complex_cytoplasm'
p1
S'y2'
p2
sS'Per2 or Cry mRNA'
p3
S'y1'
p4
sS'BMAL1_cytoplasm'
p5
S'y5'
p6
sS'Bmal1 mRNA'
p7
S'y4'
p8
sS'PER2_CRY_complex_nucleus'
p9
S'y3'
p10
sS'Active BMAL1'
p11
S'y7'
p12
sS'BMAL1_nucleus'
p13
S'y6'
p14
s.