(dp0
S'Frq mRNA'
p1
S'MF'
p2
sS's-Frq'
p3
S'PF'
p4
sS'l-Frq'
p5
S'PFp'
p6
sS'WC-1_2'
p7
S'E2W'
p8
sS'WC-1_1'
p9
S'E1W'
p10
sS'WC-1'
p11
S'PW'
p12
sS'WC-1*'
p13
S'PWL'
p14
sS'tot WC-1'
p15
S'WC1_tot'
p16
sS's-Frq_1'
p17
S'E1F'
p18
sS'tot s-Frq'
p19
S'sFrq_tot'
p20
sS'tot l-Frq'
p21
S'lFrq_tot'
p22
sS'tot Frq'
p23
S'Frq_tot'
p24
sS'l-Frq_1'
p25
S'E1Fp'
p26
sS'l-Frq_2'
p27
S'E2Fp'
p28
sS'WC-1 mRNA'
p29
S'MW'
p30
sS's-Frq_2'
p31
S'E2F'
p32
s.