(dp0
S'MEK phosphatase'
p1
S'MEKPH'
p2
sS'MEK-PP'
p3
S'MEKpp'
p4
sS'MEK-P_MEKPase'
p5
S'MEKpMEKPH'
p6
sS'MAPK phosphatase'
p7
S'MAPKPH'
p8
sS'MAPK-P_MAPKPase'
p9
S'MAPKpMAPKPH'
p10
sS'RAF'
p11
S'RAF'
p12
sS'MAPK-P'
p13
S'MAPKp'
p14
sS'MEK-PP_MEKPase'
p15
S'MEKppMEKPH'
p16
sS'MEK-P'
p17
S'MEKp'
p18
sS'MAPK-PP_MAPKPase'
p19
S'MAPKppMAPKPH'
p20
sS'RAF phosphatase'
p21
S'RAFPH'
p22
sS'MAPK-PP'
p23
S'MAPKpp'
p24
sS'RAF-P'
p25
S'RAFp'
p26
sS'RAF_RAFK'
p27
S'RAFRAFK'
p28
sS'MEK_RAF-P'
p29
S'MEKRAFp'
p30
sS'RAFK'
p31
S'RAFK'
p32
sS'MAPK'
p33
S'MAPK'
p34
sS'MEK'
p35
S'MEK'
p36
sS'MEK-P_RAF-P'
p37
S'MEKpRAFp'
p38
sS'RAF-P_RAFPase'
p39
S'RAFpRAFPH'
p40
sS'MAPK_MEK-PP'
p41
S'MAPKMEKpp'
p42
sS'MAPK-P_MEK-PP'
p43
S'MAPKpMEKpp'
p44
s.