(dp0
S'NFkB_P'
p1
S'NFkB_P'
p2
sS'Alk5'
p3
S'Alk5'
p4
sS'Alk1'
p5
S'Alk1'
p6
sS'Sox9_A'
p7
S'Sox9_A'
p8
sS'Bax_Bcl2'
p9
S'Bax_Bcl2'
p10
sS'NatP'
p11
S'NatP'
p12
sS'IkB'
p13
S'IkB'
p14
sS'Col2mRNA'
p15
S'Col2mRNA'
p16
sS'Tgfb_Alk1_Alk5_Smad7'
p17
S'Tgfb_Alk1_Alk5_Smad7'
p18
sS'Smad2'
p19
S'Smad2'
p20
sS'Integrin'
p21
S'Integrin'
p22
sS'ColFrag'
p23
S'ColFrag'
p24
sS'Tgfb_A'
p25
S'Tgfb_A'
p26
sS'Tgfb_Alk5_dimer'
p27
S'Tgfb_Alk5_dimer'
p28
sS'AggFrag'
p29
S'AggFrag'
p30
sS'ADAMTS5'
p31
S'ADAMTS5'
p32
sS'Smad2_P_Smad4'
p33
S'Smad2_P_Smad4'
p34
sS'SOD'
p35
S'SOD'
p36
sS'Runx2_A'
p37
S'Runx2_A'
p38
sS'RAGE'
p39
S'RAGE'
p40
sS'Smad4'
p41
S'Smad4'
p42
sS'DamP'
p43
S'DamP'
p44
sS'Bax_Bcl2_Beclin_I'
p45
S'Bax_Bcl2_Beclin_I'
p46
sS'Smad1'
p47
S'Smad1'
p48
sS'Runx2_I'
p49
S'Runx2_I'
p50
sS'Smad1_P_Smad4'
p51
S'Smad1_P_Smad4'
p52
sS'Tgfb_Alk1_Alk5'
p53
S'Tgfb_Alk1_Alk5'
p54
sS'Bax_Bcl2_Beclin'
p55
S'Bax_Bcl2_Beclin'
p56
sS'Sink'
p57
S'Sink'
p58
sS'ROS'
p59
S'ROS'
p60
sS'Bcl2'
p61
S'Bcl2'
p62
sS'AGEprod'
p63
S'AGEprod'
p64
sS'proMMP2'
p65
S'proMMP2'
p66
sS'Aggrecan_Collagen2'
p67
S'Aggrecan_Collagen2'
p68
sS'Collagen2'
p69
S'Collagen2'
p70
sS'NFkB'
p71
S'NFkB'
p72
sS'Bax'
p73
S'Bax'
p74
sS'Smad2_P'
p75
S'Smad2_P'
p76
sS'p38'
p77
S'p38'
p78
sS'Sox9'
p79
S'Sox9'
p80
sS'Bcl2_Beclin_I'
p81
S'Bcl2_Beclin_I'
p82
sS'Beclin'
p83
S'Beclin'
p84
sS'IntegrinCount'
p85
S'IntegrinCount'
p86
sS'AcanmRNA'
p87
S'AcanmRNA'
p88
sS'Sox9mRNA'
p89
S'Sox9mRNA'
p90
sS'MMP13'
p91
S'MMP13'
p92
sS'Lys_A'
p93
S'Lys_A'
p94
sS'Alk5_dimer'
p95
S'Alk5_dimer'
p96
sS'Smad1_P'
p97
S'Smad1_P'
p98
sS'Caspase_I'
p99
S'Caspase_I'
p100
sS'Tgfb_I'
p101
S'Tgfb_I'
p102
sS'p38_P'
p103
S'p38_P'
p104
sS'Source'
p105
S'Source'
p106
sS'proMMP13'
p107
S'proMMP13'
p108
sS'IkB_NFkB'
p109
S'IkB_NFkB'
p110
sS'Caspase_A'
p111
S'Caspase_A'
p112
sS'Tgfb_Alk5_dimer_Smad7'
p113
S'Tgfb_Alk5_dimer_Smad7'
p114
sS'Bcl2_Beclin'
p115
S'Bcl2_Beclin'
p116
sS'Alk1_Alk5'
p117
S'Alk1_Alk5'
p118
sS'Beclin_I'
p119
S'Beclin_I'
p120
sS'IL1'
p121
S'IL1'
p122
sS'Smad7'
p123
S'Smad7'
p124
sS'MMP2'
p125
S'MMP2'
p126
sS'Aggrecan'
p127
S'Aggrecan'
p128
sS'Lys_I'
p129
S'Lys_I'
p130
s.