(dp0
S'Calcium-ER'
p1
S'Ca_ER'
p2
sS'G-alpha'
p3
S'G_alpha'
p4
sS'Calcium-mit'
p5
S'Ca_mit'
p6
sS'Calcium-Cyt'
p7
S'Ca_cyt'
p8
sS'EnzCatlysedProduct'
p9
S'Product'
p10
sS'Enzyme'
p11
S'Enz'
p12
sS'PLC'
p13
S'PLC'
p14
s.