(dp0
S'Bnp'
p1
S'species_13'
p2
sS'Mc'
p3
S'species_5'
p4
sS'Bc'
p5
S'species_1'
p6
sS'Cc'
p7
S'species_4'
p8
sS'Bn'
p9
S'species_3'
p10
sS'Mb'
p11
S'species_0'
p12
sS'Ccp'
p13
S'species_6'
p14
sS'PCnp'
p15
S'species_14'
p16
sS'Pc'
p17
S'species_8'
p18
sS'PCn'
p19
S'species_12'
p20
sS'Mp'
p21
S'species_7'
p22
sS'In'
p23
S'species_15'
p24
sS'PCc'
p25
S'species_10'
p26
sS'PCcp'
p27
S'species_11'
p28
sS'Bcp'
p29
S'species_2'
p30
sS'Pcp'
p31
S'species_9'
p32
s.