(dp0
S'phosphoribosylpyrophosphate'
p1
S'PRPP'
p2
sS'dIno_Ino_HX'
p3
S'HX'
p4
sS'DNA'
p5
S'DNA'
p6
sS'adenylosuccinate'
p7
S'SAMP'
p8
sS'ATP_ADP_AMP_Ado'
p9
S'ATP'
p10
sS'adenine'
p11
S'Ade'
p12
sS's-adenosyl-L-methionine'
p13
S'SAM'
p14
sS'dATP_dADP_dAMP_dAdo'
p15
S'dATP'
p16
sS'inosine monophosphate'
p17
S'IMP'
p18
sS'guanine'
p19
S'Gua'
p20
sS'uric acid'
p21
S'UA'
p22
sS'GTP_GDP_GMP'
p23
S'GTP'
p24
sS'phosphate'
p25
S'Pi'
p26
sS'xanthosine monophosphate'
p27
S'XMP'
p28
sS'ribose-5-phosphate'
p29
S'R5P'
p30
sS'dGTP_dGDP_dGMP'
p31
S'dGTP'
p32
sS'RNA'
p33
S'RNA'
p34
sS'xanthine'
p35
S'Xa'
p36
s.