(dp0
S'R5_Arr'
p1
S'R5_Arr'
p2
sS'R6_G_GTP'
p3
S'R6_G_GTP'
p4
sS'Ca2_buff'
p5
S'Ca2_buff'
p6
sS'RGS'
p7
S'RGS'
p8
sS'PDE_Ga_GTP'
p9
S'PDE_Ga_GTP'
p10
sS'R5'
p11
S'R5'
p12
sS'G_GTP'
p13
S'G_GTP'
p14
sS'R6_Arr'
p15
S'R6_Arr'
p16
sS'R4_RKpost'
p17
S'R4_RKpost'
p18
sS'Rec_wCa2_RK'
p19
S'Rec_wCa2_RK'
p20
sS'R0_Gt'
p21
S'R0_Gt'
p22
sS'cGMP'
p23
S'cGMP'
p24
sS'R3_Gt'
p25
S'R3_Gt'
p26
sS'R3_G_GTP'
p27
S'R3_G_GTP'
p28
sS'Ops_G'
p29
S'Ops_G'
p30
sS'Ga_GDP'
p31
S'Ga_GDP'
p32
sS'R1_G'
p33
S'R1_G'
p34
sS'R2_RKpre'
p35
S'R2_RKpre'
p36
sS'R0_G'
p37
S'R0_G'
p38
sS'R2'
p39
S'R2'
p40
sS'RGS_PDE_a_Ga_GTP'
p41
S'RGS_PDE_a_Ga_GTP'
p42
sS'Ops'
p43
S'Ops'
p44
sS'Ops_Gt'
p45
S'Ops_Gt'
p46
sS'Ga_GTP'
p47
S'Ga_GTP'
p48
sS'R0_RKpre'
p49
S'R0_RKpre'
p50
sS'R3_G'
p51
S'R3_G'
p52
sS'R0_G_GTP'
p53
S'R0_G_GTP'
p54
sS'Ga_GTP_PDE_a_Ga_GTP'
p55
S'Ga_GTP_PDE_a_Ga_GTP'
p56
sS'R2_G'
p57
S'R2_G'
p58
sS'Ca2_free'
p59
S'Ca2_free'
p60
sS'Ops_G_GTP'
p61
S'Ops_G_GTP'
p62
sS'R5_G'
p63
S'R5_G'
p64
sS'RK'
p65
S'RK'
p66
sS'R4'
p67
S'R4'
p68
sS'Gbg'
p69
S'Gbg'
p70
sS'R6'
p71
S'R6'
p72
sS'R4_RKpre'
p73
S'R4_RKpre'
p74
sS'R0'
p75
S'R0'
p76
sS'R1'
p77
S'R1'
p78
sS'Ga_GTP_a_PDE_a_Ga_GTP'
p79
S'Ga_GTP_a_PDE_a_Ga_GTP'
p80
sS'R3'
p81
S'R3'
p82
sS'R4_G'
p83
S'R4_G'
p84
sS'R3_RKpost'
p85
S'R3_RKpost'
p86
sS'R2_Gt'
p87
S'R2_Gt'
p88
sS'R1_RKpost'
p89
S'R1_RKpost'
p90
sS'R1_RKpre'
p91
S'R1_RKpre'
p92
sS'PDE_a_Ga_GTP'
p93
S'PDE_a_Ga_GTP'
p94
sS'R'
p95
g95
sS'R3_Arr'
p96
S'R3_Arr'
p97
sS'R5_RKpost'
p98
S'R5_RKpost'
p99
sS'PDE'
p100
S'PDE'
p101
sS'R2_G_GTP'
p102
S'R2_G_GTP'
p103
sS'R2_Arr'
p104
S'R2_Arr'
p105
sS'R6_G'
p106
S'R6_G'
p107
sS'R6_RKpost'
p108
S'R6_RKpost'
p109
sS'R5_G_GTP'
p110
S'R5_G_GTP'
p111
sS'Arr'
p112
S'Arr'
p113
sS'Gt'
p114
S'Gt'
p115
sS'R3_RKpre'
p116
S'R3_RKpre'
p117
sS'R2_RKpost'
p118
S'R2_RKpost'
p119
sS'RGS_Ga_GTP_a_PDE_a_Ga_GTP'
p120
S'RGS_Ga_GTP_a_PDE_a_Ga_GTP'
p121
sS'R4_Arr'
p122
S'R4_Arr'
p123
sS'R6_RKpre'
p124
S'R6_RKpre'
p125
sS'R5_RKpre'
p126
S'R5_RKpre'
p127
sS'R1_G_GTP'
p128
S'R1_G_GTP'
p129
sS'R1_Arr'
p130
S'R1_Arr'
p131
sS'R1_Gt'
p132
S'R1_Gt'
p133
sS'R6_Gt'
p134
S'R6_Gt'
p135
sS'R4_Gt'
p136
S'R4_Gt'
p137
sS'R5_Gt'
p138
S'R5_Gt'
p139
sS'R4_G_GTP'
p140
S'R4_G_GTP'
p141
s.