(dp0
S'p-cyclin_cdc2-p'
p1
S'pM'
p2
sS'total_cyclin'
p3
S'YT'
p4
sS'cyclin'
p5
S'Y'
p6
sS'p-cyclin_cdc2'
p7
S'M'
p8
sS'cdc2k-P'
p9
S'CP'
p10
sS'total_cdc2'
p11
S'CT'
p12
sS'cdc2k'
p13
S'C2'
p14
sS'EmptySet'
p15
S'EmptySet'
p16
sS'p-cyclin'
p17
S'YP'
p18
s.