(dp0
S'TAB2_TAK1_TAB1'
p1
S'mw308b75ec_28b7_4d97_92e2_51a8ce04116a'
p2
sS'EGFR'
p3
S'mw280197c8_98de_43f0_bf01_0f332a1ab689'
p4
sS'TNFR1'
p5
S'mw8cc67de0_64e6_428f_ab09_4c2825cc172c'
p6
sS'IkB'
p7
S'mw2dc73059_a841_48d5_b4bd_3ac24d94c42e'
p8
sS'EGF'
p9
S'mw0be0d193_fd6b_4824_8928_dbade8b5c99c'
p10
sS'DAG'
p11
S'mwf20834c8_a115_460b_859c_4e3ca1ffd953'
p12
sS'MKK4/7'
p13
S'mw702be69a_eb4f_425e_87c7_ef7d85254536'
p14
sS'STAT1/3'
p15
S'mw17ae9adc_54ab_407b_a34d_8413a3a10cc6'
p16
sS'PI3K'
p17
S'mw9bb804c9_3e4e_4684_9f6b_4e6f6706a58e'
p18
sS'CD14-TLR'
p19
S'mw4079e13c_446e_4aa2_9ec4_233583833d02'
p20
sS'PKC'
p21
S'mwb4633da9_f9d6_4ad8_a7e5_da075c830e17'
p22
sS'IkK_NFkB'
p23
S'mw7204ab72_2ee5_4b92_b420_2583dacc4343'
p24
sS'ASK'
p25
S'mw805b55df_cc91_4227_bb52_930e961b682c'
p26
sS'PLC gamma'
p27
S'mw9a5baf6d_0285_4ad3_9499_059c553d9cf6'
p28
sS'MKK1/2'
p29
S'mw75377e12_e23d_44b3_9823_5fac9b23edc8'
p30
sS'TRAF6'
p31
S'mw8bffd47e_34de_4738_81bf_7a39a40b3ae8'
p32
sS'PIP2'
p33
S'mw05469f51_73f7_4ba1_9f1a_bce5fea143c2'
p34
sS'NFkB'
p35
S'mw8a358487_b18b_42df_a646_cd75eb5bfcc2'
p36
sS'IRAK1/4'
p37
S'mw262497ec_3d54_4367_bfe3_76a9c57497cb'
p38
sS'Akt'
p39
S'mwda4716f1_ae00_4149_aec3_12531380425a'
p40
sS'MEKK1'
p41
S'mwf8cfed1b_6fcf_4cba_bc30_b44490814a7a'
p42
sS'p38'
p43
S'mw97345a67_a8e8_42aa_8e62_69e9d2b6cf45'
p44
sS'TNF'
p45
S'mwc844b7c0_98f5_4d0d_8f0c_00dfe8b54e6d'
p46
sS'JAK'
p47
S'mw3832f277_aef2_4f1d_87af_abc2a3c1a7d5'
p48
sS'LPG'
p49
S'mwa5d6f7e4_dc4d_4931_91ce_1e78e7b2f195'
p50
sS'MyD88'
p51
S'mwe5fade7d_1715_4bb1_843f_923da8ecddf1'
p52
sS'cjun'
p53
S'mwfed5a135_c91b_4d20_91b2_3a61723544dd'
p54
sS'Raf'
p55
S'mw32c21c39_237b_4d4c_bb5d_117cb30ce68a'
p56
sS'NIK'
p57
S'mw136c8391_14f4_4a28_83a3_35cc74a2e040'
p58
sS'Shc/Grb2/Sos1'
p59
S'mw323a57b4_8e59_4116_9ad1_fe547b89c858'
p60
sS'TRADD_TRAF2_RIP'
p61
S'mw6ee00a71_ab68_454b_b1cd_60c1ebd19cfa'
p62
sS'MKK3/6'
p63
S'mw46ee629a_dd6b_4163_9da1_2614bb1d74bc'
p64
sS'cfos'
p65
S'mw5c67812a_17f5_43cf_8acb_9bde272c1911'
p66
sS'ERK1/2'
p67
S'mw1f12e5bc_ebbc_4347_b6b7_5cd1740ac69a'
p68
sS'Ras'
p69
S'mw173d8585_5817_4b4c_932a_cf7d673680ac'
p70
sS'JNK'
p71
S'mwd9e7a9b9_6f1b_4bbc_afa5_6cb192b62ce8'
p72
s.