(dp0
S'STAT1*'
p1
S's136'
p2
sS'(IL6-gp80-gp130-JAK)2*-SOCS3'
p3
S'species_15'
p4
sS'gp80'
p5
S'species_2'
p6
sS'(IL6-gp80-gp130-JAK)2'
p7
S'species_8'
p8
sS'STAT3N-STAT3N*'
p9
S'species_29'
p10
sS'MEK-P-Raf*'
p11
S'species_54'
p12
sS'ERK-P-MEK-PP'
p13
S'species_62'
p14
sS'Ras-GDP'
p15
S'species_38'
p16
sS'(IFN-R-JAK)2*-STAT1C'
p17
S'species_83'
p18
sS'STAT1N'
p19
S'species_96'
p20
sS'(IFN-R-JAK)2*'
p21
S'species_82'
p22
sS'SHP2*'
p23
S'species_48'
p24
sS'Raf'
p25
S'species_41'
p26
sS'PP1-STAT1C*'
p27
S'species_90'
p28
sS'SOCS1'
p29
S'species_99'
p30
sS'SOCS3'
p31
S'species_19'
p32
sS'ERK-PP'
p33
S'species_63'
p34
sS'Ras-GTP'
p35
S'species_40'
p36
sS'STAT1C'
p37
S'species_84'
p38
sS'(STAT1C*)2'
p39
S'species_87'
p40
sS'(IFN-R-JAK)2'
p41
S'species_81'
p42
sS'PP1-STAT1C*-STAT3C*'
p43
S's135'
p44
sS'PP2-(STAT1N*)2'
p45
S'species_102'
p46
sS'ERK-P'
p47
S'species_61'
p48
sS'PP1-STAT3C*'
p49
S'species_21'
p50
sS'(IL6-gp80-gp130-JAK)2*-SHP2*-Grb2-SOS-Ras-GDP'
p51
S'species_39'
p52
sS'Raf-Ras-GTP'
p53
S'species_42'
p54
sS'MEK-P-Phosp2'
p55
S'species_58'
p56
sS'SHP2*-Grb2'
p57
S'species_36'
p58
sS'PP2-STAT1N*'
p59
S'species_94'
p60
sS'IFN'
p61
S'species_79'
p62
sS'STAT1N-STAT1N*'
p63
S'species_103'
p64
sS'(IL6-gp80-gp130-JAK)2*-STAT1'
p65
S's138'
p66
sS'(STAT3N*)2'
p67
S'species_23'
p68
sS'(IFN-R-JAK)2*-SOCS1'
p69
S'species_100'
p70
sS'(IL6-gp80-gp130-JAK)2*-STAT1C-STAT3C'
p71
S'species_17'
p72
sS'ERK-PP-Phosp3'
p73
S'species_65'
p74
sS'(IFN-R-JAK)2*-STAT1C-STAT3C'
p75
S'species_68'
p76
sS'STAT1N*'
p77
S'species_95'
p78
sS'(IL6-gp80-gp130-JAK)2*-SHP2*'
p79
S'species_33'
p80
sS'STAT1C*-STAT3C*'
p81
S's120'
p82
sS'CEBP'
p83
S'species_75'
p84
sS'PP2'
p85
S'species_24'
p86
sS'Ras-GTP*'
p87
S'species_43'
p88
sS'PP2-STAT3N*'
p89
S'species_27'
p90
sS'MEK-Raf*'
p91
S'species_52'
p92
sS'STAT3C-STAT3C*'
p93
S'species_18'
p94
sS'(IFN-R-JAK)2*-STAT1C*'
p95
S'species_86'
p96
sS'IFN-R-JAK'
p97
S'species_80'
p98
sS'(IFN-R-JAK)2*-STAT3C*'
p99
S's119'
p100
sS'(IL6-gp80-gp130-JAK)2*-STAT1*'
p101
S's139'
p102
sS'MEK-PP-Phosp2'
p103
S'species_56'
p104
sS'STAT3N*'
p105
S'species_26'
p106
sS'MEK-P'
p107
S'species_53'
p108
sS'(IFN-R-JAK)2*-STAT1C-SHP2-SOCS1'
p109
S'species_105'
p110
sS'STAT1N*-STAT3N*'
p111
S's122'
p112
sS'PP2-STAT1N*-STAT3N*'
p113
S's126'
p114
sS'(IL6-gp80-gp130-JAK)2*-SHP2*-Grb2-SOS'
p115
S'species_37'
p116
sS'(STAT1N*)2'
p117
S'species_92'
p118
sS'R-JAK'
p119
S'species_78'
p120
sS'SHP2*-Grb2-SOS'
p121
S'species_46'
p122
sS'gp130-JAK'
p123
S'species_6'
p124
sS'CEBPn'
p125
S'species_76'
p126
sS'Phosp1'
p127
S'species_49'
p128
sS'Phosp2'
p129
S'species_57'
p130
sS'(IL6-gp80-gp130-JAK)2*-SHP2*-Grb2-SOS-Ras-GTP'
p131
S'species_45'
p132
sS'(IL6-gp80-gp130-JAK)2*-STAT3C*'
p133
S'species_13'
p134
sS'(IL6-gp80-gp130-JAK)2*'
p135
S'species_9'
p136
sS'MEK-PP'
p137
S'species_55'
p138
sS'(IFN-R-JAK)2*-STAT1C-SOCS1'
p139
S'species_104'
p140
sS'mRNA-SOCS1N'
p141
S'species_97'
p142
sS'mRNA-SOCS1C'
p143
S'species_98'
p144
sS'MEK'
p145
S'species_51'
p146
sS'IL6'
p147
S'species_1'
p148
sS'(IL6-gp80-gp130-JAK)2*-STAT1C'
p149
S'species_67'
p150
sS'STAT1C-STAT1C*'
p151
S'species_91'
p152
sS'ERK-MEK-PP'
p153
S'species_60'
p154
sS'SHP2'
p155
S'species_108'
p156
sS'JAK(IL-6)'
p157
S's140'
p158
sS'STAT3N'
p159
S'species_28'
p160
sS'CEBPi'
p161
S'species_74'
p162
sS'STAT3C*'
p163
S'species_12'
p164
sS'STAT3*'
p165
S's137'
p166
sS'(IFN-R-JAK)2*-STAT1C-SHP2'
p167
S'species_106'
p168
sS'STAT1C*'
p169
S'species_85'
p170
sS'PP1-(STAT3C*)2'
p171
S'species_22'
p172
sS'Raf*-Phosp1'
p173
S'species_50'
p174
sS'R'
p175
S'species_107'
p176
sS'IL6-gp80-gp130-JAK'
p177
S'species_7'
p178
sS'ERK'
p179
S'species_59'
p180
sS'(IL6-gp80-gp130-JAK)2*-SHP2*-Grb2'
p181
S'species_34'
p182
sS'(STAT3C*)2'
p183
S'species_14'
p184
sS'gp130'
p185
S'species_4'
p186
sS'PP2-(STAT3N*)2'
p187
S'species_25'
p188
sS'SOS'
p189
S'species_35'
p190
sS'Grb2'
p191
S'species_32'
p192
sS'PP1-(STAT1C*)2'
p193
S'species_101'
p194
sS'Raf*'
p195
S'species_44'
p196
sS'IL6-gp80'
p197
S'species_3'
p198
sS'Grb2-SOS'
p199
S'species_47'
p200
sS'PP1'
p201
S'species_20'
p202
sS'JAK(IFN)'
p203
S'species_5'
p204
sS'(IFN-R-JAK)2*-STAT3C'
p205
S's118'
p206
sS'mRNA-SOCS3N'
p207
S'species_30'
p208
sS'ERK-P-Phosp3'
p209
S'species_66'
p210
sS'STAT3C'
p211
S'species_11'
p212
sS'(IFN-R-JAK)2*-SHP2'
p213
S'species_88'
p214
sS'(IL6-gp80-gp130-JAK)2*-STAT3C'
p215
S'species_10'
p216
sS'mRNA-SOCS3C'
p217
S'species_31'
p218
sS'Phosp3'
p219
S'species_64'
p220
sS'(IL6-gp80-gp130-JAK)2*-SHP2'
p221
S'species_16'
p222
s.