(dp0
S'PKB_P'
p1
S'PKB_P'
p2
sS'r11x2'
p3
S'r11x2'
p4
sS'rendP'
p5
S'rendP'
p6
sS'IRSiP'
p7
S'IRSiP'
p8
sS'r1x22'
p9
S'r1x22'
p10
sS'GLUT4_C'
p11
S'GLUT4_C'
p12
sS'X_P'
p13
S'X_P'
p14
sS'r22'
p15
S'r22'
p16
sS'rend'
p17
S'rend'
p18
sS'PDK1_'
p19
S'PDK1_'
p20
sS'rPbasal'
p21
S'rPbasal'
p22
sS'r11'
p23
S'r11'
p24
sS'r1x22d'
p25
S'r1x22d'
p26
sS'PKB'
p27
S'PKB'
p28
sS'PKC'
p29
S'PKC'
p30
sS'mTOR'
p31
S'mTOR'
p32
sS'r11x22'
p33
S'r11x22'
p34
sS'r12'
p35
S'r12'
p36
sS'PI3K'
p37
S'PI3K'
p38
sS'mTOR_'
p39
S'mTOR_'
p40
sS'IRS'
p41
S'IRS'
p42
sS'PKC_P'
p43
S'PKC_P'
p44
sS'r1x2'
p45
S'r1x2'
p46
sS'PI3K_'
p47
S'PI3K_'
p48
sS'X'
p49
g49
sS'GLUT4_M'
p50
S'GLUT4_M'
p51
sS'r0'
p52
S'r0'
p53
sS'r1'
p54
S'r1'
p55
sS'r2'
p56
S'r2'
p57
sS'PDK1'
p58
S'PDK1'
p59
sS'iendIR'
p60
S'iendIR'
p61
sS'iend'
p62
S'iend'
p63
s.